
;CodeVisionAVR C Compiler V3.12 Advanced
;(C) Copyright 1998-2014 Pavel Haiduc, HP InfoTech s.r.l.
;http://www.hpinfotech.com

;Build configuration    : Debug
;Chip type              : ATmega2560
;Program type           : Application
;Clock frequency        : 11,059200 MHz
;Memory model           : Small
;Optimize for           : Speed
;(s)printf features     : int, width
;(s)scanf features      : int, width
;External RAM size      : 0
;Data Stack size        : 2048 byte(s)
;Heap size              : 0 byte(s)
;Promote 'char' to 'int': Yes
;'char' is unsigned     : Yes
;8 bit enums            : Yes
;Global 'const' stored in FLASH: Yes
;Enhanced function parameter passing: Yes
;Enhanced core instructions: On
;Automatic register allocation for global variables: On
;Smart register allocation: On

	#define _MODEL_SMALL_

	#pragma AVRPART ADMIN PART_NAME ATmega2560
	#pragma AVRPART MEMORY PROG_FLASH 262144
	#pragma AVRPART MEMORY EEPROM 4096
	#pragma AVRPART MEMORY INT_SRAM SIZE 8192
	#pragma AVRPART MEMORY INT_SRAM START_ADDR 0x200

	#define CALL_SUPPORTED 1

	.LISTMAC
	.EQU EERE=0x0
	.EQU EEWE=0x1
	.EQU EEMWE=0x2
	.EQU UDRE=0x5
	.EQU RXC=0x7
	.EQU EECR=0x1F
	.EQU EEDR=0x20
	.EQU EEARL=0x21
	.EQU EEARH=0x22
	.EQU SPSR=0x2D
	.EQU SPDR=0x2E
	.EQU SMCR=0x33
	.EQU MCUSR=0x34
	.EQU MCUCR=0x35
	.EQU WDTCSR=0x60
	.EQU UCSR0A=0xC0
	.EQU UDR0=0xC6
	.EQU RAMPZ=0x3B
	.EQU EIND=0x3C
	.EQU SPL=0x3D
	.EQU SPH=0x3E
	.EQU SREG=0x3F
	.EQU XMCRA=0x74
	.EQU XMCRB=0x75
	.EQU GPIOR0=0x1E

	.DEF R0X0=R0
	.DEF R0X1=R1
	.DEF R0X2=R2
	.DEF R0X3=R3
	.DEF R0X4=R4
	.DEF R0X5=R5
	.DEF R0X6=R6
	.DEF R0X7=R7
	.DEF R0X8=R8
	.DEF R0X9=R9
	.DEF R0XA=R10
	.DEF R0XB=R11
	.DEF R0XC=R12
	.DEF R0XD=R13
	.DEF R0XE=R14
	.DEF R0XF=R15
	.DEF R0X10=R16
	.DEF R0X11=R17
	.DEF R0X12=R18
	.DEF R0X13=R19
	.DEF R0X14=R20
	.DEF R0X15=R21
	.DEF R0X16=R22
	.DEF R0X17=R23
	.DEF R0X18=R24
	.DEF R0X19=R25
	.DEF R0X1A=R26
	.DEF R0X1B=R27
	.DEF R0X1C=R28
	.DEF R0X1D=R29
	.DEF R0X1E=R30
	.DEF R0X1F=R31

	.EQU __SRAM_START=0x0200
	.EQU __SRAM_END=0x21FF
	.EQU __DSTACK_SIZE=0x0800
	.EQU __HEAP_SIZE=0x0000
	.EQU __CLEAR_SRAM_SIZE=__SRAM_END-__SRAM_START+1

	.MACRO __CPD1N
	CPI  R30,LOW(@0)
	LDI  R26,HIGH(@0)
	CPC  R31,R26
	LDI  R26,BYTE3(@0)
	CPC  R22,R26
	LDI  R26,BYTE4(@0)
	CPC  R23,R26
	.ENDM

	.MACRO __CPD2N
	CPI  R26,LOW(@0)
	LDI  R30,HIGH(@0)
	CPC  R27,R30
	LDI  R30,BYTE3(@0)
	CPC  R24,R30
	LDI  R30,BYTE4(@0)
	CPC  R25,R30
	.ENDM

	.MACRO __CPWRR
	CP   R@0,R@2
	CPC  R@1,R@3
	.ENDM

	.MACRO __CPWRN
	CPI  R@0,LOW(@2)
	LDI  R30,HIGH(@2)
	CPC  R@1,R30
	.ENDM

	.MACRO __ADDB1MN
	SUBI R30,LOW(-@0-(@1))
	.ENDM

	.MACRO __ADDB2MN
	SUBI R26,LOW(-@0-(@1))
	.ENDM

	.MACRO __ADDW1MN
	SUBI R30,LOW(-@0-(@1))
	SBCI R31,HIGH(-@0-(@1))
	.ENDM

	.MACRO __ADDW2MN
	SUBI R26,LOW(-@0-(@1))
	SBCI R27,HIGH(-@0-(@1))
	.ENDM

	.MACRO __ADDW1FN
	SUBI R30,LOW(-2*@0-(@1))
	SBCI R31,HIGH(-2*@0-(@1))
	.ENDM

	.MACRO __ADDD1FN
	SUBI R30,LOW(-2*@0-(@1))
	SBCI R31,HIGH(-2*@0-(@1))
	SBCI R22,BYTE3(-2*@0-(@1))
	.ENDM

	.MACRO __ADDD1N
	SUBI R30,LOW(-@0)
	SBCI R31,HIGH(-@0)
	SBCI R22,BYTE3(-@0)
	SBCI R23,BYTE4(-@0)
	.ENDM

	.MACRO __ADDD2N
	SUBI R26,LOW(-@0)
	SBCI R27,HIGH(-@0)
	SBCI R24,BYTE3(-@0)
	SBCI R25,BYTE4(-@0)
	.ENDM

	.MACRO __SUBD1N
	SUBI R30,LOW(@0)
	SBCI R31,HIGH(@0)
	SBCI R22,BYTE3(@0)
	SBCI R23,BYTE4(@0)
	.ENDM

	.MACRO __SUBD2N
	SUBI R26,LOW(@0)
	SBCI R27,HIGH(@0)
	SBCI R24,BYTE3(@0)
	SBCI R25,BYTE4(@0)
	.ENDM

	.MACRO __ANDBMNN
	LDS  R30,@0+(@1)
	ANDI R30,LOW(@2)
	STS  @0+(@1),R30
	.ENDM

	.MACRO __ANDWMNN
	LDS  R30,@0+(@1)
	ANDI R30,LOW(@2)
	STS  @0+(@1),R30
	LDS  R30,@0+(@1)+1
	ANDI R30,HIGH(@2)
	STS  @0+(@1)+1,R30
	.ENDM

	.MACRO __ANDD1N
	ANDI R30,LOW(@0)
	ANDI R31,HIGH(@0)
	ANDI R22,BYTE3(@0)
	ANDI R23,BYTE4(@0)
	.ENDM

	.MACRO __ANDD2N
	ANDI R26,LOW(@0)
	ANDI R27,HIGH(@0)
	ANDI R24,BYTE3(@0)
	ANDI R25,BYTE4(@0)
	.ENDM

	.MACRO __ORBMNN
	LDS  R30,@0+(@1)
	ORI  R30,LOW(@2)
	STS  @0+(@1),R30
	.ENDM

	.MACRO __ORWMNN
	LDS  R30,@0+(@1)
	ORI  R30,LOW(@2)
	STS  @0+(@1),R30
	LDS  R30,@0+(@1)+1
	ORI  R30,HIGH(@2)
	STS  @0+(@1)+1,R30
	.ENDM

	.MACRO __ORD1N
	ORI  R30,LOW(@0)
	ORI  R31,HIGH(@0)
	ORI  R22,BYTE3(@0)
	ORI  R23,BYTE4(@0)
	.ENDM

	.MACRO __ORD2N
	ORI  R26,LOW(@0)
	ORI  R27,HIGH(@0)
	ORI  R24,BYTE3(@0)
	ORI  R25,BYTE4(@0)
	.ENDM

	.MACRO __DELAY_USB
	LDI  R24,LOW(@0)
__DELAY_USB_LOOP:
	DEC  R24
	BRNE __DELAY_USB_LOOP
	.ENDM

	.MACRO __DELAY_USW
	LDI  R24,LOW(@0)
	LDI  R25,HIGH(@0)
__DELAY_USW_LOOP:
	SBIW R24,1
	BRNE __DELAY_USW_LOOP
	.ENDM

	.MACRO __GETD1S
	LDD  R30,Y+@0
	LDD  R31,Y+@0+1
	LDD  R22,Y+@0+2
	LDD  R23,Y+@0+3
	.ENDM

	.MACRO __GETD2S
	LDD  R26,Y+@0
	LDD  R27,Y+@0+1
	LDD  R24,Y+@0+2
	LDD  R25,Y+@0+3
	.ENDM

	.MACRO __PUTD1S
	STD  Y+@0,R30
	STD  Y+@0+1,R31
	STD  Y+@0+2,R22
	STD  Y+@0+3,R23
	.ENDM

	.MACRO __PUTD2S
	STD  Y+@0,R26
	STD  Y+@0+1,R27
	STD  Y+@0+2,R24
	STD  Y+@0+3,R25
	.ENDM

	.MACRO __PUTDZ2
	STD  Z+@0,R26
	STD  Z+@0+1,R27
	STD  Z+@0+2,R24
	STD  Z+@0+3,R25
	.ENDM

	.MACRO __CLRD1S
	STD  Y+@0,R30
	STD  Y+@0+1,R30
	STD  Y+@0+2,R30
	STD  Y+@0+3,R30
	.ENDM

	.MACRO __POINTB1MN
	LDI  R30,LOW(@0+(@1))
	.ENDM

	.MACRO __POINTW1MN
	LDI  R30,LOW(@0+(@1))
	LDI  R31,HIGH(@0+(@1))
	.ENDM

	.MACRO __POINTD1M
	LDI  R30,LOW(@0)
	LDI  R31,HIGH(@0)
	LDI  R22,BYTE3(@0)
	LDI  R23,BYTE4(@0)
	.ENDM

	.MACRO __POINTW1FN
	LDI  R30,LOW(2*@0+(@1))
	LDI  R31,HIGH(2*@0+(@1))
	.ENDM

	.MACRO __POINTD1FN
	LDI  R30,LOW(2*@0+(@1))
	LDI  R31,HIGH(2*@0+(@1))
	LDI  R22,BYTE3(2*@0+(@1))
	LDI  R23,BYTE4(2*@0+(@1))
	.ENDM

	.MACRO __POINTB2MN
	LDI  R26,LOW(@0+(@1))
	.ENDM

	.MACRO __POINTW2MN
	LDI  R26,LOW(@0+(@1))
	LDI  R27,HIGH(@0+(@1))
	.ENDM

	.MACRO __POINTW2FN
	LDI  R26,LOW(2*@0+(@1))
	LDI  R27,HIGH(2*@0+(@1))
	.ENDM

	.MACRO __POINTD2FN
	LDI  R26,LOW(2*@0+(@1))
	LDI  R27,HIGH(2*@0+(@1))
	LDI  R24,BYTE3(2*@0+(@1))
	LDI  R25,BYTE4(2*@0+(@1))
	.ENDM

	.MACRO __POINTBRM
	LDI  R@0,LOW(@1)
	.ENDM

	.MACRO __POINTWRM
	LDI  R@0,LOW(@2)
	LDI  R@1,HIGH(@2)
	.ENDM

	.MACRO __POINTBRMN
	LDI  R@0,LOW(@1+(@2))
	.ENDM

	.MACRO __POINTWRMN
	LDI  R@0,LOW(@2+(@3))
	LDI  R@1,HIGH(@2+(@3))
	.ENDM

	.MACRO __POINTWRFN
	LDI  R@0,LOW(@2*2+(@3))
	LDI  R@1,HIGH(@2*2+(@3))
	.ENDM

	.MACRO __GETD1N
	LDI  R30,LOW(@0)
	LDI  R31,HIGH(@0)
	LDI  R22,BYTE3(@0)
	LDI  R23,BYTE4(@0)
	.ENDM

	.MACRO __GETD2N
	LDI  R26,LOW(@0)
	LDI  R27,HIGH(@0)
	LDI  R24,BYTE3(@0)
	LDI  R25,BYTE4(@0)
	.ENDM

	.MACRO __GETB1MN
	LDS  R30,@0+(@1)
	.ENDM

	.MACRO __GETB1HMN
	LDS  R31,@0+(@1)
	.ENDM

	.MACRO __GETW1MN
	LDS  R30,@0+(@1)
	LDS  R31,@0+(@1)+1
	.ENDM

	.MACRO __GETD1MN
	LDS  R30,@0+(@1)
	LDS  R31,@0+(@1)+1
	LDS  R22,@0+(@1)+2
	LDS  R23,@0+(@1)+3
	.ENDM

	.MACRO __GETBRMN
	LDS  R@0,@1+(@2)
	.ENDM

	.MACRO __GETWRMN
	LDS  R@0,@2+(@3)
	LDS  R@1,@2+(@3)+1
	.ENDM

	.MACRO __GETWRZ
	LDD  R@0,Z+@2
	LDD  R@1,Z+@2+1
	.ENDM

	.MACRO __GETD2Z
	LDD  R26,Z+@0
	LDD  R27,Z+@0+1
	LDD  R24,Z+@0+2
	LDD  R25,Z+@0+3
	.ENDM

	.MACRO __GETB2MN
	LDS  R26,@0+(@1)
	.ENDM

	.MACRO __GETW2MN
	LDS  R26,@0+(@1)
	LDS  R27,@0+(@1)+1
	.ENDM

	.MACRO __GETD2MN
	LDS  R26,@0+(@1)
	LDS  R27,@0+(@1)+1
	LDS  R24,@0+(@1)+2
	LDS  R25,@0+(@1)+3
	.ENDM

	.MACRO __PUTB1MN
	STS  @0+(@1),R30
	.ENDM

	.MACRO __PUTW1MN
	STS  @0+(@1),R30
	STS  @0+(@1)+1,R31
	.ENDM

	.MACRO __PUTD1MN
	STS  @0+(@1),R30
	STS  @0+(@1)+1,R31
	STS  @0+(@1)+2,R22
	STS  @0+(@1)+3,R23
	.ENDM

	.MACRO __PUTB1EN
	LDI  R26,LOW(@0+(@1))
	LDI  R27,HIGH(@0+(@1))
	CALL __EEPROMWRB
	.ENDM

	.MACRO __PUTW1EN
	LDI  R26,LOW(@0+(@1))
	LDI  R27,HIGH(@0+(@1))
	CALL __EEPROMWRW
	.ENDM

	.MACRO __PUTD1EN
	LDI  R26,LOW(@0+(@1))
	LDI  R27,HIGH(@0+(@1))
	CALL __EEPROMWRD
	.ENDM

	.MACRO __PUTBR0MN
	STS  @0+(@1),R0
	.ENDM

	.MACRO __PUTBMRN
	STS  @0+(@1),R@2
	.ENDM

	.MACRO __PUTWMRN
	STS  @0+(@1),R@2
	STS  @0+(@1)+1,R@3
	.ENDM

	.MACRO __PUTBZR
	STD  Z+@1,R@0
	.ENDM

	.MACRO __PUTWZR
	STD  Z+@2,R@0
	STD  Z+@2+1,R@1
	.ENDM

	.MACRO __GETW1R
	MOV  R30,R@0
	MOV  R31,R@1
	.ENDM

	.MACRO __GETW2R
	MOV  R26,R@0
	MOV  R27,R@1
	.ENDM

	.MACRO __GETWRN
	LDI  R@0,LOW(@2)
	LDI  R@1,HIGH(@2)
	.ENDM

	.MACRO __PUTW1R
	MOV  R@0,R30
	MOV  R@1,R31
	.ENDM

	.MACRO __PUTW2R
	MOV  R@0,R26
	MOV  R@1,R27
	.ENDM

	.MACRO __ADDWRN
	SUBI R@0,LOW(-@2)
	SBCI R@1,HIGH(-@2)
	.ENDM

	.MACRO __ADDWRR
	ADD  R@0,R@2
	ADC  R@1,R@3
	.ENDM

	.MACRO __SUBWRN
	SUBI R@0,LOW(@2)
	SBCI R@1,HIGH(@2)
	.ENDM

	.MACRO __SUBWRR
	SUB  R@0,R@2
	SBC  R@1,R@3
	.ENDM

	.MACRO __ANDWRN
	ANDI R@0,LOW(@2)
	ANDI R@1,HIGH(@2)
	.ENDM

	.MACRO __ANDWRR
	AND  R@0,R@2
	AND  R@1,R@3
	.ENDM

	.MACRO __ORWRN
	ORI  R@0,LOW(@2)
	ORI  R@1,HIGH(@2)
	.ENDM

	.MACRO __ORWRR
	OR   R@0,R@2
	OR   R@1,R@3
	.ENDM

	.MACRO __EORWRR
	EOR  R@0,R@2
	EOR  R@1,R@3
	.ENDM

	.MACRO __GETWRS
	LDD  R@0,Y+@2
	LDD  R@1,Y+@2+1
	.ENDM

	.MACRO __PUTBSR
	STD  Y+@1,R@0
	.ENDM

	.MACRO __PUTWSR
	STD  Y+@2,R@0
	STD  Y+@2+1,R@1
	.ENDM

	.MACRO __MOVEWRR
	MOV  R@0,R@2
	MOV  R@1,R@3
	.ENDM

	.MACRO __INWR
	IN   R@0,@2
	IN   R@1,@2+1
	.ENDM

	.MACRO __OUTWR
	OUT  @2+1,R@1
	OUT  @2,R@0
	.ENDM

	.MACRO __CALL1MN
	LDS  R30,@0+(@1)
	LDS  R31,@0+(@1)+1
	ICALL
	.ENDM

	.MACRO __CALL1FN
	LDI  R30,LOW(2*@0+(@1))
	LDI  R31,HIGH(2*@0+(@1))
	CALL __GETW1PF
	ICALL
	.ENDM

	.MACRO __CALL2EN
	PUSH R26
	PUSH R27
	LDI  R26,LOW(@0+(@1))
	LDI  R27,HIGH(@0+(@1))
	CALL __EEPROMRDW
	POP  R27
	POP  R26
	ICALL
	.ENDM

	.MACRO __CALL2EX
	SUBI R26,LOW(-@0)
	SBCI R27,HIGH(-@0)
	CALL __EEPROMRDD
	ICALL
	.ENDM

	.MACRO __GETW1STACK
	IN   R30,SPL
	IN   R31,SPH
	ADIW R30,@0+1
	LD   R0,Z+
	LD   R31,Z
	MOV  R30,R0
	.ENDM

	.MACRO __GETD1STACK
	IN   R30,SPL
	IN   R31,SPH
	ADIW R30,@0+1
	LD   R0,Z+
	LD   R1,Z+
	LD   R22,Z
	MOVW R30,R0
	.ENDM

	.MACRO __NBST
	BST  R@0,@1
	IN   R30,SREG
	LDI  R31,0x40
	EOR  R30,R31
	OUT  SREG,R30
	.ENDM


	.MACRO __PUTB1SN
	LDD  R26,Y+@0
	LDD  R27,Y+@0+1
	SUBI R26,LOW(-@1)
	SBCI R27,HIGH(-@1)
	ST   X,R30
	.ENDM

	.MACRO __PUTW1SN
	LDD  R26,Y+@0
	LDD  R27,Y+@0+1
	SUBI R26,LOW(-@1)
	SBCI R27,HIGH(-@1)
	ST   X+,R30
	ST   X,R31
	.ENDM

	.MACRO __PUTD1SN
	LDD  R26,Y+@0
	LDD  R27,Y+@0+1
	SUBI R26,LOW(-@1)
	SBCI R27,HIGH(-@1)
	CALL __PUTDP1
	.ENDM

	.MACRO __PUTB1SNS
	LDD  R26,Y+@0
	LDD  R27,Y+@0+1
	ADIW R26,@1
	ST   X,R30
	.ENDM

	.MACRO __PUTW1SNS
	LDD  R26,Y+@0
	LDD  R27,Y+@0+1
	ADIW R26,@1
	ST   X+,R30
	ST   X,R31
	.ENDM

	.MACRO __PUTD1SNS
	LDD  R26,Y+@0
	LDD  R27,Y+@0+1
	ADIW R26,@1
	CALL __PUTDP1
	.ENDM

	.MACRO __PUTB1PMN
	LDS  R26,@0
	LDS  R27,@0+1
	SUBI R26,LOW(-@1)
	SBCI R27,HIGH(-@1)
	ST   X,R30
	.ENDM

	.MACRO __PUTW1PMN
	LDS  R26,@0
	LDS  R27,@0+1
	SUBI R26,LOW(-@1)
	SBCI R27,HIGH(-@1)
	ST   X+,R30
	ST   X,R31
	.ENDM

	.MACRO __PUTD1PMN
	LDS  R26,@0
	LDS  R27,@0+1
	SUBI R26,LOW(-@1)
	SBCI R27,HIGH(-@1)
	CALL __PUTDP1
	.ENDM

	.MACRO __PUTB1PMNS
	LDS  R26,@0
	LDS  R27,@0+1
	ADIW R26,@1
	ST   X,R30
	.ENDM

	.MACRO __PUTW1PMNS
	LDS  R26,@0
	LDS  R27,@0+1
	ADIW R26,@1
	ST   X+,R30
	ST   X,R31
	.ENDM

	.MACRO __PUTD1PMNS
	LDS  R26,@0
	LDS  R27,@0+1
	ADIW R26,@1
	CALL __PUTDP1
	.ENDM

	.MACRO __PUTB1RN
	MOVW R26,R@0
	SUBI R26,LOW(-@1)
	SBCI R27,HIGH(-@1)
	ST   X,R30
	.ENDM

	.MACRO __PUTW1RN
	MOVW R26,R@0
	SUBI R26,LOW(-@1)
	SBCI R27,HIGH(-@1)
	ST   X+,R30
	ST   X,R31
	.ENDM

	.MACRO __PUTD1RN
	MOVW R26,R@0
	SUBI R26,LOW(-@1)
	SBCI R27,HIGH(-@1)
	CALL __PUTDP1
	.ENDM

	.MACRO __PUTB1RNS
	MOVW R26,R@0
	ADIW R26,@1
	ST   X,R30
	.ENDM

	.MACRO __PUTW1RNS
	MOVW R26,R@0
	ADIW R26,@1
	ST   X+,R30
	ST   X,R31
	.ENDM

	.MACRO __PUTD1RNS
	MOVW R26,R@0
	ADIW R26,@1
	CALL __PUTDP1
	.ENDM

	.MACRO __PUTB1RON
	MOV  R26,R@0
	MOV  R27,R@1
	SUBI R26,LOW(-@2)
	SBCI R27,HIGH(-@2)
	ST   X,R30
	.ENDM

	.MACRO __PUTW1RON
	MOV  R26,R@0
	MOV  R27,R@1
	SUBI R26,LOW(-@2)
	SBCI R27,HIGH(-@2)
	ST   X+,R30
	ST   X,R31
	.ENDM

	.MACRO __PUTD1RON
	MOV  R26,R@0
	MOV  R27,R@1
	SUBI R26,LOW(-@2)
	SBCI R27,HIGH(-@2)
	CALL __PUTDP1
	.ENDM

	.MACRO __PUTB1RONS
	MOV  R26,R@0
	MOV  R27,R@1
	ADIW R26,@2
	ST   X,R30
	.ENDM

	.MACRO __PUTW1RONS
	MOV  R26,R@0
	MOV  R27,R@1
	ADIW R26,@2
	ST   X+,R30
	ST   X,R31
	.ENDM

	.MACRO __PUTD1RONS
	MOV  R26,R@0
	MOV  R27,R@1
	ADIW R26,@2
	CALL __PUTDP1
	.ENDM


	.MACRO __GETB1SX
	MOVW R30,R28
	SUBI R30,LOW(-@0)
	SBCI R31,HIGH(-@0)
	LD   R30,Z
	.ENDM

	.MACRO __GETB1HSX
	MOVW R30,R28
	SUBI R30,LOW(-@0)
	SBCI R31,HIGH(-@0)
	LD   R31,Z
	.ENDM

	.MACRO __GETW1SX
	MOVW R30,R28
	SUBI R30,LOW(-@0)
	SBCI R31,HIGH(-@0)
	LD   R0,Z+
	LD   R31,Z
	MOV  R30,R0
	.ENDM

	.MACRO __GETD1SX
	MOVW R30,R28
	SUBI R30,LOW(-@0)
	SBCI R31,HIGH(-@0)
	LD   R0,Z+
	LD   R1,Z+
	LD   R22,Z+
	LD   R23,Z
	MOVW R30,R0
	.ENDM

	.MACRO __GETB2SX
	MOVW R26,R28
	SUBI R26,LOW(-@0)
	SBCI R27,HIGH(-@0)
	LD   R26,X
	.ENDM

	.MACRO __GETW2SX
	MOVW R26,R28
	SUBI R26,LOW(-@0)
	SBCI R27,HIGH(-@0)
	LD   R0,X+
	LD   R27,X
	MOV  R26,R0
	.ENDM

	.MACRO __GETD2SX
	MOVW R26,R28
	SUBI R26,LOW(-@0)
	SBCI R27,HIGH(-@0)
	LD   R0,X+
	LD   R1,X+
	LD   R24,X+
	LD   R25,X
	MOVW R26,R0
	.ENDM

	.MACRO __GETBRSX
	MOVW R30,R28
	SUBI R30,LOW(-@1)
	SBCI R31,HIGH(-@1)
	LD   R@0,Z
	.ENDM

	.MACRO __GETWRSX
	MOVW R30,R28
	SUBI R30,LOW(-@2)
	SBCI R31,HIGH(-@2)
	LD   R@0,Z+
	LD   R@1,Z
	.ENDM

	.MACRO __GETBRSX2
	MOVW R26,R28
	SUBI R26,LOW(-@1)
	SBCI R27,HIGH(-@1)
	LD   R@0,X
	.ENDM

	.MACRO __GETWRSX2
	MOVW R26,R28
	SUBI R26,LOW(-@2)
	SBCI R27,HIGH(-@2)
	LD   R@0,X+
	LD   R@1,X
	.ENDM

	.MACRO __LSLW8SX
	MOVW R30,R28
	SUBI R30,LOW(-@0)
	SBCI R31,HIGH(-@0)
	LD   R31,Z
	CLR  R30
	.ENDM

	.MACRO __PUTB1SX
	MOVW R26,R28
	SUBI R26,LOW(-@0)
	SBCI R27,HIGH(-@0)
	ST   X,R30
	.ENDM

	.MACRO __PUTW1SX
	MOVW R26,R28
	SUBI R26,LOW(-@0)
	SBCI R27,HIGH(-@0)
	ST   X+,R30
	ST   X,R31
	.ENDM

	.MACRO __PUTD1SX
	MOVW R26,R28
	SUBI R26,LOW(-@0)
	SBCI R27,HIGH(-@0)
	ST   X+,R30
	ST   X+,R31
	ST   X+,R22
	ST   X,R23
	.ENDM

	.MACRO __CLRW1SX
	MOVW R26,R28
	SUBI R26,LOW(-@0)
	SBCI R27,HIGH(-@0)
	ST   X+,R30
	ST   X,R30
	.ENDM

	.MACRO __CLRD1SX
	MOVW R26,R28
	SUBI R26,LOW(-@0)
	SBCI R27,HIGH(-@0)
	ST   X+,R30
	ST   X+,R30
	ST   X+,R30
	ST   X,R30
	.ENDM

	.MACRO __PUTB2SX
	MOVW R30,R28
	SUBI R30,LOW(-@0)
	SBCI R31,HIGH(-@0)
	ST   Z,R26
	.ENDM

	.MACRO __PUTW2SX
	MOVW R30,R28
	SUBI R30,LOW(-@0)
	SBCI R31,HIGH(-@0)
	ST   Z+,R26
	ST   Z,R27
	.ENDM

	.MACRO __PUTD2SX
	MOVW R30,R28
	SUBI R30,LOW(-@0)
	SBCI R31,HIGH(-@0)
	ST   Z+,R26
	ST   Z+,R27
	ST   Z+,R24
	ST   Z,R25
	.ENDM

	.MACRO __PUTBSRX
	MOVW R30,R28
	SUBI R30,LOW(-@1)
	SBCI R31,HIGH(-@1)
	ST   Z,R@0
	.ENDM

	.MACRO __PUTWSRX
	MOVW R30,R28
	SUBI R30,LOW(-@2)
	SBCI R31,HIGH(-@2)
	ST   Z+,R@0
	ST   Z,R@1
	.ENDM

	.MACRO __PUTB1SNX
	MOVW R26,R28
	SUBI R26,LOW(-@0)
	SBCI R27,HIGH(-@0)
	LD   R0,X+
	LD   R27,X
	MOV  R26,R0
	SUBI R26,LOW(-@1)
	SBCI R27,HIGH(-@1)
	ST   X,R30
	.ENDM

	.MACRO __PUTW1SNX
	MOVW R26,R28
	SUBI R26,LOW(-@0)
	SBCI R27,HIGH(-@0)
	LD   R0,X+
	LD   R27,X
	MOV  R26,R0
	SUBI R26,LOW(-@1)
	SBCI R27,HIGH(-@1)
	ST   X+,R30
	ST   X,R31
	.ENDM

	.MACRO __PUTD1SNX
	MOVW R26,R28
	SUBI R26,LOW(-@0)
	SBCI R27,HIGH(-@0)
	LD   R0,X+
	LD   R27,X
	MOV  R26,R0
	SUBI R26,LOW(-@1)
	SBCI R27,HIGH(-@1)
	ST   X+,R30
	ST   X+,R31
	ST   X+,R22
	ST   X,R23
	.ENDM

	.MACRO __MULBRR
	MULS R@0,R@1
	MOVW R30,R0
	.ENDM

	.MACRO __MULBRRU
	MUL  R@0,R@1
	MOVW R30,R0
	.ENDM

	.MACRO __MULBRR0
	MULS R@0,R@1
	.ENDM

	.MACRO __MULBRRU0
	MUL  R@0,R@1
	.ENDM

	.MACRO __MULBNWRU
	LDI  R26,@2
	MUL  R26,R@0
	MOVW R30,R0
	MUL  R26,R@1
	ADD  R31,R0
	.ENDM

;NAME DEFINITIONS FOR GLOBAL VARIABLES ALLOCATED TO REGISTERS
	.DEF _LCD_X=R4
	.DEF _LCD_Y=R3
	.DEF _PB4_B=R6
	.DEF _PB5_B=R5
	.DEF _ENC_counter=R8
	.DEF _T3_ready=R7
	.DEF _Ledon=R10
	.DEF _WiFi_Current_Connection=R9
	.DEF _WiFi_what_to_read=R12
	.DEF _WiFi_answer_ID=R11
	.DEF _WiFi_symbol_counter=R14
	.DEF _WiFi_Busy=R13

;GPIOR0 INITIALIZATION VALUE
	.EQU __GPIOR0_INIT=0x00

	.CSEG
	.ORG 0x00

;START OF CODE MARKER
__START_OF_CODE:

;INTERRUPT VECTORS
	JMP  __RESET
	JMP  0x00
	JMP  0x00
	JMP  0x00
	JMP  0x00
	JMP  0x00
	JMP  0x00
	JMP  0x00
	JMP  0x00
	JMP  _pin_change_isr0
	JMP  _pin_change_isr1
	JMP  0x00
	JMP  0x00
	JMP  0x00
	JMP  0x00
	JMP  0x00
	JMP  0x00
	JMP  0x00
	JMP  0x00
	JMP  0x00
	JMP  _timer1_ovf_isr
	JMP  0x00
	JMP  0x00
	JMP  0x00
	JMP  0x00
	JMP  _usart0_rx_isr
	JMP  0x00
	JMP  0x00
	JMP  0x00
	JMP  0x00
	JMP  0x00
	JMP  0x00
	JMP  0x00
	JMP  0x00
	JMP  0x00
	JMP  _timer3_ovf_isr
	JMP  _usart1_rx_isr
	JMP  0x00
	JMP  0x00
	JMP  _twi_int_handler
	JMP  0x00
	JMP  0x00
	JMP  0x00
	JMP  0x00
	JMP  0x00
	JMP  0x00
	JMP  0x00
	JMP  0x00
	JMP  0x00
	JMP  0x00
	JMP  0x00
	JMP  0x00
	JMP  0x00
	JMP  0x00
	JMP  0x00
	JMP  0x00
	JMP  0x00

_arrow:
	.DB  0xFF,0xFF,0x7E,0x7E,0x3C,0x3C,0x18,0x18
	.DB  0x10,0x0
_LCD_Buffer:
	.DB  0x0,0x0,0x0,0x0,0x0,0x0,0x0,0x5F
	.DB  0x0,0x0,0x0,0x7,0x0,0x7,0x0,0x14
	.DB  0x7F,0x14,0x7F,0x14,0x24,0x2A,0x7F,0x2A
	.DB  0x12,0x23,0x13,0x8,0x64,0x62,0x36,0x49
	.DB  0x55,0x22,0x50,0x0,0x5,0x3,0x0,0x0
	.DB  0x0,0x1C,0x22,0x41,0x0,0x0,0x41,0x22
	.DB  0x1C,0x0,0x14,0x8,0x3E,0x8,0x14,0x8
	.DB  0x8,0x3E,0x8,0x8,0x0,0x50,0x30,0x0
	.DB  0x0,0x8,0x8,0x8,0x8,0x8,0x0,0x60
	.DB  0x60,0x0,0x0,0x20,0x10,0x8,0x4,0x2
	.DB  0x0,0x0,0x0,0x0,0x0,0x0,0x0,0x5F
	.DB  0x0,0x0,0x0,0x7,0x0,0x7,0x0,0x14
	.DB  0x7F,0x14,0x7F,0x14,0x24,0x2A,0x7F,0x2A
	.DB  0x12,0x23,0x13,0x8,0x64,0x62,0x36,0x49
	.DB  0x55,0x22,0x50,0x0,0x5,0x3,0x0,0x0
	.DB  0x0,0x1C,0x22,0x41,0x0,0x0,0x41,0x22
	.DB  0x1C,0x0,0x14,0x8,0x3E,0x8,0x14,0x8
	.DB  0x8,0x3E,0x8,0x8,0x0,0x50,0x30,0x0
	.DB  0x0,0x8,0x8,0x8,0x8,0x8,0x0,0x60
	.DB  0x60,0x0,0x0,0x20,0x10,0x8,0x4,0x2
	.DB  0x0,0x0,0x0,0x0,0x0,0x0,0x0,0x5F
	.DB  0x0,0x0,0x0,0x7,0x0,0x7,0x0,0x14
	.DB  0x7F,0x14,0x7F,0x14,0x24,0x2A,0x7F,0x2A
	.DB  0x12,0x23,0x13,0x8,0x64,0x62,0x36,0x49
	.DB  0x55,0x22,0x50,0x0,0x5,0x3,0x0,0x0
	.DB  0x0,0x1C,0x22,0x41,0x0,0x0,0x41,0x22
	.DB  0x1C,0x0,0x14,0x8,0x3E,0x8,0x14,0x8
	.DB  0x8,0x3E,0x8,0x8,0x0,0x50,0x30,0x0
	.DB  0x0,0x8,0x8,0x8,0x8,0x8,0x0,0x60
	.DB  0x60,0x0,0x0,0x20,0x10,0x8,0x4,0x2
	.DB  0x3E,0x51,0x49,0x45,0x3E,0x0,0x42,0x7F
	.DB  0x40,0x0,0x42,0x61,0x51,0x49,0x46,0x21
	.DB  0x41,0x45,0x4B,0x31,0x18,0x14,0x12,0x7F
	.DB  0x10,0x27,0x45,0x45,0x45,0x39,0x3C,0x4A
	.DB  0x49,0x49,0x30,0x1,0x71,0x9,0x5,0x3
	.DB  0x36,0x49,0x49,0x49,0x36,0x6,0x49,0x49
	.DB  0x29,0x1E,0x0,0x36,0x36,0x0,0x0,0x0
	.DB  0x56,0x36,0x0,0x0,0x8,0x14,0x22,0x41
	.DB  0x0,0x14,0x14,0x14,0x14,0x14,0x0,0x41
	.DB  0x22,0x14,0x8,0x2,0x1,0x51,0x9,0x6
	.DB  0x32,0x49,0x79,0x41,0x3E,0x7E,0x11,0x11
	.DB  0x11,0x7E,0x7F,0x49,0x49,0x49,0x36,0x3E
	.DB  0x41,0x41,0x41,0x22,0x7F,0x41,0x41,0x22
	.DB  0x1C,0x7F,0x49,0x49,0x49,0x41,0x7F,0x9
	.DB  0x9,0x9,0x1,0x3E,0x41,0x49,0x49,0x7A
	.DB  0x7F,0x8,0x8,0x8,0x7F,0x0,0x41,0x7F
	.DB  0x41,0x0,0x20,0x40,0x41,0x3F,0x1,0x7F
	.DB  0x8,0x14,0x22,0x41,0x7F,0x40,0x40,0x40
	.DB  0x40,0x7F,0x2,0xC,0x2,0x7F,0x7F,0x4
	.DB  0x8,0x10,0x7F,0x3E,0x41,0x41,0x41,0x3E
	.DB  0x7F,0x9,0x9,0x9,0x6,0x3E,0x41,0x51
	.DB  0x21,0x5E,0x7F,0x9,0x19,0x29,0x46,0x46
	.DB  0x49,0x49,0x49,0x31,0x1,0x1,0x7F,0x1
	.DB  0x1,0x3F,0x40,0x40,0x40,0x3F,0x1F,0x20
	.DB  0x40,0x20,0x1F,0x3F,0x40,0x38,0x40,0x3F
	.DB  0x63,0x14,0x8,0x14,0x63,0x7,0x8,0x70
	.DB  0x8,0x7,0x61,0x51,0x49,0x45,0x43,0x0
	.DB  0x7F,0x41,0x41,0x0,0x2,0x4,0x8,0x10
	.DB  0x20,0x0,0x41,0x41,0x7F,0x0,0x4,0x2
	.DB  0x1,0x2,0x4,0x40,0x40,0x40,0x40,0x40
	.DB  0x0,0x1,0x2,0x4,0x0,0x20,0x54,0x54
	.DB  0x54,0x78,0x7F,0x48,0x44,0x44,0x38,0x38
	.DB  0x44,0x44,0x44,0x20,0x38,0x44,0x44,0x48
	.DB  0x7F,0x38,0x54,0x54,0x54,0x18,0x8,0x7E
	.DB  0x9,0x1,0x2,0xC,0x52,0x52,0x52,0x3E
	.DB  0x7F,0x8,0x4,0x4,0x78,0x0,0x44,0x7D
	.DB  0x40,0x0,0x20,0x40,0x44,0x3D,0x0,0x7F
	.DB  0x10,0x28,0x44,0x0,0x0,0x41,0x7F,0x40
	.DB  0x0,0x7C,0x4,0x18,0x4,0x78,0x7C,0x8
	.DB  0x4,0x4,0x78,0x38,0x44,0x44,0x44,0x38
	.DB  0x7C,0x14,0x14,0x14,0x8,0x8,0x14,0x14
	.DB  0x18,0x7C,0x7C,0x8,0x4,0x4,0x8,0x8
	.DB  0x54,0x54,0x54,0x20,0x4,0x3F,0x44,0x40
	.DB  0x20,0x3C,0x40,0x40,0x20,0x7C,0x1C,0x20
	.DB  0x40,0x20,0x1C,0x3C,0x40,0x30,0x40,0x3C
	.DB  0x44,0x28,0x10,0x28,0x44,0xC,0x50,0x50
	.DB  0x50,0x3C,0x44,0x64,0x54,0x4C,0x44,0x0
	.DB  0x8,0x36,0x41,0x0,0x0,0x0,0x7F,0x0
	.DB  0x0,0x0,0x41,0x36,0x8,0x0,0x10,0x8
	.DB  0x8,0x10,0x8,0x78,0x46,0x41,0x46,0x78
	.DB  0x0,0x0,0x0,0x0,0x0,0x0,0x0,0x5F
	.DB  0x0,0x0,0x0,0x7,0x0,0x7,0x0,0x14
	.DB  0x7F,0x14,0x7F,0x14,0x24,0x2A,0x7F,0x2A
	.DB  0x12,0x23,0x13,0x8,0x64,0x62,0x36,0x49
	.DB  0x55,0x22,0x50,0x0,0x5,0x3,0x0,0x0
	.DB  0x0,0x1C,0x22,0x41,0x0,0x0,0x41,0x22
	.DB  0x1C,0x0,0x14,0x8,0x3E,0x8,0x14,0x8
	.DB  0x8,0x3E,0x8,0x8,0x0,0x50,0x30,0x0
	.DB  0x0,0x8,0x8,0x8,0x8,0x8,0x0,0x60
	.DB  0x60,0x0,0x0,0x20,0x10,0x8,0x4,0x2
	.DB  0x0,0x0,0x0,0x0,0x0,0x0,0x0,0x5F
	.DB  0x0,0x0,0x0,0x7,0x0,0x7,0x0,0x14
	.DB  0x7F,0x14,0x7F,0x14,0x24,0x2A,0x7F,0x2A
	.DB  0x12,0x23,0x13,0x8,0x64,0x62,0x36,0x49
	.DB  0x55,0x22,0x50,0x0,0x5,0x3,0x0,0x0
	.DB  0x0,0x1C,0x22,0x41,0x0,0x0,0x41,0x22
	.DB  0x1C,0x0,0x14,0x8,0x3E,0x8,0x14,0x8
	.DB  0x8,0x3E,0x8,0x8,0x0,0x50,0x30,0x0
	.DB  0x0,0x8,0x8,0x8,0x8,0x8,0x0,0x60
	.DB  0x60,0x0,0x0,0x20,0x10,0x8,0x4,0x2
	.DB  0x0,0x0,0x0,0x0,0x0,0x0,0x0,0x5F
	.DB  0x0,0x0,0x0,0x7,0x0,0x7,0x0,0x14
	.DB  0x7F,0x14,0x7F,0x14,0x24,0x2A,0x7F,0x2A
	.DB  0x12,0x23,0x13,0x8,0x64,0x62,0x36,0x49
	.DB  0x55,0x22,0x50,0x0,0x5,0x3,0x0,0x0
	.DB  0x0,0x1C,0x22,0x41,0x0,0x0,0x41,0x22
	.DB  0x1C,0x0,0x14,0x8,0x3E,0x8,0x14,0x8
	.DB  0x8,0x3E,0x8,0x8,0x0,0x50,0x30,0x0
	.DB  0x0,0x8,0x8,0x8,0x8,0x8,0x0,0x60
	.DB  0x60,0x0,0x0,0x20,0x10,0x8,0x4,0x2
	.DB  0x0,0x6,0x9,0x9,0x6,0x0,0x42,0x7F
	.DB  0x40,0x0,0x42,0x61,0x51,0x49,0x46,0x21
	.DB  0x41,0x45,0x4B,0x31,0x18,0x14,0x12,0x7F
	.DB  0x10,0x27,0x45,0x45,0x45,0x39,0x3C,0x4A
	.DB  0x49,0x49,0x30,0x1,0x71,0x9,0x5,0x3
	.DB  0x36,0x49,0x49,0x49,0x36,0x6,0x49,0x49
	.DB  0x29,0x1E,0x0,0x36,0x36,0x0,0x0,0x0
	.DB  0x56,0x36,0x0,0x0,0x8,0x14,0x22,0x41
	.DB  0x0,0x14,0x14,0x14,0x14,0x14,0x0,0x41
	.DB  0x22,0x14,0x8,0x2,0x1,0x51,0x9,0x6
	.DB  0x7E,0x11,0x11,0x11,0x7E,0x7F,0x49,0x49
	.DB  0x49,0x31,0x7F,0x49,0x49,0x49,0x36,0x7F
	.DB  0x1,0x1,0x1,0x3,0x60,0x3E,0x21,0x21
	.DB  0x7F,0x7F,0x49,0x49,0x49,0x41,0x77,0x8
	.DB  0x7F,0x8,0x77,0x22,0x41,0x49,0x49,0x36
	.DB  0x7F,0x10,0x8,0x4,0x7F,0x7F,0x10,0x9
	.DB  0x4,0x7F,0x7F,0x8,0x14,0x22,0x41,0x40
	.DB  0x3E,0x1,0x1,0x7F,0x7F,0x2,0xC,0x2
	.DB  0x7F,0x7F,0x8,0x8,0x8,0x7F,0x3E,0x41
	.DB  0x41,0x41,0x3E,0x7F,0x1,0x1,0x1,0x7F
	.DB  0x7F,0x9,0x9,0x9,0x6,0x3E,0x41,0x41
	.DB  0x41,0x22,0x1,0x1,0x7F,0x1,0x1,0x27
	.DB  0x48,0x48,0x48,0x3F,0x1E,0x21,0x7F,0x21
	.DB  0x1E,0x63,0x14,0x8,0x14,0x63,0x3F,0x20
	.DB  0x20,0x3F,0x60,0x7,0x8,0x8,0x8,0x7F
	.DB  0x7F,0x40,0x7F,0x40,0x7F,0x3F,0x20,0x3F
	.DB  0x20,0x7F,0x1,0x7F,0x48,0x48,0x30,0x7F
	.DB  0x48,0x30,0x0,0x7F,0x0,0x7F,0x48,0x48
	.DB  0x30,0x22,0x41,0x49,0x49,0x3E,0x7F,0x8
	.DB  0x3E,0x41,0x3E,0x46,0x29,0x19,0x9,0x7F
	.DB  0x20,0x54,0x54,0x54,0x78,0x3C,0x4A,0x4A
	.DB  0x4A,0x30,0x7C,0x54,0x54,0x28,0x0,0x7C
	.DB  0x4,0x4,0x4,0x4,0x60,0x38,0x24,0x24
	.DB  0x7C,0x38,0x54,0x54,0x54,0x18,0x6C,0x10
	.DB  0x7C,0x10,0x6C,0x0,0x44,0x54,0x54,0x28
	.DB  0x7C,0x20,0x10,0x8,0x7C,0x7C,0x21,0x12
	.DB  0x9,0x7C,0x7C,0x10,0x28,0x44,0x0,0x40
	.DB  0x38,0x4,0x4,0x7C,0x7C,0x8,0x10,0x8
	.DB  0x7C,0x7C,0x10,0x10,0x10,0x7C,0x38,0x44
	.DB  0x44,0x44,0x38,0x7C,0x4,0x4,0x4,0x7C
	.DB  0x7C,0x14,0x14,0x14,0x8,0x38,0x44,0x44
	.DB  0x44,0x0,0x4,0x4,0x7C,0x4,0x4,0xC
	.DB  0x50,0x50,0x50,0x3C,0x8,0x14,0x7C,0x14
	.DB  0x8,0x44,0x28,0x10,0x28,0x44,0x3C,0x20
	.DB  0x20,0x3C,0x60,0xC,0x10,0x10,0x10,0x7C
	.DB  0x7C,0x40,0x7C,0x40,0x7C,0x3C,0x20,0x3C
	.DB  0x20,0x7C,0x4,0x7C,0x50,0x50,0x20,0x7C
	.DB  0x50,0x20,0x0,0x7C,0x0,0x7C,0x50,0x50
	.DB  0x20,0x28,0x44,0x54,0x54,0x38,0x7C,0x10
	.DB  0x38,0x44,0x38,0x48,0x54,0x34,0x14,0x7C
_BigNum:
	.DB  0x0,0x0,0x0,0xC0,0xE0,0xF0,0xF0,0xF0
	.DB  0xF0,0xF0,0xF0,0xF0,0xF0,0xF0,0xF0,0xF0
	.DB  0xF0,0xF0,0xF0,0xE0,0xC0,0x0,0x0,0x0
	.DB  0x0,0x0,0x0,0xFF,0xFF,0xFF,0xFF,0x1
	.DB  0x0,0x0,0x0,0x0,0x0,0x0,0x0,0x0
	.DB  0x1,0xFF,0xFF,0xFF,0xFF,0x0,0x0,0x0
	.DB  0x0,0x0,0x0,0xFF,0xFF,0xFF,0xFF,0x80
	.DB  0x0,0x0,0x0,0x0,0x0,0x0,0x0,0x0
	.DB  0x80,0xFF,0xFF,0xFF,0xFF,0x0,0x0,0x0
	.DB  0x0,0x0,0x0,0x3,0x7,0xF,0xF,0xF
	.DB  0xF,0xF,0xF,0xF,0xF,0xF,0xF,0xF
	.DB  0xF,0xF,0xF,0x7,0x3,0x0,0x0,0x0
	.DB  0x0,0x0,0x0,0x0,0x0,0x0,0x0,0x0
	.DB  0x0,0x0,0x0,0x0,0x0,0x0,0xE0,0xF0
	.DB  0xF0,0xE0,0x0,0x0,0x0,0x0,0x0,0x0
	.DB  0x0,0x0,0x0,0x0,0x0,0x0,0x0,0x0
	.DB  0x0,0x0,0x0,0x0,0x0,0x0,0xFF,0xFF
	.DB  0xFF,0xFF,0x0,0x0,0x0,0x0,0x0,0x0
	.DB  0x0,0x0,0x0,0x0,0x0,0x0,0x0,0x0
	.DB  0x0,0x0,0x0,0x0,0x0,0x0,0xFF,0xFF
	.DB  0xFF,0xFF,0x0,0x0,0x0,0x0,0x0,0x0
	.DB  0x0,0x0,0x0,0x0,0x0,0x0,0x0,0x0
	.DB  0x0,0x0,0x0,0x0,0x0,0x0,0x3,0x7
	.DB  0x7,0x3,0x0,0x0,0x0,0x0,0x0,0x0
	.DB  0x0,0x0,0x0,0xE0,0xF0,0xF0,0xF0,0xF0
	.DB  0xF0,0xF0,0xF0,0xF0,0xF0,0xF0,0xF0,0xF0
	.DB  0xF0,0xF0,0xF0,0xE0,0x0,0x0,0x0,0x0
	.DB  0x0,0x0,0x0,0x81,0xC1,0xC0,0xC0,0xC0
	.DB  0xC0,0xC0,0xC0,0xC0,0xC0,0xC0,0xC0,0xE1
	.DB  0xFF,0xFF,0xFF,0xFF,0x0,0x0,0x0,0x0
	.DB  0x0,0x0,0x0,0xFF,0xFF,0xFF,0xFF,0x87
	.DB  0x3,0x3,0x3,0x3,0x3,0x3,0x3,0x3
	.DB  0x3,0x3,0x83,0x81,0x0,0x0,0x0,0x0
	.DB  0x0,0x0,0x0,0x7,0xF,0xF,0xF,0xF
	.DB  0xF,0xF,0xF,0xF,0xF,0xF,0xF,0xF
	.DB  0xF,0xF,0xF,0x7,0x0,0x0,0x0,0x0
	.DB  0x0,0x0,0x0,0xE0,0xF0,0xF0,0xF0,0xF0
	.DB  0xF0,0xF0,0xF0,0xF0,0xF0,0xF0,0xF0,0xF0
	.DB  0xF0,0xF0,0xF0,0xE0,0x0,0x0,0x0,0x0
	.DB  0x0,0x0,0x0,0x81,0xC1,0xC0,0xC0,0xC0
	.DB  0xC0,0xC0,0xC0,0xC0,0xC0,0xC0,0xC0,0xE1
	.DB  0xFF,0xFF,0xFF,0x7F,0x0,0x0,0x0,0x0
	.DB  0x0,0x0,0x0,0x81,0x83,0x3,0x3,0x3
	.DB  0x3,0x3,0x3,0x3,0x3,0x3,0x3,0x87
	.DB  0xFF,0xFF,0xFF,0xFE,0x0,0x0,0x0,0x0
	.DB  0x0,0x0,0x0,0x7,0xF,0xF,0xF,0xF
	.DB  0xF,0xF,0xF,0xF,0xF,0xF,0xF,0xF
	.DB  0xF,0xF,0xF,0x7,0x0,0x0,0x0,0x0
	.DB  0x0,0x0,0x0,0xE0,0xF0,0xF0,0xF0,0x30
	.DB  0x0,0x0,0x0,0x0,0x0,0x0,0x0,0x30
	.DB  0xF0,0xF0,0xF0,0xE0,0x0,0x0,0x0,0x0
	.DB  0x0,0x0,0x0,0xFF,0xFF,0xFF,0xFF,0xE0
	.DB  0xC0,0xC0,0xC0,0xC0,0xC0,0xC0,0xC0,0xE0
	.DB  0xFF,0xFF,0xFF,0xFF,0x0,0x0,0x0,0x0
	.DB  0x0,0x0,0x0,0x1,0x3,0x3,0x3,0x3
	.DB  0x3,0x3,0x3,0x3,0x3,0x3,0x3,0x7
	.DB  0xFF,0xFF,0xFF,0xFF,0x0,0x0,0x0,0x0
	.DB  0x0,0x0,0x0,0x0,0x0,0x0,0x0,0x0
	.DB  0x0,0x0,0x0,0x0,0x0,0x0,0x0,0xC
	.DB  0xF,0xF,0xF,0x7,0x0,0x0,0x0,0x0
	.DB  0x0,0x0,0x0,0xE0,0xF0,0xF0,0xF0,0xF0
	.DB  0xF0,0xF0,0xF0,0xF0,0xF0,0xF0,0xF0,0xF0
	.DB  0xF0,0xF0,0xF0,0xE0,0x0,0x0,0x0,0x0
	.DB  0x0,0x0,0x0,0xFF,0xFF,0xFF,0xFF,0xE1
	.DB  0xC0,0xC0,0xC0,0xC0,0xC0,0xC0,0xC0,0xC0
	.DB  0xC0,0xC0,0xC1,0x81,0x0,0x0,0x0,0x0
	.DB  0x0,0x0,0x0,0x81,0x83,0x3,0x3,0x3
	.DB  0x3,0x3,0x3,0x3,0x3,0x3,0x3,0x87
	.DB  0xFF,0xFF,0xFF,0xFF,0x0,0x0,0x0,0x0
	.DB  0x0,0x0,0x0,0x7,0xF,0xF,0xF,0xF
	.DB  0xF,0xF,0xF,0xF,0xF,0xF,0xF,0xF
	.DB  0xF,0xF,0xF,0x7,0x0,0x0,0x0,0x0
	.DB  0x0,0x0,0x0,0xE0,0xF0,0xF0,0xF0,0xF0
	.DB  0xF0,0xF0,0xF0,0xF0,0xF0,0xF0,0xF0,0xF0
	.DB  0xF0,0xF0,0xF0,0xE0,0x0,0x0,0x0,0x0
	.DB  0x0,0x0,0x0,0xFF,0xFF,0xFF,0xFF,0xE1
	.DB  0xC0,0xC0,0xC0,0xC0,0xC0,0xC0,0xC0,0xC0
	.DB  0xC0,0xC0,0xC1,0x81,0x0,0x0,0x0,0x0
	.DB  0x0,0x0,0x0,0xFF,0xFF,0xFF,0xFF,0x87
	.DB  0x3,0x3,0x3,0x3,0x3,0x3,0x3,0x87
	.DB  0xFF,0xFF,0xFF,0xFF,0x0,0x0,0x0,0x0
	.DB  0x0,0x0,0x0,0x7,0xF,0xF,0xF,0xF
	.DB  0xF,0xF,0xF,0xF,0xF,0xF,0xF,0xF
	.DB  0xF,0xF,0xF,0x7,0x0,0x0,0x0,0x0
	.DB  0x0,0x0,0x0,0xE0,0xF0,0xF0,0xF0,0xF0
	.DB  0xF0,0xF0,0xF0,0xF0,0xF0,0xF0,0xF0,0xF0
	.DB  0xF0,0xF0,0xF0,0xE0,0x0,0x0,0x0,0x0
	.DB  0x0,0x0,0x0,0x1,0x1,0x0,0x0,0x0
	.DB  0x0,0x0,0x0,0x0,0x0,0x0,0x0,0x1
	.DB  0xFF,0xFF,0xFF,0xFF,0x0,0x0,0x0,0x0
	.DB  0x0,0x0,0x0,0x0,0x0,0x0,0x0,0x0
	.DB  0x0,0x0,0x0,0x0,0x0,0x0,0x0,0x0
	.DB  0xFF,0xFF,0xFF,0xFF,0x0,0x0,0x0,0x0
	.DB  0x0,0x0,0x0,0x0,0x0,0x0,0x0,0x0
	.DB  0x0,0x0,0x0,0x0,0x0,0x0,0x0,0xC
	.DB  0xF,0xF,0xF,0x7,0x0,0x0,0x0,0x0
	.DB  0x0,0x0,0x0,0xE0,0xF0,0xF0,0xF0,0xF0
	.DB  0xF0,0xF0,0xF0,0xF0,0xF0,0xF0,0xF0,0xF0
	.DB  0xF0,0xF0,0xF0,0xE0,0x0,0x0,0x0,0x0
	.DB  0x0,0x0,0x0,0x7F,0xFF,0xFF,0xFF,0xE1
	.DB  0xC0,0xC0,0xC0,0xC0,0xC0,0xC0,0xC0,0xE1
	.DB  0xFF,0xFF,0xFF,0x3F,0x0,0x0,0x0,0x0
	.DB  0x0,0x0,0x0,0xFE,0xFF,0xFF,0xFF,0x87
	.DB  0x3,0x3,0x3,0x3,0x3,0x3,0x3,0x87
	.DB  0xFF,0xFF,0xFF,0xFE,0x0,0x0,0x0,0x0
	.DB  0x0,0x0,0x0,0x7,0xF,0xF,0xF,0xF
	.DB  0xF,0xF,0xF,0xF,0xF,0xF,0xF,0xF
	.DB  0xF,0xF,0xF,0x7,0x0,0x0,0x0,0x0
	.DB  0x0,0x0,0x0,0xE0,0xF0,0xF0,0xF0,0xF0
	.DB  0xF0,0xF0,0xF0,0xF0,0xF0,0xF0,0xF0,0xF0
	.DB  0xF0,0xF0,0xF0,0xE0,0x0,0x0,0x0,0x0
	.DB  0x0,0x0,0x0,0xFF,0xFF,0xFF,0xFF,0xE1
	.DB  0xC0,0xC0,0xC0,0xC0,0xC0,0xC0,0xC0,0xE1
	.DB  0xFF,0xFF,0xFF,0xFF,0x0,0x0,0x0,0x0
	.DB  0x0,0x0,0x0,0x1,0x3,0x3,0x3,0x3
	.DB  0x3,0x3,0x3,0x3,0x3,0x3,0x3,0x7
	.DB  0xFF,0xFF,0xFF,0xFF,0x0,0x0,0x0,0x0
	.DB  0x0,0x0,0x0,0x0,0x0,0x0,0x0,0x0
	.DB  0x0,0x0,0x0,0x0,0x0,0x0,0x0,0xC
	.DB  0xF,0xF,0xF,0x7,0x0,0x0,0x0,0x0
	.DB  0x0,0x0,0x0,0x0,0x0,0x0,0x0,0x0
	.DB  0x0,0x0,0x0,0x0,0x0,0x0,0x0,0x0
	.DB  0x0,0x0,0x0,0x0,0x0,0x0,0x0,0x0
	.DB  0x0,0x0,0x0,0x0,0x0,0x0,0x0,0x0
	.DB  0x0,0x3C,0x7E,0x7E,0x7E,0x7E,0x3C,0x0
	.DB  0x0,0x0,0x0,0x0,0x0,0x0,0x0,0x0
	.DB  0x0,0x0,0x0,0x0,0x0,0x0,0x0,0x0
	.DB  0x0,0xF0,0xF8,0xF8,0xF8,0xF8,0xF0,0x0
	.DB  0x0,0x0,0x0,0x0,0x0,0x0,0x0,0x0
	.DB  0x0,0x0,0x0,0x0,0x0,0x0,0x0,0x0
	.DB  0x0,0x0,0x1,0x1,0x1,0x1,0x0,0x0
	.DB  0x0,0x0,0x0,0x0,0x0,0x0,0x0,0x0
	.DB  0x0,0x0,0x0,0x0,0x0,0x0,0x0,0x0
	.DB  0x0,0x0,0x0,0x0,0x0,0x0,0x0,0x0
	.DB  0x0,0x0,0x0,0x0,0x0,0x0,0x0,0x0
	.DB  0x0,0x0,0x0,0x0,0x0,0x0,0x0,0x0
	.DB  0x0,0x0,0x0,0x0,0x0,0x0,0x0,0x0
	.DB  0x0,0x0,0x0,0x0,0x0,0x0,0x0,0x0
	.DB  0x0,0x0,0x0,0x0,0x0,0x0,0x0,0x0
	.DB  0x0,0xC0,0xC0,0xC0,0xC0,0xC0,0xC0,0x0
	.DB  0x0,0x0,0x0,0x0,0x0,0x0,0x0,0x0
	.DB  0x0,0x0,0x0,0x0,0x0,0x0,0x0,0x0
	.DB  0x0,0xF,0xF,0xF,0xF,0xF,0xF,0x0
	.DB  0x0,0x0,0x0,0x0,0x0,0x0,0x0,0x0
	.DB  0x0,0x0,0x0,0x0,0x0,0x0,0x0,0x0
	.DB  0x0,0x0,0x0,0x0,0x0,0x0,0x0,0x0
	.DB  0x0,0x0,0x0,0x0,0x0,0x0,0x0,0x0
	.DB  0x0,0x0,0x0,0x0,0x0,0x0,0x0,0x0
	.DB  0x0,0x0,0x0,0x0,0x0,0x0,0x0,0x0
	.DB  0x0,0x0,0x0,0x0,0x0,0x0,0x0,0x0
	.DB  0x0,0x0,0x0,0x0,0x0,0x0,0x0,0x0
	.DB  0x0,0x0,0x0,0x0,0x0,0x0,0x0,0x0
	.DB  0x0,0x0,0x0,0x0,0x0,0x0,0x0,0x0
	.DB  0x0,0x0,0x0,0x0,0x0,0x0,0x0,0x0
	.DB  0x0,0x0,0x0,0x0,0x0,0x0,0x0,0x0
	.DB  0x0,0x0,0x0,0x0,0x0,0x0,0x0,0x0
	.DB  0x0,0x0,0x0,0x0,0x0,0x0,0x0,0x0
	.DB  0x0,0x1F,0x11,0x11,0x11,0x1F,0x0,0x0
	.DB  0x0,0x0,0x0,0x0,0x0,0x0,0x0,0x0
	.DB  0x0,0x0,0x0,0x0,0x0,0x0,0x0,0x0
	.DB  0x0,0x0,0x0,0x0,0x0,0x0,0x0,0x0
	.DB  0x0,0x0,0x0,0x0,0x0,0x0,0x0,0x0
	.DB  0x0,0x0,0x0,0x0,0x0,0x0,0x0,0x0
	.DB  0x0,0x0,0x0,0x0,0x0,0x0,0x0,0x0
	.DB  0x0,0x0,0x0,0x0,0x0,0x0,0x0,0x0
	.DB  0x0,0x0,0x0,0x0,0x0,0x0,0x0,0x0
	.DB  0x0,0x0,0x0,0x0,0x0,0x0,0x0,0x0
	.DB  0x0,0x0,0x0,0x0,0x0,0x0,0x0,0x0
	.DB  0x0,0x0,0x0,0x0,0x0,0x0,0x0,0x0
	.DB  0x0,0x0,0x0,0x0,0x0,0x0,0x0,0x0
	.DB  0x0,0x0,0x0,0x0,0x0,0x0,0x0,0x0
	.DB  0x0,0x0,0x0,0x0,0x0,0x0,0x0,0x0
	.DB  0x0,0x0,0x0,0x0,0x0,0x0,0x0,0x0
	.DB  0x0,0x0,0x0,0x0,0x0,0x0,0x0,0x0
	.DB  0x0,0x0,0x0,0x0,0x0,0x0,0x0,0x0
	.DB  0x0,0x0,0x0,0x0,0x0,0x0,0x0,0x0
	.DB  0x0,0x0,0x0,0x0,0x0,0x0,0x0,0x0
	.DB  0x0,0x0,0x0,0x0,0x0,0x0,0x0,0x0
	.DB  0x0,0x0,0x0,0x0,0x0,0x0,0x0,0x0
	.DB  0x0,0x0,0x0,0x0,0x0,0x0,0x0,0x0
_dog0:
	.DB  0x0,0x0,0x0,0x0,0x0,0x0,0x0,0x0
	.DB  0x0,0x0,0x0,0x0,0x0,0x0,0x0,0x0
	.DB  0x0,0x0,0x0,0x0,0x0,0x0,0x0,0x0
	.DB  0x0,0x0,0x0,0x0,0x0,0x0,0x0,0x0
	.DB  0x0,0x0,0x0,0x0,0x0,0x0,0x0,0x0
	.DB  0x0,0x0,0x0,0x0,0x0,0x0,0x0,0x0
	.DB  0x0,0x80,0x80,0x80,0x80,0x80,0x80,0x0
	.DB  0x0,0x0,0x0,0x0,0x0,0x0,0x0,0x0
	.DB  0x0,0x0,0x0,0x0,0x0,0x0,0x0,0x0
	.DB  0x0,0x0,0x0,0x0,0x0,0x0,0x0,0x0
	.DB  0x0,0x0,0x0,0x0,0x0,0x0,0x0,0x0
	.DB  0x0,0x0,0x0,0x0,0x0,0x0,0x0,0x0
	.DB  0x0,0x0,0x0,0x0,0x0,0x0,0x0,0x0
	.DB  0x0,0x0,0x0,0x0,0x0,0x0,0x0,0x0
	.DB  0x0,0x0,0x0,0x0,0x0,0x0,0x0,0x0
	.DB  0x0,0x0,0x0,0x0,0x0,0x0,0x0,0x0
	.DB  0x0,0x0,0x0,0x2,0x2,0x6,0xE,0xE
	.DB  0x1E,0x3C,0x7C,0xF8,0xF0,0xE0,0xE0,0xC0
	.DB  0x80,0x0,0x0,0x0,0x0,0x0,0x0,0x0
	.DB  0x0,0x0,0x0,0x0,0x0,0x0,0x0,0x0
	.DB  0x0,0x0,0x0,0xC0,0xC0,0xE0,0xF0,0xF8
	.DB  0xF8,0xFC,0xFE,0xFE,0xFE,0xFF,0xFF,0xFF
	.DB  0xFF,0xFF,0xFF,0xFF,0xFF,0xFF,0xFF,0xFF
	.DB  0xFF,0xFF,0xFF,0xFE,0xFE,0xFE,0xFC,0xFC
	.DB  0xFC,0xF8,0xF0,0xF0,0xE0,0xE0,0xC0,0xC0
	.DB  0xC0,0x80,0x80,0x80,0x80,0x80,0x0,0x0
	.DB  0x0,0x0,0x0,0x0,0x0,0x0,0x60,0xF0
	.DB  0xF0,0xF0,0xF0,0xF0,0xF0,0xF0,0xE0,0xE0
	.DB  0xE0,0xE0,0xE0,0xE0,0xE0,0xF0,0xF0,0xF0
	.DB  0xF0,0xF0,0xF0,0xE0,0xC0,0x80,0x0,0x0
	.DB  0x0,0x0,0x0,0x0,0x0,0x0,0x0,0x0
	.DB  0x0,0x0,0x0,0x0,0x0,0x0,0x0,0x0
	.DB  0x0,0x0,0x0,0x0,0x0,0x0,0x0,0x0
	.DB  0x0,0x0,0x0,0x1,0x3,0x7,0xF,0xF
	.DB  0x1F,0x3F,0x7E,0x7E,0xFC,0xFC,0xF8,0xF8
	.DB  0xF0,0xF0,0xE0,0xE0,0xE0,0xE0,0xF0,0xF8
	.DB  0xFC,0xFE,0xFF,0xFF,0xFF,0xFF,0xFF,0xFF
	.DB  0xFF,0xFF,0xFF,0xFF,0xFF,0xFF,0xFF,0xFF
	.DB  0xFF,0xFF,0xFF,0xFF,0xFF,0xFF,0xFF,0xFF
	.DB  0xFF,0xFF,0xFF,0xFF,0xFF,0xFF,0xFF,0xFF
	.DB  0xFF,0xFF,0xFF,0xFF,0xFF,0xFF,0xFF,0xFF
	.DB  0xFF,0xFF,0xFF,0xFF,0xFF,0xFF,0xFF,0xFF
	.DB  0xFF,0xFE,0xFE,0xFC,0xFC,0xFC,0xF8,0xF9
	.DB  0xFF,0xFF,0xFF,0xFF,0xFF,0xFF,0xFF,0xFF
	.DB  0xFF,0xFF,0xFF,0xFF,0xFF,0xFF,0xFF,0xFF
	.DB  0xFF,0xFF,0xFF,0xFF,0xFF,0xFF,0xFF,0xFF
	.DB  0xFE,0xFC,0xF8,0xF8,0xF8,0xF0,0xF0,0x0
	.DB  0x0,0x0,0x0,0x0,0x0,0x0,0x0,0x0
	.DB  0x0,0x0,0x0,0x0,0x0,0x0,0x0,0x0
	.DB  0x0,0x0,0x0,0x0,0x0,0x0,0x0,0x0
	.DB  0x0,0x0,0x0,0x0,0x0,0x0,0x1,0x1
	.DB  0x3,0x3,0x7,0x7,0x7,0x3,0x3,0x3
	.DB  0x1,0x1,0x1,0x1,0x3,0x7,0x1F,0x3F
	.DB  0x7F,0xFF,0xFF,0xFF,0xFF,0xFF,0xFF,0xFF
	.DB  0xFF,0xFF,0xFF,0xFF,0xFF,0xFF,0xFF,0xFF
	.DB  0xFF,0xFF,0xFF,0xFF,0xFF,0xFF,0xFF,0xFF
	.DB  0xFF,0xFF,0xFF,0xFF,0xFF,0xFF,0xFF,0xFF
	.DB  0xFF,0xFF,0xFF,0xFF,0xFF,0xFF,0xFF,0xFF
	.DB  0xFF,0xFF,0xFF,0xFF,0xFF,0xFF,0xFF,0xFF
	.DB  0xFF,0xFF,0xFF,0xFF,0xFF,0xFF,0x7F,0x7F
	.DB  0x3F,0x1F,0x1F,0xF,0xF,0xF,0xF,0xF
	.DB  0xF,0xF,0xF,0xF,0xF,0xF,0xF,0xF
	.DB  0xF,0xF,0xF,0x7,0x3,0x1,0x0,0x0
	.DB  0x0,0x0,0x0,0x0,0x0,0x0,0x0,0x0
	.DB  0x0,0x0,0x0,0x0,0x0,0x0,0x0,0x0
	.DB  0x0,0x0,0x0,0x0,0x0,0x0,0x0,0x0
	.DB  0x0,0x0,0x0,0x0,0x0,0x0,0x0,0x0
	.DB  0x0,0x0,0x0,0x0,0x0,0x0,0x0,0x0
	.DB  0x0,0x0,0x1F,0xFF,0xFF,0xFE,0xFE,0xBE
	.DB  0x3E,0x3F,0x3F,0x3F,0x3F,0x3F,0x7F,0xFF
	.DB  0xFF,0xFF,0xFF,0xFF,0xBF,0x1F,0x1F,0x1F
	.DB  0x1F,0x1F,0xF,0x3,0x3,0x3,0x3,0x7
	.DB  0x7,0xFF,0xFF,0xFF,0xFF,0xFF,0xFF,0xFF
	.DB  0xFF,0xFF,0xFF,0xFF,0xFF,0xFF,0xFF,0xFF
	.DB  0x7F,0x7F,0x3F,0x3F,0x1F,0x1F,0xF,0xF
	.DB  0x7,0x3,0x3,0x1,0x0,0x0,0x0,0x0
	.DB  0x0,0x0,0x0,0x0,0x0,0x0,0x0,0x0
	.DB  0x0,0x0,0x0,0x0,0x0,0x0,0x0,0x0
	.DB  0x0,0x0,0x0,0x0,0x0,0x0,0x0,0x0
	.DB  0x0,0x0,0x0,0x0,0x0,0x0,0x0,0x0
	.DB  0x0,0x0,0x0,0x0,0x0,0x0,0x0,0x0
	.DB  0x0,0x0,0x0,0x0,0x0,0x0,0x0,0x0
	.DB  0x0,0x0,0x0,0x0,0x0,0x0,0x0,0x0
	.DB  0x0,0x0,0x0,0x0,0x0,0x0,0x0,0x0
	.DB  0x0,0x0,0x0,0x0,0x1F,0xFF,0xFF,0xFF
	.DB  0xF8,0xC0,0x0,0x0,0x0,0x0,0x0,0x0
	.DB  0x3,0x7,0xF,0x3F,0xFF,0xFF,0xFE,0xFC
	.DB  0xF8,0xE0,0x0,0x0,0x0,0x0,0x0,0x0
	.DB  0xF0,0xFF,0xFF,0xFF,0xFF,0xFF,0xFF,0xFF
	.DB  0xFF,0x7F,0x3F,0x1F,0xF,0x7,0x1,0x0
	.DB  0x0,0x0,0x0,0x0,0x0,0x0,0x0,0x0
	.DB  0x0,0x0,0x0,0x0,0x0,0x0,0x0,0x0
	.DB  0x0,0x0,0x0,0x0,0x0,0x0,0x0,0x0
	.DB  0x0,0x0,0x0,0x0,0x0,0x0,0x0,0x0
	.DB  0x0,0x0,0x0,0x0,0x0,0x0,0x0,0x0
	.DB  0x0,0x0,0x0,0x0,0x0,0x0,0x0,0x0
	.DB  0x0,0x0,0x0,0x0,0x0,0x0,0x0,0x0
	.DB  0x0,0x0,0x0,0x0,0x0,0x0,0x0,0x0
	.DB  0x0,0x0,0x0,0x0,0x0,0x0,0x0,0x0
	.DB  0x0,0x0,0x0,0x0,0x0,0x0,0x0,0x0
	.DB  0x0,0x0,0x0,0x0,0x7,0x3F,0x3F,0x1F
	.DB  0x1F,0xF,0x0,0x0,0x0,0x0,0x0,0x0
	.DB  0x0,0x0,0x0,0x0,0x7,0xF,0xE7,0xF7
	.DB  0xF3,0xF1,0xF0,0xF0,0xF0,0xF8,0xF8,0xFE
	.DB  0xFF,0x7F,0x3F,0x1F,0xF,0x3,0x1,0x1
	.DB  0x0,0x0,0x0,0x0,0x0,0x0,0x0,0x0
	.DB  0x0,0x0,0x0,0x0,0x0,0x0,0x0,0x0
	.DB  0x0,0x0,0x0,0x0,0x0,0x0,0x0,0x0
	.DB  0x0,0x0,0x0,0x0,0x0,0x0,0x0,0x0
	.DB  0x0,0x0,0x0,0x0,0x0,0x0,0x0,0x0
	.DB  0x0,0x0,0x0,0x0,0x0,0x0,0x0,0x0
	.DB  0x0,0x0,0x0,0x0,0x0,0x0,0x0,0x0
	.DB  0x0,0x0,0x0,0x0,0x0,0x0,0x0,0x0
	.DB  0x0,0x0,0x0,0x0,0x0,0x0,0x0,0x0
	.DB  0x0,0x0,0x0,0x0,0x0,0x0,0x0,0x0
	.DB  0x0,0x0,0x0,0x0,0x0,0x0,0x0,0x0
	.DB  0x0,0x0,0x0,0x0,0x0,0x0,0x0,0x0
	.DB  0x0,0x0,0x0,0x0,0x0,0x0,0x0,0x0
	.DB  0x0,0x0,0x0,0x0,0x0,0x0,0x0,0x1
	.DB  0x3,0x3,0xF,0x7F,0xFF,0xFF,0xFF,0xFF
	.DB  0xF8,0xF0,0xF0,0x0,0x0,0x0,0x0,0x0
	.DB  0x0,0x0,0x0,0x0,0x0,0x0,0x0,0x0
	.DB  0x0,0x0,0x0,0x0,0x0,0x0,0x0,0x0
	.DB  0x0,0x0,0x0,0x0,0x0,0x0,0x0,0x0
	.DB  0x0,0x0,0x0,0x0,0x0,0x0,0x0,0x0
	.DB  0x0,0x0,0x0,0x0,0x0,0x0,0x0,0x0
	.DB  0x0,0x0,0x0,0x0,0x0,0x0,0x0,0x0
	.DB  0x0,0x0,0x0,0x0,0x0,0x0,0x0,0x0
_dog1:
	.DB  0x0,0x0,0x0,0x0,0x0,0x0,0x0,0x0
	.DB  0x0,0x0,0x0,0x0,0x0,0x0,0x0,0x0
	.DB  0x0,0x0,0x0,0x0,0x0,0x0,0x0,0x0
	.DB  0x0,0x0,0x0,0x0,0x0,0x0,0x0,0x0
	.DB  0x0,0x0,0x0,0x0,0x0,0x0,0x0,0x0
	.DB  0x0,0x0,0x0,0x0,0x0,0x0,0x0,0x0
	.DB  0x0,0x0,0x0,0x0,0x0,0x0,0x0,0x0
	.DB  0x0,0x0,0x0,0x0,0x0,0x0,0x0,0x0
	.DB  0x0,0x0,0x0,0x0,0x0,0x0,0x0,0x0
	.DB  0x0,0x0,0x0,0x0,0x0,0x0,0x0,0x0
	.DB  0x0,0x0,0x0,0x0,0x0,0x0,0x0,0x0
	.DB  0x0,0x0,0x0,0x0,0x0,0x0,0x0,0x0
	.DB  0x0,0x0,0x0,0x0,0x0,0x0,0x0,0x0
	.DB  0x0,0x0,0x0,0x0,0x0,0x0,0x0,0x0
	.DB  0x0,0x0,0x0,0x0,0x0,0x0,0x0,0x0
	.DB  0x0,0x0,0x0,0x0,0x0,0x0,0x0,0x0
	.DB  0x0,0x0,0x0,0x0,0x0,0x0,0x0,0x0
	.DB  0x0,0x0,0x0,0x0,0x0,0x0,0x0,0x0
	.DB  0x0,0x0,0x0,0x0,0x0,0x0,0x0,0x0
	.DB  0x0,0x0,0x0,0x0,0x0,0x0,0x0,0x0
	.DB  0x0,0x0,0x0,0x0,0x80,0xC0,0xC0,0xE0
	.DB  0xF0,0xF0,0xF0,0xF8,0xF8,0xF8,0xF8,0xF8
	.DB  0xF8,0xF8,0xF8,0xF8,0xF0,0xF0,0xF0,0xF0
	.DB  0xF0,0xE0,0xC0,0xC0,0x80,0x80,0x0,0x0
	.DB  0x0,0x0,0x0,0x0,0x0,0x0,0x0,0x0
	.DB  0x0,0x0,0x0,0x0,0x0,0x0,0x0,0x0
	.DB  0x0,0x0,0x0,0x0,0x0,0x0,0x0,0x0
	.DB  0x0,0x0,0x0,0x0,0x0,0x0,0x80,0x80
	.DB  0x80,0xC0,0xC0,0xE0,0xE0,0xF0,0xE0,0xE0
	.DB  0xC0,0xC0,0x80,0x80,0x0,0x0,0x0,0x0
	.DB  0x0,0x0,0x0,0x0,0x0,0x0,0x0,0x0
	.DB  0x0,0x0,0x0,0x0,0x0,0x0,0x0,0x0
	.DB  0x0,0x0,0x0,0x0,0x0,0x0,0x0,0x0
	.DB  0x0,0x0,0x0,0x0,0x0,0x0,0x0,0x0
	.DB  0x0,0x0,0x0,0x0,0x0,0x0,0x0,0x0
	.DB  0x0,0x0,0x0,0x0,0x0,0x0,0x0,0x80
	.DB  0xE0,0xF8,0xFC,0xFF,0xFF,0xFF,0xFF,0xFF
	.DB  0xFF,0xFF,0xFF,0xFF,0xFF,0xFF,0xFF,0xFF
	.DB  0xFF,0xFF,0xFF,0xFF,0xFF,0xFF,0xFF,0xFF
	.DB  0xFF,0xFF,0xFF,0xFF,0xFF,0xFF,0xFF,0xFE
	.DB  0xFE,0xFC,0xFC,0xF8,0xF8,0xF8,0xF0,0xF8
	.DB  0xF8,0xF8,0xF8,0xF8,0xF8,0xF8,0xF0,0xF0
	.DB  0xF0,0xF0,0xE0,0xFC,0xFC,0xFC,0xFC,0xFC
	.DB  0xFC,0xFE,0xFE,0xFF,0xFF,0xFF,0xFF,0xFF
	.DB  0xFF,0xFF,0xFF,0xFF,0xFF,0xFF,0xFF,0xFF
	.DB  0xFF,0xFF,0xFF,0xFF,0xFF,0xFF,0xFE,0xFE
	.DB  0xFE,0xFE,0xFE,0xFE,0x7E,0x1E,0x0,0x0
	.DB  0x0,0x0,0x0,0x0,0x0,0x0,0x0,0x0
	.DB  0x0,0x0,0x0,0x0,0x0,0x0,0x0,0x0
	.DB  0x0,0x0,0x0,0x0,0x0,0x0,0x0,0x0
	.DB  0x0,0x0,0x0,0x80,0x80,0xC0,0xC0,0xE0
	.DB  0xE0,0xF0,0xF0,0xF8,0xFC,0xFE,0xFF,0x7F
	.DB  0x3F,0x7F,0x7F,0xFF,0xFF,0xFF,0xFF,0xFF
	.DB  0xFF,0xFF,0xFF,0xFF,0xFF,0xFF,0xFF,0xFF
	.DB  0xFF,0xFF,0xFF,0xFF,0xFF,0xFF,0xFF,0xFF
	.DB  0xFF,0xFF,0xFF,0xFF,0xFF,0xFF,0xFF,0xFF
	.DB  0xFF,0xFF,0xFF,0xFF,0xFF,0xFF,0xFF,0xFF
	.DB  0xFF,0xFF,0xFF,0xFF,0xFF,0xFF,0xFF,0xFF
	.DB  0xFF,0xFF,0xFF,0xFF,0xFF,0xFF,0xFF,0xFF
	.DB  0xFF,0xFF,0xFF,0xFF,0xFF,0xFF,0x7F,0x3F
	.DB  0x1F,0xF,0xF,0xF,0xF,0xF,0xF,0xF
	.DB  0xF,0xF,0xF,0xF,0xF,0x7,0x7,0x7
	.DB  0x7,0x7,0x3,0x1,0x0,0x0,0x0,0x0
	.DB  0x0,0x0,0x0,0x0,0x0,0x0,0x0,0x0
	.DB  0x0,0x0,0x0,0x0,0x0,0x2,0x2,0x6
	.DB  0x6,0x6,0x6,0x6,0x7,0x7,0xF,0xF
	.DB  0xF,0xF,0xF,0xF,0xF,0x7,0x7,0x7
	.DB  0x7,0x3,0x3,0x3,0x1,0x0,0x0,0x0
	.DB  0x0,0x0,0x0,0xC0,0xE1,0xF3,0xF7,0xFF
	.DB  0xFF,0xFF,0xFF,0xFF,0xFF,0xFF,0xFF,0x3F
	.DB  0x3F,0x3F,0xFF,0xFF,0xFF,0xFF,0xFF,0xFF
	.DB  0xFF,0xF,0x1F,0x3F,0x3F,0x7F,0xFF,0xFF
	.DB  0xFF,0xFF,0xFF,0xFF,0xFF,0xFF,0xFF,0xFF
	.DB  0xFF,0xFF,0xFF,0xFF,0xFF,0xFF,0xFF,0xFF
	.DB  0xFF,0xFF,0xFF,0xFF,0xFF,0x7F,0x3F,0x1F
	.DB  0xF,0x7,0x3,0x3,0x1,0x0,0x0,0x0
	.DB  0x0,0x0,0x0,0x0,0x0,0x0,0x0,0x0
	.DB  0x0,0x0,0x0,0x0,0x0,0x0,0x0,0x0
	.DB  0x0,0x0,0x0,0x0,0x0,0x0,0x0,0x0
	.DB  0x0,0x0,0x0,0x0,0x0,0x0,0x0,0x0
	.DB  0x0,0x0,0x0,0x0,0x0,0x0,0x0,0x0
	.DB  0x0,0x0,0x0,0x0,0x0,0x0,0x0,0x0
	.DB  0x0,0x0,0x0,0x0,0x0,0x0,0x0,0x0
	.DB  0x0,0x0,0x0,0x0,0x0,0x0,0x0,0x0
	.DB  0x0,0x0,0x0,0x1,0x1,0x3,0x7,0x7
	.DB  0x7,0xF,0xF,0x1F,0x1F,0x1F,0x3F,0x3F
	.DB  0x7E,0x7E,0x7C,0xFF,0xFF,0xFF,0xFF,0xFF
	.DB  0xFF,0xC0,0xC0,0xC0,0xE0,0xF8,0xFF,0xFF
	.DB  0xFF,0x7F,0x3F,0x1F,0xF,0x7,0xF,0x1F
	.DB  0x3F,0xFF,0xFF,0xFF,0xFF,0xFF,0xFF,0xFB
	.DB  0xE3,0x81,0x1,0x1,0x0,0x0,0x0,0x0
	.DB  0x0,0x0,0x0,0x0,0x0,0x0,0x0,0x0
	.DB  0x0,0x0,0x0,0x0,0x0,0x0,0x0,0x0
	.DB  0x0,0x0,0x0,0x0,0x0,0x0,0x0,0x0
	.DB  0x0,0x0,0x0,0x0,0x0,0x0,0x0,0x0
	.DB  0x0,0x0,0x0,0x0,0x0,0x0,0x0,0x0
	.DB  0x0,0x0,0x0,0x0,0x0,0x0,0x0,0x0
	.DB  0x0,0x0,0x0,0x0,0x0,0x0,0x0,0x0
	.DB  0x0,0x0,0x0,0x0,0x0,0x0,0x0,0x0
	.DB  0x0,0x0,0x0,0x0,0x0,0x0,0x0,0x0
	.DB  0x0,0x0,0x0,0x0,0x0,0x0,0x0,0x0
	.DB  0x0,0x0,0x0,0x0,0xF0,0xF0,0xF0,0xF0
	.DB  0xF0,0xF0,0xF0,0xF0,0xF0,0xF9,0xF9,0xFB
	.DB  0xFF,0x7F,0x7F,0x3F,0x3F,0x3F,0x3F,0x3F
	.DB  0x7E,0x7C,0x7C,0xFC,0xFC,0xF8,0xF0,0xE0
	.DB  0x80,0x80,0xC1,0xC3,0xE7,0xFF,0xFF,0xFF
	.DB  0xFF,0xFF,0x38,0x0,0x0,0x0,0x0,0x0
	.DB  0x0,0x0,0x0,0x0,0x0,0x0,0x0,0x0
	.DB  0x0,0x0,0x0,0x0,0x0,0x0,0x0,0x0
	.DB  0x0,0x0,0x0,0x0,0x0,0x0,0x0,0x0
	.DB  0x0,0x0,0x0,0x0,0x0,0x0,0x0,0x0
	.DB  0x0,0x0,0x0,0x0,0x0,0x0,0x0,0x0
	.DB  0x0,0x0,0x0,0x0,0x0,0x0,0x0,0x0
	.DB  0x0,0x0,0x0,0x0,0x0,0x0,0x0,0x0
	.DB  0x0,0x0,0x0,0x0,0x0,0x0,0x0,0x0
	.DB  0x0,0x0,0x0,0x0,0x0,0x0,0x0,0x0
	.DB  0x0,0x0,0x0,0x0,0x0,0x0,0x0,0x0
	.DB  0x0,0x0,0x0,0x0,0x0,0x0,0x1,0x1
	.DB  0x1,0x1,0x1,0x1,0x1,0x0,0x0,0x0
	.DB  0x0,0x0,0x0,0x0,0x0,0x0,0x0,0x0
	.DB  0x0,0x0,0x0,0x0,0x7,0x7,0xF,0xF
	.DB  0xF,0xF,0xF,0xF,0xF,0x7,0x7,0x7
	.DB  0x3,0x1,0x0,0x0,0x0,0x0,0x0,0x0
	.DB  0x0,0x0,0x0,0x0,0x0,0x0,0x0,0x0
	.DB  0x0,0x0,0x0,0x0,0x0,0x0,0x0,0x0
	.DB  0x0,0x0,0x0,0x0,0x0,0x0,0x0,0x0
	.DB  0x0,0x0,0x0,0x0,0x0,0x0,0x0,0x0
	.DB  0x0,0x0,0x0,0x0,0x0,0x0,0x0,0x0
_dog2:
	.DB  0x0,0x0,0x0,0x0,0x0,0x0,0x0,0x0
	.DB  0x0,0x0,0x0,0x0,0x0,0x0,0x0,0x0
	.DB  0x0,0x0,0x0,0x0,0x0,0x0,0x0,0x0
	.DB  0x0,0x0,0x0,0x0,0x0,0x0,0x0,0x0
	.DB  0x0,0x0,0x0,0x0,0x0,0x0,0x0,0x0
	.DB  0x0,0x0,0x0,0x0,0x0,0x0,0x0,0x0
	.DB  0x0,0x0,0x0,0x0,0x0,0x0,0x0,0x0
	.DB  0x0,0x0,0x0,0x0,0x0,0x0,0x0,0x0
	.DB  0x0,0x0,0x0,0x0,0x0,0x0,0x0,0x0
	.DB  0x0,0x0,0x0,0x0,0x0,0x0,0x0,0x0
	.DB  0x0,0x0,0x0,0x0,0x0,0x0,0x0,0x0
	.DB  0x0,0x0,0x0,0x0,0x0,0x0,0x0,0x0
	.DB  0x0,0x0,0x0,0x0,0x0,0x0,0x0,0x80
	.DB  0x80,0x80,0x0,0x0,0x0,0x0,0x0,0x0
	.DB  0x0,0x0,0x0,0x0,0x0,0x0,0x0,0x0
	.DB  0x0,0x0,0x0,0x0,0x0,0x0,0x0,0x0
	.DB  0x0,0x0,0x0,0x0,0x0,0x0,0x0,0x0
	.DB  0x0,0x0,0x0,0x0,0x0,0x0,0x0,0x0
	.DB  0x0,0x0,0x0,0x0,0x0,0x0,0x0,0x0
	.DB  0x0,0x0,0x0,0x0,0x0,0x0,0x0,0x0
	.DB  0x0,0x0,0x0,0x0,0x0,0x0,0x0,0x0
	.DB  0x0,0x0,0x0,0x0,0x0,0x0,0x80,0x80
	.DB  0x80,0x80,0xC0,0xC0,0xC0,0xC0,0xC0,0xC0
	.DB  0xC0,0xC0,0xC0,0x80,0x80,0x80,0x80,0x0
	.DB  0x0,0x0,0x0,0x0,0x0,0x0,0x0,0x0
	.DB  0x0,0x0,0x0,0x0,0x0,0x0,0x0,0x0
	.DB  0x0,0x0,0x0,0x0,0x0,0x0,0x0,0x0
	.DB  0x0,0x0,0x0,0xF0,0xF8,0xFC,0xFC,0xFC
	.DB  0xFC,0xFC,0xFE,0xFE,0xFE,0xFF,0xFF,0xFF
	.DB  0xFF,0xFF,0xFF,0xFF,0xFE,0xFC,0xFC,0xF8
	.DB  0xF0,0xF0,0xF0,0xF0,0xF0,0xF0,0xF0,0xF0
	.DB  0x30,0x0,0x0,0x0,0x0,0x0,0x0,0x0
	.DB  0x0,0x0,0x0,0x0,0x0,0x0,0x0,0x0
	.DB  0x0,0x0,0x0,0x0,0x0,0x0,0x0,0x0
	.DB  0x0,0x0,0x0,0x0,0x0,0x0,0x0,0x0
	.DB  0x0,0x0,0x0,0x0,0x0,0x0,0x0,0x0
	.DB  0x0,0x0,0x0,0x0,0xC0,0xE0,0xF0,0xF8
	.DB  0xFC,0xFC,0xFE,0xFE,0xFF,0xFF,0xFF,0xFF
	.DB  0xFF,0xFF,0xFF,0xFF,0xFF,0xFF,0xFF,0xFF
	.DB  0xFF,0xFF,0xFF,0xFF,0xFF,0xFF,0xFF,0xFF
	.DB  0xFF,0xFF,0xFF,0xFF,0xFF,0xFF,0xFF,0xFF
	.DB  0xFF,0xFF,0xFF,0xFF,0xFF,0xFF,0xFF,0xFF
	.DB  0xFF,0xFF,0xFF,0xFF,0xFF,0xFF,0xFF,0xFF
	.DB  0xFF,0xFF,0xFF,0xFF,0xFF,0xFF,0xFF,0xFF
	.DB  0xFF,0xFF,0xFF,0xFF,0xFF,0x7F,0x7F,0x7F
	.DB  0x3F,0x3F,0x3F,0x3F,0x3F,0x3F,0x3F,0x3F
	.DB  0x3F,0x3F,0x3F,0x1F,0xF,0x7,0x3,0x0
	.DB  0x0,0x0,0x0,0x0,0x0,0x0,0x0,0x0
	.DB  0x0,0x0,0x0,0x0,0x0,0x0,0x0,0x0
	.DB  0x0,0x0,0x0,0x0,0x0,0x0,0x0,0x0
	.DB  0x0,0x0,0x0,0x0,0x0,0x0,0x0,0x0
	.DB  0x0,0x0,0x0,0x0,0x0,0x0,0x80,0xC0
	.DB  0xE0,0xF8,0xFC,0xFF,0xFF,0xFF,0xFF,0xFF
	.DB  0xFF,0xFF,0xFF,0xFF,0xFF,0xFF,0xFF,0xFF
	.DB  0xFF,0xFF,0xFF,0xFF,0xFF,0xFF,0xFF,0xFF
	.DB  0xFF,0xFF,0xFF,0xFF,0xFF,0xFF,0xFF,0xFF
	.DB  0xFF,0xFF,0xFF,0xFF,0xFF,0xFF,0xFF,0xFF
	.DB  0xFF,0xFF,0xFF,0xFF,0xFF,0xFF,0xFF,0xFF
	.DB  0xFF,0xFF,0xFF,0xFF,0xFF,0xFF,0xFF,0xFF
	.DB  0xFF,0xFF,0xFF,0x7F,0x7F,0x3F,0x3F,0x1F
	.DB  0xF,0x7,0x3,0x1,0x0,0x0,0x0,0x0
	.DB  0x0,0x0,0x0,0x0,0x0,0x0,0x0,0x0
	.DB  0x0,0x0,0x0,0x0,0x0,0x0,0x0,0x0
	.DB  0x0,0x0,0x0,0x0,0x0,0x0,0x0,0x0
	.DB  0x0,0x4,0x4,0x8,0x18,0x18,0x30,0x30
	.DB  0x70,0x70,0xF0,0xF0,0xF0,0xF0,0xF0,0xF0
	.DB  0xF0,0xF0,0xF0,0xF0,0xF0,0xF0,0xF0,0xF0
	.DB  0xF8,0xF8,0x7C,0x7E,0x3E,0x3F,0x1F,0xF
	.DB  0xF,0xF,0x1F,0x3F,0x3F,0x7F,0x7F,0xFF
	.DB  0xFF,0xFF,0xFF,0xFF,0xFF,0xFF,0xFF,0xFF
	.DB  0xFF,0xFF,0xFF,0xFF,0xFF,0xFF,0xFF,0xFF
	.DB  0xFF,0x1,0x3,0x3,0x7,0x7,0xF,0xF
	.DB  0x1F,0x1F,0x3F,0x3F,0x7F,0x7F,0x7F,0x7F
	.DB  0xFF,0xFF,0xFF,0xFF,0xFF,0xFF,0xFF,0xFF
	.DB  0xFF,0x3F,0x3F,0x3F,0x7F,0x7F,0x7F,0xFF
	.DB  0xFF,0xFF,0xFF,0xFE,0xFE,0xFC,0xF8,0xF8
	.DB  0xF0,0xF0,0xE0,0xE0,0xC0,0xC0,0x80,0x0
	.DB  0x0,0x0,0x0,0x0,0x0,0x0,0x0,0x0
	.DB  0x0,0x0,0x0,0x0,0x0,0x0,0x0,0x0
	.DB  0x0,0x0,0x0,0x0,0x0,0x0,0x0,0x0
	.DB  0x0,0x0,0x0,0x0,0x0,0x0,0x0,0x0
	.DB  0x0,0x0,0x0,0x0,0x0,0x1,0x1,0x1
	.DB  0x1,0x1,0x1,0x1,0x1,0x1,0x1,0x1
	.DB  0x0,0x0,0x0,0x0,0x0,0x0,0x0,0x0
	.DB  0x0,0x0,0x0,0x0,0x0,0x0,0x0,0x0
	.DB  0x87,0xFF,0xFF,0xFF,0xFF,0xFF,0xFF,0x3F
	.DB  0x1F,0x7,0x7,0x3F,0xFF,0xFF,0xFF,0xFF
	.DB  0xFF,0xF0,0xC0,0x80,0x80,0x0,0x0,0x0
	.DB  0x0,0x0,0x80,0xC0,0xC0,0xC0,0x80,0x80
	.DB  0x83,0x7,0x8F,0xFF,0xFF,0xFF,0xFF,0xFF
	.DB  0xFF,0x0,0x0,0x0,0x0,0x0,0x0,0x0
	.DB  0x0,0x0,0x1,0x1,0x81,0x83,0xC3,0xC3
	.DB  0xE7,0xEF,0xFF,0xFF,0xFF,0xFF,0xFF,0x3F
	.DB  0x0,0x0,0x0,0x0,0x0,0x0,0x0,0x0
	.DB  0x0,0x0,0x0,0x0,0x0,0x0,0x0,0x0
	.DB  0x0,0x0,0x0,0x0,0x0,0x0,0x0,0x0
	.DB  0x0,0x0,0x0,0x0,0x0,0x0,0x0,0x0
	.DB  0x0,0x0,0x0,0x0,0x0,0x0,0x0,0x0
	.DB  0x0,0x0,0x0,0x0,0x0,0x0,0x0,0x0
	.DB  0x0,0x0,0x0,0x0,0x0,0x0,0x0,0x0
	.DB  0x0,0x0,0x0,0x0,0x0,0x78,0xFC,0xFE
	.DB  0xFF,0xFF,0xFF,0xCF,0x83,0x1,0x0,0x0
	.DB  0x0,0x0,0x0,0x0,0x0,0x1,0x1,0x3
	.DB  0x7,0xF,0xF,0x1F,0x3F,0x7F,0xFE,0xFC
	.DB  0xFC,0xFC,0xF9,0xFB,0xF7,0xF7,0xE7,0xCF
	.DB  0xF,0xF,0xF,0xF,0xF,0x7,0x7,0x3
	.DB  0x0,0x0,0x0,0x0,0x0,0x0,0x0,0x0
	.DB  0x0,0x0,0x2,0x7,0x7,0xF,0xF,0xF
	.DB  0xF,0x7,0x7,0x3,0x3,0x1,0x0,0x0
	.DB  0x0,0x0,0x0,0x0,0x0,0x0,0x0,0x0
	.DB  0x0,0x0,0x0,0x0,0x0,0x0,0x0,0x0
	.DB  0x0,0x0,0x0,0x0,0x0,0x0,0x0,0x0
	.DB  0x0,0x0,0x0,0x0,0x0,0x0,0x0,0x0
	.DB  0x0,0x0,0x0,0x0,0x0,0x0,0x0,0x0
	.DB  0x0,0x0,0x0,0x0,0x0,0x0,0x0,0x0
	.DB  0x0,0x0,0x0,0x0,0x0,0x0,0x0,0x0
	.DB  0x0,0x0,0x0,0x0,0x0,0x0,0x0,0x1
	.DB  0x3,0x7,0xF,0x1F,0x1F,0x3E,0x7E,0xFC
	.DB  0xFC,0xFC,0xFC,0xFC,0xF8,0x78,0x60,0x0
	.DB  0x0,0x0,0x0,0x0,0x0,0x0,0x0,0x0
	.DB  0x1,0x1,0x1,0x1,0x1,0x1,0x1,0x1
	.DB  0x0,0x0,0x0,0x0,0x0,0x0,0x0,0x0
	.DB  0x0,0x0,0x0,0x0,0x0,0x0,0x0,0x0
	.DB  0x0,0x0,0x0,0x0,0x0,0x0,0x0,0x0
	.DB  0x0,0x0,0x0,0x0,0x0,0x0,0x0,0x0
	.DB  0x0,0x0,0x0,0x0,0x0,0x0,0x0,0x0
	.DB  0x0,0x0,0x0,0x0,0x0,0x0,0x0,0x0
	.DB  0x0,0x0,0x0,0x0,0x0,0x0,0x0,0x0
_dog3:
	.DB  0x0,0x0,0x0,0x0,0x0,0x0,0x0,0x0
	.DB  0x0,0x0,0x0,0x0,0x0,0x0,0x0,0x0
	.DB  0x0,0x0,0x0,0x0,0x0,0x0,0x0,0x0
	.DB  0x0,0x0,0x0,0x0,0x0,0x0,0x0,0x0
	.DB  0x0,0x0,0x0,0x0,0x0,0x0,0x0,0x0
	.DB  0x0,0x0,0x0,0x0,0x0,0x0,0x0,0x0
	.DB  0x0,0x0,0x0,0x0,0x0,0x0,0x0,0x0
	.DB  0x0,0x0,0x0,0x0,0x0,0x0,0x0,0x0
	.DB  0x0,0x0,0x0,0x0,0x0,0x0,0x0,0x0
	.DB  0x0,0x0,0x0,0x0,0x0,0x0,0x0,0x0
	.DB  0x0,0x0,0x0,0x0,0x0,0x0,0x0,0x0
	.DB  0x0,0x0,0x80,0x80,0x80,0x80,0x80,0xC0
	.DB  0xC0,0xC0,0xC0,0xC0,0xC0,0xE0,0xE0,0xE0
	.DB  0xE0,0xE0,0xE0,0xE0,0xC0,0x80,0x80,0x0
	.DB  0x0,0x0,0x0,0x0,0x0,0x0,0x0,0x0
	.DB  0x0,0x0,0x0,0x0,0x0,0x0,0x0,0x0
	.DB  0x0,0x0,0x0,0x0,0x0,0x0,0x0,0x0
	.DB  0x0,0x0,0x0,0x0,0x0,0x0,0x0,0x0
	.DB  0x0,0x0,0x0,0x0,0x0,0x0,0x0,0x0
	.DB  0x0,0x0,0x0,0x0,0x0,0x0,0x0,0x0
	.DB  0x0,0x0,0x0,0x0,0x0,0x0,0x0,0x0
	.DB  0x0,0x0,0x0,0x0,0x0,0x0,0x0,0x0
	.DB  0x0,0x0,0x0,0x0,0x0,0x0,0x0,0x0
	.DB  0x0,0x0,0x0,0x0,0x0,0x0,0x0,0x0
	.DB  0x0,0x0,0x0,0x0,0x0,0x0,0x0,0x0
	.DB  0x80,0x80,0x80,0xC0,0xC0,0xC0,0xC0,0xC0
	.DB  0xC0,0xC0,0xC0,0xC0,0xC0,0xC0,0xC8,0xCC
	.DB  0xCE,0xEF,0xEF,0xFF,0xFF,0xFF,0xFF,0xFF
	.DB  0xFF,0xFF,0xFF,0xFF,0xFF,0xFF,0xFF,0xFF
	.DB  0xFF,0xFF,0xFF,0xFF,0xFF,0xFF,0xFF,0xFF
	.DB  0xFE,0xFC,0xFC,0xFC,0xFC,0xFC,0xFC,0xFC
	.DB  0xFC,0x1C,0x0,0x0,0x0,0x0,0x0,0x0
	.DB  0x0,0x0,0x0,0x0,0x0,0x0,0x0,0x0
	.DB  0x0,0x0,0x0,0x0,0x0,0x0,0x0,0x0
	.DB  0x0,0x0,0x0,0x0,0x0,0x0,0x0,0x0
	.DB  0x0,0x0,0x0,0x0,0x0,0x0,0x80,0x80
	.DB  0x80,0x80,0x0,0x80,0xC0,0xE0,0xF0,0xF0
	.DB  0xF8,0xF8,0xFC,0xFC,0xFC,0xFC,0xFC,0xFE
	.DB  0xFE,0xFE,0xFE,0xFE,0xFE,0xFE,0xFC,0xFC
	.DB  0xFC,0xFC,0xFC,0xFC,0xFC,0xFC,0xFC,0xFC
	.DB  0xFC,0xFC,0xFE,0xFE,0xFE,0xFF,0xFF,0xFF
	.DB  0xFF,0xFF,0xFF,0xFF,0xFF,0xFF,0xFF,0xFF
	.DB  0xFF,0xFF,0xFF,0xFF,0xFF,0xFF,0xFF,0xFF
	.DB  0xFF,0xFF,0xFF,0xFF,0xFF,0xFF,0xFF,0xFF
	.DB  0xFF,0xFF,0xFF,0x7F,0x3F,0x3F,0x1F,0xF
	.DB  0xF,0xF,0xF,0x1F,0x1F,0x1F,0x1F,0x1F
	.DB  0x1F,0xF,0xF,0xF,0xF,0x7,0x7,0x3
	.DB  0x0,0x0,0x0,0x0,0x0,0x0,0x0,0x0
	.DB  0x0,0x0,0x0,0x0,0x0,0x0,0x0,0x0
	.DB  0x0,0x0,0x0,0x0,0x0,0x0,0x0,0x80
	.DB  0xC0,0xE0,0xE0,0xF0,0xF8,0xFC,0x7C,0x3E
	.DB  0x3E,0x1F,0x1F,0xF,0xF,0xF,0xF,0xF
	.DB  0xF,0xFF,0xFF,0xFF,0xFF,0xFF,0xFF,0xFF
	.DB  0xFF,0xFF,0xFF,0xFF,0xFF,0xFF,0xFF,0xFF
	.DB  0xFF,0xFF,0xFF,0xFF,0xFF,0xFF,0xFF,0xFF
	.DB  0xFF,0xFF,0xFF,0xFF,0xFF,0xFF,0xFF,0xFF
	.DB  0xFF,0xFF,0xFF,0xFF,0xFF,0xFF,0xFF,0xFF
	.DB  0xFF,0xFF,0xFF,0xFF,0xFF,0xFF,0xFF,0xFF
	.DB  0xFF,0xFF,0xFF,0xFF,0xFF,0xFF,0xFF,0xFF
	.DB  0xFF,0xFF,0xFF,0xFF,0xFF,0xCF,0x87,0x87
	.DB  0x83,0x81,0x80,0x80,0x80,0x80,0x80,0x80
	.DB  0x80,0xC0,0xC0,0xC0,0xC0,0x80,0x80,0x0
	.DB  0x0,0x0,0x0,0x0,0x0,0x0,0x0,0x0
	.DB  0x0,0x0,0x0,0x0,0x0,0x0,0x0,0x0
	.DB  0x0,0x0,0x8,0x8,0x8,0x18,0x18,0x18
	.DB  0x1C,0x1C,0x1C,0x1C,0x1E,0x1F,0xF,0xF
	.DB  0x7,0x7,0x3,0x1,0x1,0x0,0x0,0x0
	.DB  0x0,0x0,0x0,0x0,0x80,0x80,0xC0,0xE0
	.DB  0xF0,0xF8,0xFF,0xFF,0xFF,0xFF,0xFF,0xFF
	.DB  0xFF,0xFF,0xFF,0xFF,0xFF,0xFF,0xFF,0xFF
	.DB  0xFF,0xFF,0xFF,0xFF,0xFF,0xFF,0xFF,0xFF
	.DB  0xF,0xF,0xF,0x1F,0x1F,0x3F,0x3F,0x3F
	.DB  0x3F,0x7F,0x7F,0x7F,0x7F,0x7F,0xFF,0xFF
	.DB  0xFF,0x7F,0x7F,0x7F,0x7F,0x3F,0x3F,0x1F
	.DB  0x1F,0x3F,0x7F,0xFF,0xFF,0xFF,0xFF,0xFF
	.DB  0xFF,0xFF,0xFF,0xFF,0xFF,0xFF,0xFF,0xFF
	.DB  0xFF,0xFF,0xFF,0xFF,0xFF,0xFF,0xDF,0xDF
	.DB  0x8F,0xF,0xF,0xF,0xF,0x1F,0x3F,0x7F
	.DB  0x7F,0xFE,0xFE,0xFC,0xFC,0xF8,0xF0,0xF0
	.DB  0xE0,0xC0,0x80,0x0,0x0,0x0,0x0,0x0
	.DB  0x0,0x0,0x0,0x0,0x0,0x0,0x0,0x0
	.DB  0x0,0x0,0x0,0x0,0x0,0x0,0x0,0x0
	.DB  0x0,0x0,0x0,0x0,0x0,0x80,0xE0,0xF8
	.DB  0xFC,0xFC,0xFE,0xFF,0xFF,0x7F,0x7F,0x3F
	.DB  0x3F,0x1F,0x1F,0xF,0xF,0x7,0x7,0x3
	.DB  0x3,0x3,0x1,0x1,0x3,0xF,0xFF,0xFF
	.DB  0xFF,0xFF,0xFF,0xFF,0xFF,0xFF,0x3F,0xF
	.DB  0x0,0x0,0x0,0x0,0x0,0x0,0x0,0x0
	.DB  0x0,0x0,0x0,0x0,0x0,0x0,0x0,0x0
	.DB  0x0,0x0,0x0,0x0,0x0,0x0,0x0,0x0
	.DB  0x0,0x0,0x0,0x0,0x0,0x0,0x0,0x0
	.DB  0x0,0x0,0x0,0x0,0x0,0x1,0x1,0x81
	.DB  0xC1,0xC1,0xC3,0xC3,0xC3,0xE7,0xFF,0xFF
	.DB  0xFF,0xFF,0xFE,0x38,0x0,0x0,0x0,0x0
	.DB  0x0,0x0,0x1,0x3,0x3,0x3,0x7,0x3
	.DB  0x3,0x3,0x0,0x0,0x0,0x0,0x0,0x0
	.DB  0x0,0x0,0x0,0x0,0x0,0x0,0x0,0x0
	.DB  0x0,0x0,0x0,0x0,0x0,0x0,0x0,0x0
	.DB  0x0,0xE0,0xF8,0xFC,0xFE,0xFF,0x7F,0x1F
	.DB  0xF,0x7,0x3,0x1,0x0,0x0,0x0,0x0
	.DB  0x0,0x0,0x0,0x0,0x0,0x0,0x0,0x0
	.DB  0x0,0x0,0x0,0x0,0x3C,0xFF,0xFF,0xFF
	.DB  0xFF,0xFF,0xFF,0xFF,0xE3,0x80,0x0,0x0
	.DB  0x0,0x0,0x0,0x0,0x0,0x0,0x0,0x0
	.DB  0x0,0x0,0x0,0x0,0x0,0x0,0x0,0x0
	.DB  0x0,0x0,0x0,0x0,0x0,0x0,0x0,0x0
	.DB  0x0,0x0,0x0,0x0,0x0,0x0,0x0,0x0
	.DB  0x0,0x0,0x0,0x0,0x0,0x0,0x0,0x1
	.DB  0x3,0x3,0x7,0x7,0x7,0x7,0x3,0x3
	.DB  0x1,0x1,0x0,0x0,0x0,0x0,0x0,0x0
	.DB  0x0,0x0,0x0,0x0,0x0,0x0,0x0,0x0
	.DB  0x0,0x0,0x0,0x0,0x0,0x0,0x0,0x0
	.DB  0x0,0x0,0x0,0x0,0x0,0x0,0x0,0x0
	.DB  0x0,0x0,0x0,0x0,0x0,0x0,0x0,0x0
	.DB  0x0,0x1F,0x3F,0x3F,0x7F,0x7F,0x7C,0x7C
	.DB  0x7C,0x38,0x0,0x0,0x0,0x0,0x0,0x0
	.DB  0x0,0x0,0x0,0x0,0x0,0x0,0x0,0x0
	.DB  0x0,0x0,0x0,0x0,0x0,0x0,0x1,0x1
	.DB  0x3,0x7,0x7,0xF,0x1F,0x3F,0x7F,0x7E
	.DB  0x7C,0x7C,0x7C,0x7C,0x7C,0x78,0x70,0x0
	.DB  0x0,0x0,0x0,0x0,0x0,0x0,0x0,0x0
	.DB  0x0,0x0,0x0,0x0,0x0,0x0,0x0,0x0
	.DB  0x0,0x0,0x0,0x0,0x0,0x0,0x0,0x0
	.DB  0x0,0x0,0x0,0x0,0x0,0x0,0x0,0x0
	.DB  0x0,0x0,0x0,0x0,0x0,0x0,0x0,0x0
	.DB  0x0,0x0,0x0,0x0,0x0,0x0,0x0,0x0
	.DB  0x0,0x0,0x0,0x0,0x0,0x0,0x0,0x0
	.DB  0x0,0x0,0x0,0x0,0x0,0x0,0x0,0x0
_dog4:
	.DB  0x0,0x0,0x0,0x0,0x0,0x0,0x0,0x0
	.DB  0x0,0x0,0x0,0x0,0x0,0x0,0x0,0x0
	.DB  0x0,0x0,0x0,0x0,0x0,0x0,0x0,0x0
	.DB  0x0,0x0,0x0,0x0,0x0,0x0,0x0,0x0
	.DB  0x0,0x0,0x0,0x0,0x0,0x0,0x0,0x0
	.DB  0x0,0x0,0x0,0x0,0x0,0x0,0x0,0x0
	.DB  0x0,0x0,0x0,0x0,0x0,0x0,0x0,0x0
	.DB  0x0,0x0,0x0,0x0,0x0,0x0,0x0,0x0
	.DB  0x0,0x0,0x0,0x0,0x0,0x0,0x0,0x0
	.DB  0x0,0x0,0x0,0x0,0x0,0x0,0x0,0x0
	.DB  0x0,0x0,0x0,0x0,0x0,0x0,0x0,0x0
	.DB  0x0,0x0,0x0,0x0,0x0,0x0,0x0,0x0
	.DB  0x0,0x0,0x0,0x0,0x0,0x0,0x0,0x0
	.DB  0x0,0x0,0x0,0x0,0x0,0x0,0x0,0x0
	.DB  0x0,0x0,0x0,0x0,0x0,0x0,0x0,0x0
	.DB  0x0,0x0,0x0,0x0,0x0,0x0,0x0,0x0
	.DB  0x0,0x0,0x0,0x0,0x0,0x0,0x0,0x0
	.DB  0x0,0x0,0x0,0x0,0x0,0x0,0x0,0x0
	.DB  0x0,0x0,0x0,0x0,0x0,0x0,0x0,0x0
	.DB  0x0,0x0,0x0,0x0,0x0,0x0,0x0,0x0
	.DB  0x0,0x0,0x0,0x0,0x0,0x0,0x0,0x0
	.DB  0x0,0x0,0x0,0x0,0x0,0x0,0x0,0x0
	.DB  0x0,0x0,0x0,0x0,0x0,0x0,0x0,0x0
	.DB  0x0,0x0,0x0,0x0,0x0,0x0,0x0,0x0
	.DB  0x0,0x0,0x0,0x0,0x0,0x80,0x80,0x80
	.DB  0xC0,0xC0,0xC0,0xE0,0xE0,0xE0,0xE0,0xE0
	.DB  0xE0,0xE0,0xE0,0xE0,0xC0,0xC0,0xC0,0xC0
	.DB  0xC0,0xCC,0xCE,0xCE,0xDF,0xDF,0xFF,0xFF
	.DB  0xFF,0xFF,0xFF,0xFF,0xFE,0xFE,0xFE,0xFF
	.DB  0xFF,0xFF,0xFF,0xFF,0xFF,0xFE,0xFE,0xFC
	.DB  0xF8,0xF8,0xF0,0xE0,0xE0,0xC0,0xC0,0xC0
	.DB  0xC0,0xC0,0xC0,0x80,0x0,0x0,0x0,0x0
	.DB  0x0,0x0,0x0,0x0,0x0,0x0,0x0,0x80
	.DB  0xC0,0xE0,0xE0,0xF0,0xF8,0x78,0x78,0x3C
	.DB  0x3C,0x3C,0x3E,0x1E,0x1E,0x1E,0x1F,0x1F
	.DB  0xF,0xF,0x1F,0x1F,0x1F,0x1F,0x3E,0x3E
	.DB  0x3E,0x7E,0xFC,0xFC,0xFC,0xFC,0xFC,0xFC
	.DB  0xFE,0xFE,0xFE,0xFE,0xFF,0xFF,0xFF,0xFF
	.DB  0xFF,0xFF,0xFF,0xFE,0xFE,0xFE,0xFE,0xFE
	.DB  0xFE,0xFE,0xFE,0xFE,0xFE,0xFE,0xFE,0xFF
	.DB  0xFF,0xFF,0xFF,0xFF,0xFF,0xFF,0xFF,0xFF
	.DB  0xFF,0xFF,0xFF,0xFF,0xFF,0xFF,0xFF,0xFF
	.DB  0xFF,0xFF,0xFF,0xFF,0xFF,0xFF,0xFF,0xFF
	.DB  0xFF,0xFF,0xFF,0xFF,0xFF,0xFF,0xFF,0xFF
	.DB  0xFF,0xFF,0xFF,0xFF,0xFF,0xFF,0xFF,0x7F
	.DB  0x7F,0x3F,0x3F,0x7F,0x7F,0x7F,0x7F,0xFF
	.DB  0xFF,0xFF,0xFF,0xFF,0xFF,0x7F,0x7F,0x3F
	.DB  0x1F,0xF,0x7,0x1,0x0,0x0,0x0,0x0
	.DB  0x0,0x20,0x30,0x18,0xC,0xE,0x7,0x7
	.DB  0x3,0x1,0x1,0x0,0x0,0x0,0x0,0x0
	.DB  0x0,0x0,0x0,0x0,0x0,0x0,0x0,0x0
	.DB  0x0,0x0,0x0,0x0,0x0,0xC0,0xE0,0xF8
	.DB  0xFC,0xFF,0xFF,0xFF,0xFF,0xFF,0xFF,0xFF
	.DB  0xFF,0xFF,0xFF,0xFF,0xFF,0xFF,0xFF,0xFF
	.DB  0xFF,0xFF,0xFF,0xFF,0xFF,0xFF,0xFF,0xFF
	.DB  0xFF,0xFF,0xFF,0xFF,0xFF,0xFF,0xFF,0xFF
	.DB  0xFF,0xFF,0xFF,0xFF,0xFF,0xFF,0xFF,0xFF
	.DB  0xFF,0xFF,0xFF,0xFF,0xFF,0xFF,0xFF,0xFF
	.DB  0xFF,0xFF,0xFF,0xFF,0xFF,0xFF,0xFF,0xFF
	.DB  0xFF,0xFF,0xFF,0xFF,0xFF,0xFF,0xFF,0xFF
	.DB  0xCF,0xC7,0xC3,0xC3,0xC1,0xC1,0xC0,0xC0
	.DB  0xC0,0xC0,0xC0,0xC0,0xC0,0xC0,0xC0,0xC0
	.DB  0x80,0x80,0x80,0x0,0x0,0x0,0x0,0x0
	.DB  0x0,0x0,0x0,0x0,0x0,0x0,0x0,0x0
	.DB  0x0,0x0,0x0,0x0,0x0,0x0,0x0,0x0
	.DB  0x0,0x0,0x0,0x0,0x0,0x0,0x80,0xC0
	.DB  0xE0,0xE0,0xE0,0xE0,0xF0,0xF0,0xF0,0xF8
	.DB  0xF8,0xF8,0xFC,0xFE,0xFF,0xFF,0xFF,0xFF
	.DB  0xFF,0xFF,0xFF,0xFF,0xFF,0xFF,0xFF,0xFF
	.DB  0xFF,0xFF,0xFF,0xFF,0xFF,0xFF,0x7F,0x1F
	.DB  0xF,0x3,0x1,0x1,0x1,0x1,0x1,0x1
	.DB  0x1,0x1,0x1,0x1,0x3,0x3,0x7,0x7
	.DB  0xF,0xF,0x1F,0x1F,0x1F,0x3F,0x3F,0x3F
	.DB  0x3F,0x3F,0x3F,0x3F,0x3F,0x3F,0x1F,0x1F
	.DB  0x1F,0x1F,0x1F,0xF,0xF,0xF,0x7,0xF
	.DB  0xF,0x1F,0x1F,0x3F,0x3F,0x7F,0x7F,0x7F
	.DB  0x7F,0x7F,0xFF,0xFF,0xFF,0xFF,0xF7,0xE3
	.DB  0xE3,0xC3,0xC3,0x83,0x83,0x87,0x7,0x7
	.DB  0xF,0xF,0xF,0x1F,0x1F,0x1F,0x1E,0x9E
	.DB  0x9C,0x88,0x80,0x0,0x0,0x0,0x0,0x0
	.DB  0x0,0x0,0xE0,0xF0,0xE0,0xE0,0xE0,0xE0
	.DB  0xF0,0xF0,0xF8,0xFC,0xFE,0xFF,0xFF,0x7F
	.DB  0x3F,0x1F,0xF,0x7,0xC3,0xF3,0xFB,0xFF
	.DB  0xFF,0xFF,0xFF,0xFF,0x7F,0x7F,0x7F,0x7F
	.DB  0x7F,0x3F,0x3F,0x3F,0x1F,0x1F,0x1F,0xF
	.DB  0xF,0x7,0x3,0x3,0x1,0x0,0x0,0x0
	.DB  0x0,0x0,0x0,0x0,0x0,0x0,0x0,0x0
	.DB  0x0,0x0,0x0,0x0,0x0,0x0,0x0,0x0
	.DB  0x0,0x0,0x0,0x0,0x0,0x0,0x0,0x0
	.DB  0x0,0x0,0x0,0x0,0x0,0x0,0x0,0x0
	.DB  0x0,0x0,0x0,0x0,0x0,0x0,0x0,0x0
	.DB  0x0,0x0,0x0,0x0,0x0,0x0,0x0,0x0
	.DB  0x0,0x0,0x0,0x0,0x0,0x1,0x1,0x3
	.DB  0x7,0x7,0xF,0xF,0xF,0xF,0xF,0xF
	.DB  0xF,0xF,0xF,0xF,0xF,0xF,0xF,0xF
	.DB  0xF,0xF,0x7,0x7,0x0,0x0,0x0,0x0
	.DB  0x0,0x0,0x0,0x1,0x3,0x7,0x7,0x7
	.DB  0x7,0x7,0x7,0x3,0x1,0x1,0x0,0x0
	.DB  0x0,0xF0,0xFC,0xFE,0xFF,0xFF,0xFF,0x3F
	.DB  0xF,0x7,0x1,0x0,0x0,0x0,0x0,0x0
	.DB  0x0,0x0,0x0,0x0,0x0,0x0,0x0,0x0
	.DB  0x0,0x0,0x0,0x0,0x0,0x0,0x0,0x0
	.DB  0x0,0x0,0x0,0x0,0x0,0x0,0x0,0x0
	.DB  0x0,0x0,0x0,0x0,0x0,0x0,0x0,0x0
	.DB  0x0,0x0,0x0,0x0,0x0,0x0,0x0,0x0
	.DB  0x0,0x0,0x0,0x0,0x0,0x0,0x0,0x0
	.DB  0x0,0x0,0x0,0x0,0x0,0x0,0x0,0x0
	.DB  0x0,0x0,0x0,0x0,0x0,0x0,0x0,0x0
	.DB  0x0,0x0,0x0,0x0,0x0,0x0,0x0,0x0
	.DB  0x0,0x0,0x0,0x0,0x0,0x0,0x0,0x0
	.DB  0x0,0x0,0x0,0x0,0x0,0x0,0x0,0x0
	.DB  0x0,0x0,0x0,0x0,0x0,0x0,0x0,0x0
	.DB  0x0,0x0,0x0,0x0,0x0,0x0,0x0,0x0
	.DB  0x0,0x0,0x0,0x0,0x0,0x0,0x0,0x0
	.DB  0x0,0x7,0x1F,0x3F,0x3F,0x7F,0x7F,0x7E
	.DB  0x7C,0x7C,0x38,0x0,0x0,0x0,0x0,0x0
	.DB  0x0,0x0,0x0,0x0,0x0,0x0,0x0,0x0
	.DB  0x0,0x0,0x0,0x0,0x0,0x0,0x0,0x0
	.DB  0x0,0x0,0x0,0x0,0x0,0x0,0x0,0x0
	.DB  0x0,0x0,0x0,0x0,0x0,0x0,0x0,0x0
	.DB  0x0,0x0,0x0,0x0,0x0,0x0,0x0,0x0
	.DB  0x0,0x0,0x0,0x0,0x0,0x0,0x0,0x0
	.DB  0x0,0x0,0x0,0x0,0x0,0x0,0x0,0x0
	.DB  0x0,0x0,0x0,0x0,0x0,0x0,0x0,0x0
	.DB  0x0,0x0,0x0,0x0,0x0,0x0,0x0,0x0
	.DB  0x0,0x0,0x0,0x0,0x0,0x0,0x0,0x0
	.DB  0x0,0x0,0x0,0x0,0x0,0x0,0x0,0x0
	.DB  0x0,0x0,0x0,0x0,0x0,0x0,0x0,0x0
_dog5:
	.DB  0x0,0x0,0x0,0x0,0x0,0x0,0x0,0x0
	.DB  0x0,0x0,0x0,0x0,0x0,0x0,0x80,0x80
	.DB  0x80,0x80,0xC0,0xC0,0xC0,0xC0,0xC0,0xC0
	.DB  0xC0,0xC0,0xC0,0xC0,0xC0,0xC0,0xC0,0xC0
	.DB  0xC0,0xC0,0x80,0x80,0x80,0x0,0x0,0x0
	.DB  0x0,0x0,0x0,0x0,0x0,0x0,0x0,0x0
	.DB  0x0,0x0,0x0,0x0,0x0,0x0,0x0,0x0
	.DB  0x0,0x0,0x0,0x0,0x0,0x0,0x0,0x0
	.DB  0x0,0x0,0x0,0x0,0x0,0x0,0x0,0x0
	.DB  0x0,0x0,0x0,0x0,0x0,0x0,0x0,0x0
	.DB  0x0,0x0,0x0,0x0,0x0,0x0,0x0,0x0
	.DB  0x0,0x0,0x0,0x0,0x0,0x0,0x0,0x0
	.DB  0x0,0x0,0x80,0x80,0x80,0x80,0x80,0x80
	.DB  0x0,0x0,0x0,0x0,0x0,0x0,0x0,0x0
	.DB  0x0,0x0,0x0,0x0,0x0,0x0,0x0,0x0
	.DB  0x0,0x0,0x0,0x0,0x0,0x0,0x0,0x0
	.DB  0x0,0x0,0x0,0x0,0x0,0x0,0x0,0x0
	.DB  0x0,0x2,0x2,0x3,0x1,0x1,0x1,0x1
	.DB  0x1,0x1,0x1,0x1,0x1,0x1,0x1,0x1
	.DB  0x1,0x1,0x1,0x3,0x3,0x3,0x7,0x7
	.DB  0x7,0xF,0xF,0x1F,0x3F,0x3F,0x7F,0xFE
	.DB  0xFC,0xFC,0xF8,0xF0,0xF0,0xF8,0xF8,0xF8
	.DB  0xF8,0xFC,0xFC,0xFC,0xFC,0xFC,0xFC,0xFC
	.DB  0xFC,0xF8,0xF8,0xF8,0xF8,0xF8,0xF0,0xF0
	.DB  0xF0,0xF0,0xF0,0xE0,0xE0,0xE0,0xE0,0xE0
	.DB  0xE0,0xE0,0xC0,0xC0,0xE0,0xE0,0xE0,0xE0
	.DB  0xE0,0xE0,0xE0,0xE0,0xE0,0xF0,0xF0,0xE0
	.DB  0xE0,0xE0,0xE0,0xC0,0xC0,0x80,0x80,0x82
	.DB  0x83,0x87,0x87,0x8F,0x8F,0x9F,0xFF,0xFF
	.DB  0xFF,0xFF,0xFE,0xFC,0xF8,0xF8,0xF0,0xF8
	.DB  0xF8,0xF0,0xF0,0xF0,0xE0,0xE0,0xC0,0x80
	.DB  0x0,0x0,0x0,0x0,0x0,0x0,0x0,0x0
	.DB  0x0,0x0,0x0,0x0,0x0,0x0,0x0,0x0
	.DB  0x0,0x0,0x0,0x0,0x0,0x0,0x0,0x0
	.DB  0x0,0x0,0x0,0x0,0x0,0x0,0x0,0x0
	.DB  0x0,0x0,0x0,0x0,0x0,0x0,0x0,0x0
	.DB  0x0,0x0,0x0,0x0,0x0,0xC0,0xF8,0xFE
	.DB  0xFF,0xFF,0xFF,0xFF,0xFF,0xFF,0xFF,0xFF
	.DB  0xFF,0xFF,0xFF,0xFF,0xFF,0xFF,0xFF,0xFF
	.DB  0xFF,0xFF,0xFF,0xFF,0xFF,0xFF,0xFF,0xFF
	.DB  0xFF,0xFF,0xFF,0xFF,0xFF,0xFF,0xFF,0xFF
	.DB  0xFF,0xFF,0xFF,0xFF,0xFF,0xFF,0xFF,0xFF
	.DB  0xFF,0xFF,0xFF,0xFF,0xFF,0xFF,0xFF,0xFF
	.DB  0xFF,0xFF,0xFF,0xFF,0xFF,0xFF,0xFF,0xFF
	.DB  0xFF,0xFF,0xFF,0xFF,0xFF,0xFF,0xFF,0xFF
	.DB  0xFF,0xFF,0xFF,0xFF,0xFF,0xFF,0xFF,0xFF
	.DB  0xFF,0xFF,0xFF,0xFF,0xFF,0xFF,0xFF,0xFF
	.DB  0xFF,0xFF,0xFE,0xFC,0xFC,0x7C,0x38,0x18
	.DB  0x0,0x0,0x0,0x0,0x0,0x0,0x0,0x0
	.DB  0x0,0x0,0x0,0x0,0x0,0x0,0x0,0x0
	.DB  0x80,0x80,0xC0,0xE0,0xF0,0xFC,0xFC,0xFE
	.DB  0x7E,0x7E,0xFE,0xFE,0xFC,0xFC,0xF8,0xF8
	.DB  0xF0,0xF0,0xF8,0xFC,0xFE,0xFF,0xFF,0xFF
	.DB  0xFF,0xFF,0xFF,0xFF,0xFF,0xFF,0xFF,0xFF
	.DB  0xFF,0xFF,0xFF,0xFF,0xFF,0x7F,0x7F,0x3F
	.DB  0x1F,0x1F,0xF,0xF,0xF,0xF,0x1F,0x3F
	.DB  0x7F,0xFF,0xFF,0xFF,0xFF,0xFF,0xFF,0xFF
	.DB  0xFF,0xFF,0xFF,0xFF,0xFF,0xFF,0xFF,0xFF
	.DB  0xFF,0xFF,0xFF,0xFF,0xFF,0xFF,0xFF,0xFF
	.DB  0xFF,0xFF,0xFF,0xFF,0xFF,0xFF,0xFF,0xFF
	.DB  0xFF,0x7F,0x3F,0x3F,0x1F,0xF,0xF,0xF
	.DB  0x7,0x7,0x7,0x3,0x3,0x3,0x3,0x1
	.DB  0x1,0x1,0x3,0x3,0x3,0x3,0x3,0x3
	.DB  0x3,0x3,0x3,0x1,0x0,0x0,0x0,0x0
	.DB  0x0,0x0,0x0,0x0,0x0,0x0,0x0,0x0
	.DB  0x0,0x0,0x0,0x7,0x1F,0xBF,0xFF,0xFF
	.DB  0xFF,0xFF,0xFF,0xFF,0xFF,0xFF,0xFF,0x7E
	.DB  0x7E,0x7F,0x3F,0x3F,0x3F,0x3F,0x3F,0x3F
	.DB  0x7F,0x7F,0x7F,0x7F,0x3F,0x3F,0x3F,0x1F
	.DB  0xF,0xF,0x7,0x7,0x7,0x3,0x3,0x3
	.DB  0x3,0x1,0x1,0x0,0x0,0x0,0x0,0x0
	.DB  0x0,0x0,0x0,0x0,0x0,0x0,0x0,0x0
	.DB  0x0,0x0,0x1,0x3,0x3,0x7,0x7,0xF
	.DB  0xF,0xF,0x1F,0x1F,0x1F,0x1F,0x1F,0x1F
	.DB  0x1F,0x1F,0x1F,0x1F,0x1F,0x1F,0xFF,0xFF
	.DB  0xFF,0xFF,0xFF,0xFF,0xFF,0xFF,0xFF,0xFF
	.DB  0xFF,0xFF,0xFC,0xF8,0xF8,0xF0,0xF0,0xF0
	.DB  0xE0,0xE0,0xC0,0xC0,0x80,0x80,0x0,0x0
	.DB  0x0,0x0,0x0,0x0,0x0,0x0,0x0,0x0
	.DB  0x0,0x0,0x0,0x0,0x0,0x0,0x0,0x0
	.DB  0x0,0x0,0x70,0xF0,0xF8,0xF8,0xF8,0xF8
	.DB  0xFC,0x7C,0x7E,0x7E,0x3F,0x1F,0x1F,0xF
	.DB  0x7,0x7,0x3,0x1,0x1,0x0,0x0,0x0
	.DB  0x0,0x0,0x0,0x0,0x0,0x0,0x0,0x0
	.DB  0x0,0x0,0x0,0x0,0x0,0x0,0x0,0x0
	.DB  0x0,0x0,0x0,0x0,0x0,0x0,0x0,0x0
	.DB  0x0,0x0,0x0,0x0,0x0,0x0,0x0,0x0
	.DB  0x0,0x0,0x0,0x0,0x0,0x0,0x0,0x0
	.DB  0x0,0x0,0x0,0x0,0x0,0x0,0x0,0x0
	.DB  0x0,0x0,0x0,0x0,0x0,0x0,0x0,0x0
	.DB  0x0,0x0,0x0,0x0,0x0,0x0,0xF,0x1F
	.DB  0x7F,0xFF,0xFF,0xFF,0xFF,0xFF,0xFF,0xF9
	.DB  0xC1,0x3,0x3,0x7,0x7,0xF,0xF,0xF
	.DB  0x1F,0x1F,0x1F,0x3F,0x3F,0x3F,0x3F,0x7F
	.DB  0x7E,0x7E,0x7C,0x7C,0x7C,0xF8,0xF8,0xF8
	.DB  0xFC,0xFC,0xFC,0xFC,0xFC,0x7C,0x3C,0x18
	.DB  0x0,0x0,0x0,0x0,0x0,0x0,0x0,0x0
	.DB  0x0,0x0,0x0,0x0,0x0,0x0,0x0,0x0
	.DB  0x0,0x0,0x0,0x0,0x0,0x0,0x0,0x0
	.DB  0x0,0x0,0x0,0x0,0x0,0x0,0x0,0x0
	.DB  0x0,0x0,0x0,0x0,0x0,0x0,0x0,0x0
	.DB  0x0,0x0,0x0,0x0,0x0,0x0,0x0,0x0
	.DB  0x0,0x0,0x0,0x0,0x0,0x0,0x0,0x0
	.DB  0x0,0x0,0x0,0x0,0x0,0x0,0x0,0x0
	.DB  0x0,0x0,0x0,0x0,0x0,0x0,0x0,0x0
	.DB  0x0,0x0,0x0,0x0,0x0,0x0,0x0,0x0
	.DB  0x0,0x0,0x0,0x0,0x0,0x0,0x0,0x0
	.DB  0x0,0x0,0x1,0x7,0xF,0x1F,0x3F,0x7F
	.DB  0xFF,0xFF,0xFE,0xFC,0xF8,0xE0,0xC0,0x80
	.DB  0x0,0x0,0x0,0x0,0x0,0x0,0x0,0x0
	.DB  0x0,0x0,0x0,0x0,0x0,0x0,0x0,0x0
	.DB  0x0,0x0,0x0,0x0,0x0,0x0,0x0,0x0
	.DB  0x0,0x0,0x0,0x0,0x0,0x0,0x0,0x0
	.DB  0x0,0x0,0x0,0x0,0x0,0x0,0x0,0x0
	.DB  0x0,0x0,0x0,0x0,0x0,0x0,0x0,0x0
	.DB  0x0,0x0,0x0,0x0,0x0,0x0,0x0,0x0
	.DB  0x0,0x0,0x0,0x0,0x0,0x0,0x0,0x0
	.DB  0x0,0x0,0x0,0x0,0x0,0x0,0x0,0x0
	.DB  0x0,0x0,0x0,0x0,0x0,0x0,0x0,0x0
	.DB  0x0,0x0,0x0,0x0,0x0,0x0,0x0,0x0
	.DB  0x0,0x0,0x0,0x0,0x0,0x0,0x0,0x0
	.DB  0x0,0x0,0x0,0x0,0x0,0x0,0x0,0x0
	.DB  0x0,0x0,0x0,0x0,0x0,0x0,0x0,0x0
	.DB  0x0,0x0,0x0,0x0,0x0,0x0,0x0,0x0
	.DB  0x1,0x3,0x7,0xF,0x1F,0x1F,0x3F,0x7F
	.DB  0x7F,0x7E,0x7C,0x7C,0x7C,0x7C,0x7C,0x3C
	.DB  0x3C,0x38,0x0,0x0,0x0,0x0,0x0,0x0
	.DB  0x0,0x0,0x0,0x0,0x0,0x0,0x0,0x0
_dog6:
	.DB  0x0,0x0,0x0,0x0,0x0,0x0,0x0,0x0
	.DB  0x0,0x0,0x0,0x0,0x0,0x0,0x8,0x8
	.DB  0xC,0xC,0x6,0x6,0x6,0x7,0x7,0x7
	.DB  0xF,0x1F,0x1E,0x3E,0x7E,0x7C,0xFC,0xF8
	.DB  0xF8,0xF0,0xE0,0xE0,0xC0,0x80,0x0,0x0
	.DB  0x0,0x0,0x0,0x0,0x0,0x0,0x0,0x0
	.DB  0x0,0x0,0x0,0x0,0x0,0x0,0x0,0x0
	.DB  0x0,0x0,0x0,0x0,0x0,0x0,0x0,0x0
	.DB  0x0,0x0,0x0,0x0,0x0,0x0,0x0,0x0
	.DB  0x0,0x0,0x0,0x0,0x0,0x0,0x0,0x0
	.DB  0x0,0x0,0x0,0x0,0x0,0x0,0x0,0x0
	.DB  0x0,0x0,0x0,0x0,0x0,0x0,0x0,0x0
	.DB  0x0,0x0,0x0,0x0,0x0,0x0,0x0,0x0
	.DB  0x0,0x0,0x0,0x0,0x0,0x0,0x0,0x0
	.DB  0x0,0x0,0x0,0x0,0x0,0x0,0x0,0x0
	.DB  0x0,0x0,0x0,0x0,0x0,0x0,0x0,0x0
	.DB  0x0,0x0,0x0,0x0,0x0,0x0,0x0,0x0
	.DB  0x0,0x0,0x0,0x0,0x0,0x0,0x0,0x0
	.DB  0x0,0x0,0x0,0x0,0x0,0x0,0x0,0x0
	.DB  0x0,0x0,0x0,0x0,0x0,0x0,0x0,0x1
	.DB  0x3,0x3,0x7,0xF,0xF,0x1F,0x3F,0x3F
	.DB  0x7E,0xFC,0xFC,0xF8,0xF8,0xF8,0xF8,0xFC
	.DB  0xFC,0xFC,0xFC,0xFC,0xFC,0xFC,0xFC,0xFC
	.DB  0xFC,0xFC,0xF8,0xF8,0xF8,0xF0,0xF0,0xE0
	.DB  0xE0,0xC0,0xC0,0x80,0x80,0x80,0x0,0x0
	.DB  0x0,0x0,0x0,0x0,0x0,0x0,0x0,0x0
	.DB  0x0,0x0,0x0,0x0,0x0,0x0,0x0,0x0
	.DB  0x0,0x0,0x0,0x0,0x0,0x0,0x0,0x0
	.DB  0x30,0x78,0xF8,0xF8,0xF8,0xF8,0xF0,0xE0
	.DB  0xC0,0x80,0x0,0x0,0x0,0x0,0x0,0x0
	.DB  0x0,0x0,0x0,0x0,0x0,0x0,0x0,0x0
	.DB  0x0,0x0,0x0,0x0,0x0,0x0,0x0,0x0
	.DB  0x0,0x0,0x0,0x0,0x0,0x0,0x0,0x0
	.DB  0x0,0x0,0x0,0x0,0x0,0x0,0x0,0x0
	.DB  0x0,0x0,0x0,0x0,0x0,0x80,0xC0,0xE0
	.DB  0xF0,0xF8,0xF8,0xF8,0xF8,0xF0,0xF0,0xC0
	.DB  0x80,0x80,0x80,0x80,0x80,0xE0,0xF0,0xF8
	.DB  0xFF,0xFF,0xFF,0xFF,0xFF,0xFF,0xFF,0xFF
	.DB  0xFF,0xFF,0xFF,0xFF,0xFF,0xFF,0xFF,0xFF
	.DB  0xFF,0xFF,0xFF,0xFF,0xFF,0xFF,0xFF,0xFF
	.DB  0xFF,0xFF,0xFF,0xFF,0xFF,0xFF,0xFF,0xFF
	.DB  0xFE,0xFE,0xFE,0xFE,0xFE,0xFE,0xFE,0xFC
	.DB  0xFC,0xFC,0xFC,0xFC,0xFC,0xFC,0xFC,0xFC
	.DB  0xF8,0xF8,0xF8,0xF0,0xE0,0xE0,0xE0,0xE0
	.DB  0xE0,0xE0,0xE0,0xE3,0xFF,0xFF,0xFF,0xFF
	.DB  0xFF,0xFF,0xFE,0xFE,0xFE,0xFE,0xFE,0xFE
	.DB  0xFE,0xFC,0xF8,0xF0,0xE0,0xC0,0x80,0x0
	.DB  0x0,0x0,0x0,0x0,0x0,0x0,0x0,0x0
	.DB  0x0,0x0,0x0,0x0,0x0,0x0,0x0,0xE0
	.DB  0xE0,0xE0,0xF0,0xF0,0xF0,0xF0,0xF8,0xF8
	.DB  0xFC,0xFC,0xFE,0x7F,0x7F,0x3F,0x1F,0xF
	.DB  0xF,0x7,0x7,0x7,0x87,0x8F,0xCF,0xFF
	.DB  0xFF,0xFF,0xFF,0xFF,0xFF,0xFF,0xFF,0xFF
	.DB  0xFF,0xFF,0xFF,0xFF,0xFF,0xFF,0xFF,0xFF
	.DB  0xFF,0xFF,0xFF,0xFF,0xFF,0xFF,0xFF,0xFF
	.DB  0xFF,0xFF,0xFF,0x7F,0x3F,0x7F,0xFF,0xFF
	.DB  0xFF,0xFF,0xFF,0xFF,0xFF,0xFF,0xFF,0xFF
	.DB  0xFF,0xFF,0xFF,0xFF,0xFF,0xFF,0xFF,0xFF
	.DB  0xFF,0xFF,0xFF,0xFF,0xFF,0xFF,0xFF,0xFF
	.DB  0xFF,0xFF,0xFF,0xFF,0xFF,0xFF,0xFF,0xFF
	.DB  0xFF,0xFF,0xFF,0xFF,0xFF,0xFF,0xFF,0xFF
	.DB  0xFF,0xFF,0xFF,0xFF,0xFF,0xFF,0xFF,0xFF
	.DB  0xFF,0xFF,0xFF,0xFF,0xFF,0xFF,0xFF,0xFF
	.DB  0xFF,0xFE,0xFE,0x7E,0x3C,0xC,0x0,0x0
	.DB  0x0,0x0,0x0,0x0,0x0,0x0,0x0,0x0
	.DB  0x1,0x1,0x3,0x3,0x3,0x3,0x3,0x3
	.DB  0x3,0x1,0x0,0x0,0x1C,0x3E,0x3E,0x3E
	.DB  0x3E,0x3F,0x3F,0x1F,0x1F,0x1F,0x1F,0xF
	.DB  0xF,0xF,0x7,0x3,0x3,0x3,0x3,0x3
	.DB  0x3,0x3,0x3,0x3,0x3,0x3,0x3,0x1
	.DB  0x3,0x3,0x3,0x3,0x3,0x1,0x1,0x1
	.DB  0x1,0x0,0x0,0x0,0x0,0x0,0x1,0x3
	.DB  0x7,0xF,0xF,0x1F,0x1F,0xBF,0xFF,0xFF
	.DB  0xFF,0xFF,0xFF,0xFF,0xFF,0xFF,0xFF,0xFF
	.DB  0xFF,0xFF,0xFF,0xFF,0xFF,0xFF,0xFF,0xFF
	.DB  0xFF,0xFF,0xFF,0xFF,0xFF,0x9F,0x1F,0xF
	.DB  0xF,0x7,0x7,0x3,0x3,0x3,0x1,0x1
	.DB  0x1,0x1,0x0,0x0,0x0,0x0,0x1,0x1
	.DB  0x3,0x3,0x3,0x3,0x3,0x3,0x3,0x3
	.DB  0x1,0x1,0x0,0x0,0x0,0x0,0x0,0x0
	.DB  0x0,0x0,0x0,0x0,0x0,0x0,0x0,0x0
	.DB  0x0,0x0,0x0,0x0,0x0,0x0,0x0,0x0
	.DB  0x0,0x0,0x0,0x0,0x0,0x0,0x0,0x0
	.DB  0x0,0x0,0x0,0x0,0x0,0x0,0x0,0x0
	.DB  0x0,0x0,0x0,0x0,0x0,0x0,0x0,0x0
	.DB  0x0,0x0,0x0,0x0,0x0,0x0,0x0,0x0
	.DB  0x0,0x0,0x0,0x0,0x0,0x0,0x0,0x0
	.DB  0x0,0x0,0x0,0x0,0x0,0x0,0x0,0x0
	.DB  0x0,0xC0,0xF0,0xFC,0xFF,0xFF,0xFF,0xFF
	.DB  0xFF,0x7F,0x3F,0x1F,0xF,0x7,0x3,0x1
	.DB  0x1,0x1,0x1,0x3,0xF,0xF,0x1F,0x3F
	.DB  0x3F,0x7F,0x7F,0xFF,0xFF,0xFF,0xFF,0xFE
	.DB  0xFC,0xF8,0xF0,0xE0,0xC0,0x80,0x0,0x0
	.DB  0x0,0x0,0x0,0x0,0x0,0x0,0x0,0x0
	.DB  0x0,0x0,0x0,0x0,0x0,0x0,0x0,0x0
	.DB  0x0,0x0,0x0,0x0,0x0,0x0,0x0,0x0
	.DB  0x0,0x0,0x0,0x0,0x0,0x0,0x0,0x0
	.DB  0x0,0x0,0x0,0x0,0x0,0x0,0x0,0x0
	.DB  0x0,0x0,0x0,0x0,0x0,0x0,0x0,0x0
	.DB  0x0,0x0,0x0,0x0,0x0,0x0,0x0,0x0
	.DB  0x0,0x0,0x0,0x0,0x0,0x0,0x0,0x0
	.DB  0x0,0x0,0x0,0x0,0x0,0x0,0x0,0x0
	.DB  0x0,0x0,0x0,0x0,0x0,0x0,0x0,0x0
	.DB  0x0,0x0,0x0,0x0,0x0,0x0,0xE0,0xFC
	.DB  0xFF,0xFF,0xFF,0x3F,0x1F,0x7,0x3,0x1
	.DB  0x0,0x0,0x0,0x0,0x0,0x0,0x0,0x0
	.DB  0x0,0x0,0x0,0x0,0x0,0x0,0x0,0x0
	.DB  0x0,0x0,0x0,0x0,0x0,0x1,0x1,0x3
	.DB  0x3,0x7,0xF,0x1F,0x1F,0x3F,0x7F,0x7E
	.DB  0xFC,0xF8,0xF8,0xF0,0xF0,0xE0,0xE0,0xE0
	.DB  0xE0,0xE0,0xE0,0xC0,0x80,0x0,0x0,0x0
	.DB  0x0,0x0,0x0,0x0,0x0,0x0,0x0,0x0
	.DB  0x0,0x0,0x0,0x0,0x0,0x0,0x0,0x0
	.DB  0x0,0x0,0x0,0x0,0x0,0x0,0x0,0x0
	.DB  0x0,0x0,0x0,0x0,0x0,0x0,0x0,0x0
	.DB  0x0,0x0,0x0,0x0,0x0,0x0,0x0,0x0
	.DB  0x0,0x0,0x0,0x0,0x0,0x0,0x0,0x0
	.DB  0x0,0x0,0x0,0x0,0x0,0x0,0x0,0x0
	.DB  0x0,0x0,0x0,0x0,0x0,0x0,0x0,0x0
	.DB  0x0,0x0,0x0,0x0,0x0,0x0,0x1F,0x3F
	.DB  0x3F,0x7F,0x7F,0x7F,0x7E,0x7C,0x30,0x0
	.DB  0x0,0x0,0x0,0x0,0x0,0x0,0x0,0x0
	.DB  0x0,0x0,0x0,0x0,0x0,0x0,0x0,0x0
	.DB  0x0,0x0,0x0,0x0,0x0,0x0,0x0,0x0
	.DB  0x0,0x0,0x0,0x0,0x0,0x0,0x0,0x0
	.DB  0x0,0x1,0x1,0x1,0x3,0x3,0x3,0x3
	.DB  0x3,0x3,0x3,0x3,0x3,0x0,0x0,0x0
	.DB  0x0,0x0,0x0,0x0,0x0,0x0,0x0,0x0
_mishaniya:
	.DB  0x0,0x0,0x0,0x0,0x0,0x0,0x0,0x0
	.DB  0x0,0x0,0x0,0x0,0x0,0x0,0x0,0x0
	.DB  0x0,0x0,0x0,0x0,0x0,0x0,0x0,0x0
	.DB  0x0,0x0,0x0,0x0,0x0,0x0,0x0,0x80
	.DB  0x80,0x80,0x80,0x80,0x0,0x0,0x80,0x80
	.DB  0x0,0x80,0x0,0x0,0x0,0x0,0x0,0x0
	.DB  0x0,0x0,0x0,0x0,0x0,0x80,0x80,0x0
	.DB  0x0,0x0,0x0,0x0,0x0,0x0,0x0,0x0
	.DB  0x0,0x0,0x0,0x0,0x0,0x0,0x0,0x0
	.DB  0x0,0x0,0x0,0x0,0x0,0x0,0x0,0x0
	.DB  0x0,0x0,0x0,0x0,0x0,0x0,0x0,0x0
	.DB  0x0,0x0,0x0,0x0,0x0,0x0,0x0,0x0
	.DB  0x0,0x0,0x0,0x0,0x0,0x0,0x0,0x0
	.DB  0x0,0x0,0x0,0x0,0x0,0x0,0x0,0x0
	.DB  0x0,0x0,0x0,0x0,0x0,0x0,0x0,0x0
	.DB  0x0,0x0,0x0,0x0,0x0,0x0,0x0,0x0
	.DB  0x0,0x0,0x0,0x0,0x0,0x0,0x0,0x0
	.DB  0x0,0x0,0x0,0x0,0x0,0x0,0x0,0x0
	.DB  0x0,0x0,0x0,0x0,0x0,0x0,0xC0,0xF0
	.DB  0xF8,0xFC,0xFC,0xFE,0xFF,0xFF,0xFF,0xFF
	.DB  0xFF,0xFF,0xFF,0x7F,0x7F,0xFF,0xFF,0xFF
	.DB  0xFF,0xFF,0xFF,0xFF,0xFF,0xFE,0xFE,0xFC
	.DB  0xFC,0xFC,0xF8,0xF0,0xE0,0xC1,0x81,0x0
	.DB  0x0,0x0,0x0,0x0,0x0,0x0,0x0,0x0
	.DB  0x0,0x0,0x0,0x0,0x0,0x0,0x0,0x0
	.DB  0x0,0x0,0x0,0x0,0x0,0x0,0x0,0x7F
	.DB  0x6,0x38,0x60,0x18,0x6,0x7F,0x0,0x0
	.DB  0x7F,0x30,0xC,0x2,0x7F,0x0,0x0,0x7F
	.DB  0x40,0x40,0x7F,0x40,0x40,0x7F,0x0,0x0
	.DB  0x60,0x1C,0x13,0x17,0x38,0x40,0x0,0x7F
	.DB  0x8,0x8,0x8,0x7F,0x0,0x46,0x39,0x9
	.DB  0x9,0x7F,0x0,0x0,0x0,0x0,0x0,0x0
	.DB  0x0,0x0,0x0,0x0,0x0,0x0,0x0,0x0
	.DB  0x0,0x0,0x0,0x0,0x0,0x0,0x0,0x0
	.DB  0x0,0x0,0x0,0xC0,0xFC,0xFF,0xFF,0x3F
	.DB  0x1F,0x1F,0xF,0x3F,0x3,0x3,0x3,0x1
	.DB  0x3,0x1,0x0,0x0,0x0,0x0,0x0,0x1
	.DB  0x3,0x3,0xF,0x1F,0x1F,0x3F,0x7F,0xFF
	.DB  0x7F,0xFF,0xFF,0xFF,0xFF,0xFF,0xFF,0xFC
	.DB  0xF0,0xC0,0x0,0x0,0x0,0x0,0x0,0x0
	.DB  0x0,0x0,0x0,0x0,0x0,0x8,0xA,0x2
	.DB  0x32,0x32,0x32,0x32,0x0,0x0,0x0,0x0
	.DB  0x0,0x0,0x0,0x0,0x0,0x0,0x0,0x0
	.DB  0x0,0x0,0x0,0x0,0x0,0x0,0x0,0x0
	.DB  0x0,0x0,0x0,0x0,0x0,0x0,0x0,0x0
	.DB  0x0,0x0,0x0,0x0,0x0,0x0,0x0,0x0
	.DB  0x0,0x0,0x0,0x0,0x0,0x0,0x0,0x0
	.DB  0x0,0x0,0x0,0x0,0x0,0x0,0x0,0x0
	.DB  0x0,0x0,0x0,0x0,0x0,0x80,0x0,0x0
	.DB  0x0,0x0,0x0,0x0,0x0,0x0,0x0,0x0
	.DB  0xC0,0x0,0xFF,0xFF,0x7F,0x67,0xF8,0x5C
	.DB  0xDC,0xCC,0xCC,0xFC,0xFC,0xF8,0xD8,0xD8
	.DB  0xC0,0x40,0x40,0x40,0x50,0x38,0x38,0xAC
	.DB  0xAC,0xFE,0xDE,0xDE,0xCE,0x9E,0x1E,0x1C
	.DB  0xD8,0x90,0xE0,0xE1,0xDF,0xFF,0xFF,0xFF
	.DB  0xFF,0xFF,0xFC,0x70,0xF0,0x70,0x60,0xE0
	.DB  0xE0,0xE0,0xE0,0xE0,0xE0,0xA0,0x60,0x60
	.DB  0xE0,0xE0,0xE0,0x40,0x0,0x0,0x0,0x0
	.DB  0x0,0x0,0x0,0x0,0x0,0x0,0x0,0x0
	.DB  0x0,0x0,0x0,0x0,0x0,0x0,0x1,0x1
	.DB  0x0,0x0,0x0,0x20,0x40,0x40,0x20,0x0
	.DB  0x0,0x0,0x0,0x0,0x0,0x0,0x0,0x0
	.DB  0x0,0x0,0x0,0x0,0x0,0x0,0x0,0x0
	.DB  0x0,0x0,0x0,0x0,0x0,0x0,0x0,0x0
	.DB  0x0,0x0,0x0,0x0,0xC0,0x40,0x80,0x80
	.DB  0x80,0xA4,0x88,0x88,0x88,0x81,0x91,0x95
	.DB  0x9A,0x90,0x50,0x6,0x61,0x43,0x13,0x6
	.DB  0x3,0x3,0x0,0x3,0x7,0x0,0x83,0x9
	.DB  0xE,0x0,0x0,0x0,0x7,0x0,0x83,0x5
	.DB  0x3,0x0,0x3,0x3,0x0,0x2,0x3,0x0
	.DB  0x0,0x0,0x1,0x1,0x87,0x7F,0xF,0x3F
	.DB  0x7F,0x1F,0xB,0x10,0x19,0x19,0x10,0x56
	.DB  0x4A,0x44,0x4C,0x4C,0x4E,0x6E,0x7C,0xBC
	.DB  0xB6,0xF9,0x9E,0x92,0x0,0x0,0x0,0x0
	.DB  0x0,0x0,0x0,0x0,0x0,0x0,0x0,0x0
	.DB  0x7F,0x1,0x1,0x1,0x0,0x7F,0x49,0x49
	.DB  0x49,0x0,0x7F,0x30,0xC,0x2,0x7F,0x0
	.DB  0x0,0x0,0x0,0x0,0x8,0x8,0x8,0x8
	.DB  0x18,0x30,0xE0,0x0,0x0,0x0,0x0,0x0
	.DB  0x0,0x0,0x0,0x0,0x0,0x0,0x0,0x0
	.DB  0x0,0x0,0x0,0xC,0x8,0x8,0x8,0x1A
	.DB  0x18,0x10,0x10,0x10,0x0,0x0,0x0,0x0
	.DB  0x0,0x0,0x80,0x80,0xD7,0xFC,0x7E,0x78
	.DB  0xC0,0x0,0x0,0x0,0x0,0x0,0x0,0xC
	.DB  0x8,0x8,0x0,0x0,0x14,0x18,0x8,0x0
	.DB  0x0,0x0,0x0,0x0,0x0,0x0,0x0,0x0
	.DB  0x0,0x0,0x80,0xF6,0xE2,0x21,0x10,0x1
	.DB  0x1,0x1,0x1,0x81,0x80,0x82,0x82,0x4A
	.DB  0x4A,0x42,0x41,0x60,0x62,0x22,0x22,0x22
	.DB  0x40,0x50,0x20,0xA2,0x0,0x0,0x0,0x0
	.DB  0x0,0x0,0x0,0x0,0x0,0x80,0x80,0x80
	.DB  0x80,0x80,0x80,0xC0,0x40,0x0,0x0,0x0
	.DB  0x0,0x0,0x0,0x0,0x0,0x0,0x0,0x0
	.DB  0x0,0x0,0x0,0x0,0x0,0x0,0x80,0xC0
	.DB  0x60,0x30,0xF,0x0,0x0,0x0,0x0,0x0
	.DB  0x0,0x0,0x0,0x0,0x0,0x0,0x0,0x0
	.DB  0x0,0x0,0x0,0x9C,0xBC,0xB0,0xB0,0xB1
	.DB  0xB9,0xB8,0xBC,0x9C,0x9C,0xCE,0xC6,0xE7
	.DB  0xEB,0xE7,0xF5,0xFA,0xFA,0xFD,0xFD,0xEE
	.DB  0xE6,0xE6,0xE0,0xE0,0x0,0x80,0x1,0x1
	.DB  0x1,0x1,0x1,0x9,0x1,0x3,0x3,0x3
	.DB  0x2,0x0,0x0,0x0,0x80,0x0,0x40,0x0
	.DB  0x0,0x80,0xFF,0x8F,0x3E,0x1E,0x2,0x7
	.DB  0x3,0x1,0x1,0x0,0x0,0x0,0x0,0x0
	.DB  0x0,0x0,0x0,0x0,0x0,0x0,0x0,0x0
	.DB  0x0,0x0,0x0,0x2,0x0,0x0,0x0,0x0
	.DB  0x0,0x1C,0x3E,0xFE,0xFF,0xBF,0x33,0x33
	.DB  0x31,0x21,0x21,0x20,0x20,0x20,0x20,0x20
	.DB  0x20,0x10,0x10,0x10,0x10,0x8,0x8,0x8
	.DB  0x8,0x4,0x4,0x2,0x2,0x1,0x1,0x0
	.DB  0x0,0x0,0x0,0x0,0x0,0x0,0x0,0x0
	.DB  0x0,0x0,0x0,0x0,0x0,0x0,0x0,0x0
	.DB  0x0,0x0,0x0,0x7,0x7,0x7,0x7,0x7
	.DB  0x7,0x7,0x7,0x7,0x7,0x7,0x7,0x7
	.DB  0x7,0x7,0x7,0x7,0x7,0x7,0x7,0x7
	.DB  0x7,0x7,0x7,0x7,0x0,0x0,0x1,0x2
	.DB  0x2,0x6,0x4,0x4,0x4,0x4,0x4,0x0
	.DB  0x0,0x2,0x0,0x1,0x0,0x0,0x0,0x0
	.DB  0x0,0x7,0x7,0x3,0x0,0x7,0x6,0x4
	.DB  0x4,0x0,0x0,0x0,0x0,0x0,0x0,0x0
	.DB  0x0,0x0,0x0,0x0,0x0,0x0,0x0,0x0
	.DB  0x0,0x0,0x0,0x0,0x0,0x0,0x0,0x0
	.DB  0x0,0x0,0x0,0x0,0x3,0x7,0xE,0xC
	.DB  0x0,0x0,0x0,0x0,0x0,0x0,0x0,0x0
	.DB  0x0,0x0,0x0,0x0,0x0,0x0,0x0,0x0
	.DB  0x0,0x0,0x0,0x0,0x0,0x0,0x0,0x0
	.DB  0x0,0x0,0x0,0x0,0x0,0x0,0x0,0x0
	.DB  0x0,0x0,0x0,0x0,0x0,0x0,0x0,0x0

;GLOBAL REGISTER VARIABLES INITIALIZATION
__REG_VARS:
	.DB  0x1,0x1,0x0,0x0
	.DB  0x0,0x0,0x0,0x0
	.DB  0x0,0x0

_0x2D:
	.DB  0xCF,0xEE,0xEA,0xE0,0x20,0xED,0xE5,0x20
	.DB  0xEF,0xF0,0xE8,0xF1,0xEB,0xE0,0xED,0xEE
	.DB  0x2E,0x2E,0x2E
_0x2E:
	.DB  0x10
_0x2F:
	.DB  0x3C,0x68,0x65,0x61,0x64,0x3E,0x3C,0x6C
	.DB  0x69,0x6E,0x6B,0x20,0x72,0x65,0x6C,0x3D
	.DB  0x27,0x69,0x63,0x6F,0x6E,0x27,0x68,0x72
	.DB  0x65,0x66,0x3D,0x27,0x64,0x61,0x74,0x61
	.DB  0x3A,0x69,0x6D,0x61,0x67,0x65,0x2F,0x62
	.DB  0x6D,0x70,0x3B,0x62,0x61,0x73,0x65,0x36
	.DB  0x34,0x2C,0x51,0x6B,0x31,0x2B,0x41,0x41
	.DB  0x41,0x41,0x41,0x41,0x41,0x41,0x41,0x44
	.DB  0x34,0x41,0x41,0x41,0x41,0x6F,0x41,0x41
	.DB  0x41,0x41,0x45,0x41,0x41,0x41,0x41,0x42
	.DB  0x41,0x41,0x41,0x41,0x41,0x42,0x41,0x41
	.DB  0x45,0x41,0x41,0x41,0x41,0x41,0x41,0x45
	.DB  0x41,0x41,0x41,0x41,0x42,0x30,0x45,0x67
	.DB  0x41,0x41,0x64,0x42,0x49,0x41,0x41,0x41
	.DB  0x41,0x41,0x41,0x41,0x41,0x41,0x41,0x41
	.DB  0x41,0x41,0x41,0x41,0x41,0x41,0x41,0x50
	.DB  0x2F,0x2F,0x2F,0x77,0x41,0x50,0x2F,0x41
	.DB  0x41,0x41,0x50,0x2F,0x34,0x41,0x41,0x47
	.DB  0x41,0x47,0x41,0x41,0x44,0x4B,0x71,0x77
	.DB  0x41,0x41,0x69,0x71,0x6B,0x41,0x41,0x4D
	.DB  0x41,0x44,0x41,0x41,0x44,0x2F,0x2F,0x77
	.DB  0x41,0x41,0x2F,0x6A,0x38,0x41,0x41,0x4D
	.DB  0x63,0x6A,0x41,0x41,0x43,0x37,0x58,0x51
	.DB  0x41,0x41,0x71,0x31,0x55,0x41,0x41,0x4C
	.DB  0x70,0x64,0x41,0x41,0x44,0x48,0x34,0x77
	.DB  0x41,0x41,0x50,0x2F,0x34,0x41,0x41,0x41
	.DB  0x71,0x71,0x41,0x41,0x41,0x41,0x41,0x41
	.DB  0x41,0x41,0x27,0x74,0x79,0x70,0x65,0x3D
	.DB  0x27,0x69,0x6D,0x61,0x67,0x65,0x2F,0x78
	.DB  0x2D,0x70,0x6E,0x67,0x27,0x2F,0x3E,0x3C
	.DB  0x2F,0x68,0x65,0x61,0x64,0x3E,0x3C,0x73
	.DB  0x74,0x79,0x6C,0x65,0x3E,0x68,0x31,0x2C
	.DB  0x68,0x32,0x2C,0x68,0x33,0x2C,0x69,0x6E
	.DB  0x70,0x75,0x74,0x2C,0x69,0x2C,0x73,0x65
	.DB  0x6C,0x65,0x63,0x74,0x7B,0x66,0x6F,0x6E
	.DB  0x74,0x2D,0x73,0x69,0x7A,0x65,0x3A,0x34
	.DB  0x30,0x70,0x78,0x7D,0x68,0x31,0x7B,0x63
	.DB  0x6F,0x6C,0x6F,0x72,0x3A,0x23,0x30,0x30
	.DB  0x30,0x30,0x66,0x30,0x7D,0x68,0x32,0x7B
	.DB  0x63,0x6F,0x6C,0x6F,0x72,0x3A,0x23,0x61
	.DB  0x30,0x61,0x30,0x30,0x30,0x7D,0x68,0x33
	.DB  0x7B,0x63,0x6F,0x6C,0x6F,0x72,0x3A,0x23
	.DB  0x66,0x30,0x66,0x30,0x30,0x30,0x7D,0x69
	.DB  0x7B,0x63,0x6F,0x6C,0x6F,0x72,0x3A,0x23
	.DB  0x39,0x39,0x30,0x30,0x37,0x33,0x7D,0x69
	.DB  0x6E,0x70,0x75,0x74,0x2C,0x73,0x65,0x6C
	.DB  0x65,0x63,0x74,0x7B,0x63,0x6F,0x6C,0x6F
	.DB  0x72,0x3A,0x23,0x30,0x30,0x39,0x39,0x39
	.DB  0x39,0x7D,0x3C,0x2F,0x73,0x74,0x79,0x6C
	.DB  0x65,0x3E,0x3C,0x68,0x31,0x3E,0x32,0x35
	.DB  0x36,0x30,0x4D,0x4F,0x44,0x55,0x4C,0x45
	.DB  0x20,0xC4,0xC5,0xCC,0xCE,0x20,0x3C,0x2F
	.DB  0x68,0x31,0x3E,0x3C,0x66,0x6F,0x72,0x6D
	.DB  0x3E,0x3C,0x69,0x3E,0x54,0x65,0x78,0x74
	.DB  0x20,0x74,0x6F,0x20,0x4F,0x4C,0x45,0x44
	.DB  0x20,0x64,0x69,0x73,0x70,0x6C,0x61,0x79
	.DB  0x3A,0x3C,0x2F,0x69,0x3E,0x3C,0x69,0x6E
	.DB  0x70,0x75,0x74,0x20,0x6E,0x61,0x6D,0x65
	.DB  0x3D,0x27,0x54,0x27,0x73,0x69,0x7A,0x65
	.DB  0x3D,0x27,0x32,0x30,0x27,0x6D,0x61,0x78
	.DB  0x6C,0x65,0x6E,0x67,0x74,0x68,0x3D,0x27
	.DB  0x32,0x30,0x27,0x3E,0x3C,0x69,0x6E,0x70
	.DB  0x75,0x74,0x20,0x74,0x79,0x70,0x65,0x3D
	.DB  0x27,0x73,0x75,0x62,0x6D,0x69,0x74,0x27
	.DB  0x76,0x61,0x6C,0x75,0x65,0x3D,0x27,0x53
	.DB  0x45,0x4E,0x44,0x27,0x3E,0x3C,0x2F,0x66
	.DB  0x6F,0x72,0x6D,0x3E,0x3C,0x66,0x6F,0x72
	.DB  0x6D,0x3E,0x3C,0x69,0x3E,0x52,0x47,0x42
	.DB  0x20,0x4C,0x45,0x44,0x20,0x4F,0x4E,0x2F
	.DB  0x4F,0x46,0x46,0x3A,0x3C,0x2F,0x69,0x3E
	.DB  0x3C,0x69,0x6E,0x70,0x75,0x74,0x20,0x74
	.DB  0x79,0x70,0x65,0x3D,0x27,0x73,0x75,0x62
	.DB  0x6D,0x69,0x74,0x27,0x6E,0x61,0x6D,0x65
	.DB  0x3D,0x27,0x4C,0x27,0x76,0x61,0x6C,0x75
	.DB  0x65,0x3D,0x27,0x4C,0x45,0x44,0x27,0x3E
	.DB  0x3C,0x2F,0x66,0x6F,0x72,0x6D,0x3E
_0x30:
	.DB  0x3C,0x68,0x33,0x3E,0x54,0x45,0x58,0x54
	.DB  0x20,0x53,0x48,0x4F,0x55,0x4C,0x44,0x20
	.DB  0x47,0x4F,0x20,0x54,0x4F,0x20,0x4F,0x4C
	.DB  0x45,0x44,0x20,0x20,0x20,0x3C,0x2F,0x68
	.DB  0x33,0x3E,0x0,0x3C,0x68,0x33,0x3E,0x55
	.DB  0x4E,0x42,0x45,0x4C,0x49,0x45,0x56,0x41
	.DB  0x42,0x4C,0x45,0x20,0x20,0x53,0x55,0x43
	.DB  0x43,0x45,0x53,0x53,0x20,0x21,0x21,0x21
	.DB  0x3C,0x2F,0x68,0x33,0x3E,0x0,0x3C,0x68
	.DB  0x33,0x3E,0x20,0x59,0x45,0x54,0x20,0x41
	.DB  0x4E,0x4F,0x54,0x48,0x45,0x52,0x20,0x53
	.DB  0x55,0x43,0x43,0x45,0x53,0x53,0x21,0x20
	.DB  0x20,0x20,0x20,0x3C,0x2F,0x68,0x33,0x3E
	.DB  0x0,0x3C,0x68,0x33,0x3E,0x57,0x4F,0x57
	.DB  0x21,0x20,0x53,0x4F,0x20,0x4D,0x55,0x43
	.DB  0x48,0x20,0x53,0x55,0x43,0x43,0x45,0x53
	.DB  0x53,0x2E,0x2E,0x2E,0x20,0x20,0x3C,0x2F
	.DB  0x68,0x33,0x3E,0x0,0x3C,0x68,0x33,0x3E
	.DB  0x52,0x45,0x41,0x4C,0x4C,0x59,0x3F,0x20
	.DB  0x41,0x52,0x45,0x4E,0x27,0x54,0x20,0x59
	.DB  0x4F,0x55,0x20,0x54,0x49,0x52,0x45,0x44
	.DB  0x3F,0x3C,0x2F,0x68,0x33,0x3E,0x0,0x3C
	.DB  0x68,0x33,0x3E,0x59,0x4F,0x55,0x20,0x41
	.DB  0x52,0x45,0x20,0x54,0x48,0x45,0x20,0x4C
	.DB  0x45,0x44,0x20,0x52,0x55,0x4C,0x45,0x52
	.DB  0x21,0x21,0x21,0x20,0x3C,0x2F,0x68,0x33
	.DB  0x3E,0x0,0x3C,0x68,0x33,0x3E,0x53,0x54
	.DB  0x49,0x4C,0x4C,0x20,0x46,0x55,0x4E,0x2C
	.DB  0x20,0x48,0x41,0x3F,0x20,0x20,0x20,0x20
	.DB  0x20,0x20,0x20,0x20,0x20,0x20,0x20,0x3C
	.DB  0x2F,0x68,0x33,0x3E
_0x0:
	.DB  0x41,0x54,0x2B,0x52,0x53,0x54,0x0,0x41
	.DB  0x54,0x45,0x30,0x0,0x41,0x54,0x2B,0x43
	.DB  0x49,0x50,0x41,0x50,0x5F,0x43,0x55,0x52
	.DB  0x3D,0x22,0x31,0x39,0x32,0x2E,0x31,0x36
	.DB  0x38,0x2E,0x30,0x2E,0x31,0x30,0x30,0x22
	.DB  0x0,0x41,0x54,0x2B,0x43,0x57,0x53,0x41
	.DB  0x50,0x5F,0x43,0x55,0x52,0x3D,0x22,0x32
	.DB  0x35,0x36,0x30,0x44,0x45,0x4D,0x4F,0x22
	.DB  0x2C,0x22,0x22,0x2C,0x31,0x2C,0x30,0x2C
	.DB  0x31,0x2C,0x30,0x0,0x41,0x54,0x2B,0x43
	.DB  0x57,0x4D,0x4F,0x44,0x45,0x3D,0x32,0x0
	.DB  0x41,0x54,0x2B,0x43,0x49,0x50,0x4D,0x55
	.DB  0x58,0x3D,0x31,0x0,0x41,0x54,0x2B,0x43
	.DB  0x49,0x50,0x53,0x45,0x52,0x56,0x45,0x52
	.DB  0x3D,0x31,0x2C,0x38,0x30,0x0,0x41,0x54
	.DB  0x2B,0x43,0x49,0x50,0x43,0x4C,0x4F,0x53
	.DB  0x45,0x3D,0x0,0x41,0x54,0x2B,0x43,0x49
	.DB  0x50,0x53,0x45,0x4E,0x44,0x3D,0x0,0x41
	.DB  0x54,0x2B,0x55,0x41,0x52,0x54,0x5F,0x43
	.DB  0x55,0x52,0x3D,0x39,0x36,0x30,0x30,0x2C
	.DB  0x38,0x2C,0x31,0x2C,0x30,0x2C,0x30,0x0
	.DB  0x41,0x54,0x2B,0x55,0x41,0x52,0x54,0x5F
	.DB  0x43,0x55,0x52,0x3D,0x31,0x31,0x35,0x32
	.DB  0x30,0x30,0x2C,0x38,0x2C,0x31,0x2C,0x30
	.DB  0x2C,0x30,0x0,0x57,0x69,0x46,0x69,0x20
	.DB  0xD2,0xC5,0xCA,0xD1,0xD2,0x3A,0x0,0x45
	.DB  0x0,0x4E,0x0,0x43,0x0
_0x2000003:
	.DB  0x7

__GLOBAL_INI_TBL:
	.DW  0x0A
	.DW  0x05
	.DW  __REG_VARS*2

	.DW  0x13
	.DW  _OLED_text
	.DW  _0x2D*2

	.DW  0x01
	.DW  _WiFi_reset_no_activity_counter
	.DW  _0x2E*2

	.DW  0x25F
	.DW  _HTML_main_code
	.DW  _0x2F*2

	.DW  0xF4
	.DW  _HTML_info_code
	.DW  _0x30*2

	.DW  0x07
	.DW  _0x9C
	.DW  _0x0*2

	.DW  0x05
	.DW  _0x9C+7
	.DW  _0x0*2+7

	.DW  0x1D
	.DW  _0x9C+12
	.DW  _0x0*2+12

	.DW  0x23
	.DW  _0x9C+41
	.DW  _0x0*2+41

	.DW  0x0C
	.DW  _0x9C+76
	.DW  _0x0*2+76

	.DW  0x0C
	.DW  _0x9C+88
	.DW  _0x0*2+88

	.DW  0x12
	.DW  _0x9C+100
	.DW  _0x0*2+100

	.DW  0x0D
	.DW  _0x9C+118
	.DW  _0x0*2+118

	.DW  0x0C
	.DW  _0x9C+131
	.DW  _0x0*2+131

	.DW  0x19
	.DW  _0x9C+143
	.DW  _0x0*2+143

	.DW  0x1B
	.DW  _0x9C+168
	.DW  _0x0*2+168

	.DW  0x0C
	.DW  _0xAE
	.DW  _0x0*2+195

	.DW  0x02
	.DW  _0xAE+12
	.DW  _0x0*2+207

	.DW  0x02
	.DW  _0xAE+14
	.DW  _0x0*2+209

	.DW  0x02
	.DW  _0xAE+16
	.DW  _0x0*2+211

	.DW  0x02
	.DW  _0xAE+18
	.DW  _0x0*2+207

	.DW  0x02
	.DW  _0xAE+20
	.DW  _0x0*2+209

	.DW  0x02
	.DW  _0xAE+22
	.DW  _0x0*2+211

	.DW  0x01
	.DW  _twi_result
	.DW  _0x2000003*2

_0xFFFFFFFF:
	.DW  0

#define __GLOBAL_INI_TBL_PRESENT 1

__RESET:
	CLI
	CLR  R30
	OUT  EECR,R30

;INTERRUPT VECTORS ARE PLACED
;AT THE START OF FLASH
	LDI  R31,1
	OUT  MCUCR,R31
	OUT  MCUCR,R30
	STS  XMCRA,R30
	STS  XMCRB,R30

;CLEAR R2-R14
	LDI  R24,(14-2)+1
	LDI  R26,2
	CLR  R27
__CLEAR_REG:
	ST   X+,R30
	DEC  R24
	BRNE __CLEAR_REG

;CLEAR SRAM
	LDI  R24,LOW(__CLEAR_SRAM_SIZE)
	LDI  R25,HIGH(__CLEAR_SRAM_SIZE)
	LDI  R26,LOW(__SRAM_START)
	LDI  R27,HIGH(__SRAM_START)
__CLEAR_SRAM:
	ST   X+,R30
	SBIW R24,1
	BRNE __CLEAR_SRAM

;GLOBAL VARIABLES INITIALIZATION
	LDI  R30,LOW(__GLOBAL_INI_TBL*2)
	LDI  R31,HIGH(__GLOBAL_INI_TBL*2)
__GLOBAL_INI_NEXT:
	LPM  R24,Z+
	LPM  R25,Z+
	SBIW R24,0
	BREQ __GLOBAL_INI_END
	LPM  R26,Z+
	LPM  R27,Z+
	LPM  R0,Z+
	LPM  R1,Z+
	MOVW R22,R30
	MOVW R30,R0
__GLOBAL_INI_LOOP:
	LPM  R0,Z+
	ST   X+,R0
	SBIW R24,1
	BRNE __GLOBAL_INI_LOOP
	MOVW R30,R22
	RJMP __GLOBAL_INI_NEXT
__GLOBAL_INI_END:

	OUT  RAMPZ,R24

	OUT  EIND,R24

;GPIOR0 INITIALIZATION
	LDI  R30,__GPIOR0_INIT
	OUT  GPIOR0,R30

;HARDWARE STACK POINTER INITIALIZATION
	LDI  R30,LOW(__SRAM_END-__HEAP_SIZE)
	OUT  SPL,R30
	LDI  R30,HIGH(__SRAM_END-__HEAP_SIZE)
	OUT  SPH,R30

;DATA STACK POINTER INITIALIZATION
	LDI  R28,LOW(__SRAM_START+__DSTACK_SIZE)
	LDI  R29,HIGH(__SRAM_START+__DSTACK_SIZE)

	JMP  _main

	.ESEG
	.ORG 0

	.DSEG
	.ORG 0xA00

	.CSEG
;/*******************************************************
;      atmega2560 c OLED, ESP-12  jdy-40
;CVAVR
;11.0592 MHz  Fuse bits   (1) ( SPIEN(0)( CodeVision SPIEN  ,   ))
;
;      ,
;     RGB LED.
;   - RGB LED.
;   Soft AP    
;  (english)    - RGB LED.
;.
;     WiFi 2560DEMO (      )
;      192.168.0.100    HTML .
;
;     'T'  jdy-40(  9600),
;      JDY-40   UART-USB...
;*******************************************************/
;
;// !!!!!!!!!!!!!!!!!!!!!
;
;#include <mega2560.h>
	#ifndef __SLEEP_DEFINED__
	#define __SLEEP_DEFINED__
	.EQU __se_bit=0x01
	.EQU __sm_mask=0x0E
	.EQU __sm_powerdown=0x04
	.EQU __sm_powersave=0x06
	.EQU __sm_standby=0x0C
	.EQU __sm_ext_standby=0x0E
	.EQU __sm_adc_noise_red=0x02
	.SET power_ctrl_reg=smcr
	#endif
;#include <delay.h>
;
;#define I2C_hard
;
;#include <twi.h>
;
;#include <fonts_pictures_oled.c>
;
;flash unsigned char arrow[10]={0b11111111,0b11111111,0b01111110,0b01111110,0b00111100,0b00111100,0b00011000,0b00011000,0 ...
;
;
;flash unsigned char LCD_Buffer[0x0500] =
;{
;0x00, 0x00, 0x00, 0x00, 0x00,// 00
;0x00, 0x00, 0x5F, 0x00, 0x00,// 01
;0x00, 0x07, 0x00, 0x07, 0x00,// 02
;0x14, 0x7F, 0x14, 0x7F, 0x14,// 03
;0x24, 0x2A, 0x7F, 0x2A, 0x12,// 04
;0x23, 0x13, 0x08, 0x64, 0x62,// 05
;0x36, 0x49, 0x55, 0x22, 0x50,// 06
;0x00, 0x05, 0x03, 0x00, 0x00,// 07
;0x00, 0x1C, 0x22, 0x41, 0x00,// 08
;0x00, 0x41, 0x22, 0x1C, 0x00,// 09
;0x14, 0x08, 0x3E, 0x08, 0x14,// 0A
;0x08, 0x08, 0x3E, 0x08, 0x08,// 0B
;0x00, 0x50, 0x30, 0x00, 0x00,// 0C
;0x08, 0x08, 0x08, 0x08, 0x08,// 0D
;0x00, 0x60, 0x60, 0x00, 0x00,// 0E
;0x20, 0x10, 0x08, 0x04, 0x02,// 0F
;0x00, 0x00, 0x00, 0x00, 0x00,// 10
;0x00, 0x00, 0x5F, 0x00, 0x00,// 11
;0x00, 0x07, 0x00, 0x07, 0x00,// 12
;0x14, 0x7F, 0x14, 0x7F, 0x14,// 13
;0x24, 0x2A, 0x7F, 0x2A, 0x12,// 14
;0x23, 0x13, 0x08, 0x64, 0x62,// 15
;0x36, 0x49, 0x55, 0x22, 0x50,// 16
;0x00, 0x05, 0x03, 0x00, 0x00,// 17
;0x00, 0x1C, 0x22, 0x41, 0x00,// 18
;0x00, 0x41, 0x22, 0x1C, 0x00,// 19
;0x14, 0x08, 0x3E, 0x08, 0x14,// 1A
;0x08, 0x08, 0x3E, 0x08, 0x08,// 1B
;0x00, 0x50, 0x30, 0x00, 0x00,// 1C
;0x08, 0x08, 0x08, 0x08, 0x08,// 1D
;0x00, 0x60, 0x60, 0x00, 0x00,// 1E
;0x20, 0x10, 0x08, 0x04, 0x02,// 1F
;0x00, 0x00, 0x00, 0x00, 0x00,// 20 space
;0x00, 0x00, 0x5F, 0x00, 0x00,// 21 !
;0x00, 0x07, 0x00, 0x07, 0x00,// 22 "
;0x14, 0x7F, 0x14, 0x7F, 0x14,// 23 #
;0x24, 0x2A, 0x7F, 0x2A, 0x12,// 24 $
;0x23, 0x13, 0x08, 0x64, 0x62,// 25 %
;0x36, 0x49, 0x55, 0x22, 0x50,// 26 &
;0x00, 0x05, 0x03, 0x00, 0x00,// 27 '
;0x00, 0x1C, 0x22, 0x41, 0x00,// 28 (
;0x00, 0x41, 0x22, 0x1C, 0x00,// 29 )
;0x14, 0x08, 0x3E, 0x08, 0x14,// 2a *
;0x08, 0x08, 0x3E, 0x08, 0x08,// 2b +
;0x00, 0x50, 0x30, 0x00, 0x00,// 2c ,
;0x08, 0x08, 0x08, 0x08, 0x08,// 2d -
;0x00, 0x60, 0x60, 0x00, 0x00,// 2e .
;0x20, 0x10, 0x08, 0x04, 0x02,// 2f /
;0x3E, 0x51, 0x49, 0x45, 0x3E,// 30 0
;0x00, 0x42, 0x7F, 0x40, 0x00,// 31 1
;0x42, 0x61, 0x51, 0x49, 0x46,// 32 2
;0x21, 0x41, 0x45, 0x4B, 0x31,// 33 3
;0x18, 0x14, 0x12, 0x7F, 0x10,// 34 4
;0x27, 0x45, 0x45, 0x45, 0x39,// 35 5
;0x3C, 0x4A, 0x49, 0x49, 0x30,// 36 6
;0x01, 0x71, 0x09, 0x05, 0x03,// 37 7
;0x36, 0x49, 0x49, 0x49, 0x36,// 38 8
;0x06, 0x49, 0x49, 0x29, 0x1E,// 39 9
;0x00, 0x36, 0x36, 0x00, 0x00,// 3a :
;0x00, 0x56, 0x36, 0x00, 0x00,// 3b ;
;0x08, 0x14, 0x22, 0x41, 0x00,// 3c <
;0x14, 0x14, 0x14, 0x14, 0x14,// 3d =
;0x00, 0x41, 0x22, 0x14, 0x08,// 3e >
;0x02, 0x01, 0x51, 0x09, 0x06,// 3f ?
;0x32, 0x49, 0x79, 0x41, 0x3E,// 40 @
;0x7E, 0x11, 0x11, 0x11, 0x7E,// 41 A
;0x7F, 0x49, 0x49, 0x49, 0x36,// 42 B
;0x3E, 0x41, 0x41, 0x41, 0x22,// 43 C
;0x7F, 0x41, 0x41, 0x22, 0x1C,// 44 D
;0x7F, 0x49, 0x49, 0x49, 0x41,// 45 E
;0x7F, 0x09, 0x09, 0x09, 0x01,// 46 F
;0x3E, 0x41, 0x49, 0x49, 0x7A,// 47 G
;0x7F, 0x08, 0x08, 0x08, 0x7F,// 48 H
;0x00, 0x41, 0x7F, 0x41, 0x00,// 49 I
;0x20, 0x40, 0x41, 0x3F, 0x01,// 4a J
;0x7F, 0x08, 0x14, 0x22, 0x41,// 4b K
;0x7F, 0x40, 0x40, 0x40, 0x40,// 4c L
;0x7F, 0x02, 0x0C, 0x02, 0x7F,// 4d M
;0x7F, 0x04, 0x08, 0x10, 0x7F,// 4e N
;0x3E, 0x41, 0x41, 0x41, 0x3E,// 4f O
;0x7F, 0x09, 0x09, 0x09, 0x06,// 50 P
;0x3E, 0x41, 0x51, 0x21, 0x5E,// 51 Q
;0x7F, 0x09, 0x19, 0x29, 0x46,// 52 R
;0x46, 0x49, 0x49, 0x49, 0x31,// 53 S
;0x01, 0x01, 0x7F, 0x01, 0x01,// 54 T
;0x3F, 0x40, 0x40, 0x40, 0x3F,// 55 U
;0x1F, 0x20, 0x40, 0x20, 0x1F,// 56 V
;0x3F, 0x40, 0x38, 0x40, 0x3F,// 57 W
;0x63, 0x14, 0x08, 0x14, 0x63,// 58 X
;0x07, 0x08, 0x70, 0x08, 0x07,// 59 Y
;0x61, 0x51, 0x49, 0x45, 0x43,// 5a Z
;0x00, 0x7F, 0x41, 0x41, 0x00,// 5b [
;0x02, 0x04, 0x08, 0x10, 0x20,// 5c Yen Currency Sign
;0x00, 0x41, 0x41, 0x7F, 0x00,// 5d ]
;0x04, 0x02, 0x01, 0x02, 0x04,// 5e ^
;0x40, 0x40, 0x40, 0x40, 0x40,// 5f _
;0x00, 0x01, 0x02, 0x04, 0x00,// 60 `
;0x20, 0x54, 0x54, 0x54, 0x78,// 61 a
;0x7F, 0x48, 0x44, 0x44, 0x38,// 62 b
;0x38, 0x44, 0x44, 0x44, 0x20,// 63 c
;0x38, 0x44, 0x44, 0x48, 0x7F,// 64 d
;0x38, 0x54, 0x54, 0x54, 0x18,// 65 e
;0x08, 0x7E, 0x09, 0x01, 0x02,// 66 f
;0x0C, 0x52, 0x52, 0x52, 0x3E,// 67 g
;0x7F, 0x08, 0x04, 0x04, 0x78,// 68 h
;0x00, 0x44, 0x7D, 0x40, 0x00,// 69 i
;0x20, 0x40, 0x44, 0x3D, 0x00,// 6a j
;0x7F, 0x10, 0x28, 0x44, 0x00,// 6b k
;0x00, 0x41, 0x7F, 0x40, 0x00,// 6c l
;0x7C, 0x04, 0x18, 0x04, 0x78,// 6d m
;0x7C, 0x08, 0x04, 0x04, 0x78,// 6e n
;0x38, 0x44, 0x44, 0x44, 0x38,// 6f o
;0x7C, 0x14, 0x14, 0x14, 0x08,// 70 p
;0x08, 0x14, 0x14, 0x18, 0x7C,// 71 q
;0x7C, 0x08, 0x04, 0x04, 0x08,// 72 r
;0x08, 0x54, 0x54, 0x54, 0x20,// 73 s
;0x04, 0x3F, 0x44, 0x40, 0x20,// 74 t
;0x3C, 0x40, 0x40, 0x20, 0x7C,// 75 u
;0x1C, 0x20, 0x40, 0x20, 0x1C,// 76 v
;0x3C, 0x40, 0x30, 0x40, 0x3C,// 77 w
;0x44, 0x28, 0x10, 0x28, 0x44,// 78 x
;0x0C, 0x50, 0x50, 0x50, 0x3C,// 79 y
;0x44, 0x64, 0x54, 0x4C, 0x44,// 7a z
;0x00, 0x08, 0x36, 0x41, 0x00,// 7b <
;0x00, 0x00, 0x7F, 0x00, 0x00,// 7c |
;0x00, 0x41, 0x36, 0x08, 0x00,// 7d >
;0x10, 0x08, 0x08, 0x10, 0x08,// 7e Right Arrow ->
;0x78, 0x46, 0x41, 0x46, 0x78,// 7f Left Arrow <-
;0x00, 0x00, 0x00, 0x00, 0x00,// 80
;0x00, 0x00, 0x5F, 0x00, 0x00,// 81
;0x00, 0x07, 0x00, 0x07, 0x00,// 82
;0x14, 0x7F, 0x14, 0x7F, 0x14,// 83
;0x24, 0x2A, 0x7F, 0x2A, 0x12,// 84
;0x23, 0x13, 0x08, 0x64, 0x62,// 85
;0x36, 0x49, 0x55, 0x22, 0x50,// 86
;0x00, 0x05, 0x03, 0x00, 0x00,// 87
;0x00, 0x1C, 0x22, 0x41, 0x00,// 88
;0x00, 0x41, 0x22, 0x1C, 0x00,// 89
;0x14, 0x08, 0x3E, 0x08, 0x14,// 8A
;0x08, 0x08, 0x3E, 0x08, 0x08,// 8B
;0x00, 0x50, 0x30, 0x00, 0x00,// 8C
;0x08, 0x08, 0x08, 0x08, 0x08,// 8D
;0x00, 0x60, 0x60, 0x00, 0x00,// 8E
;0x20, 0x10, 0x08, 0x04, 0x02,// 8F
;0x00, 0x00, 0x00, 0x00, 0x00,// 90
;0x00, 0x00, 0x5F, 0x00, 0x00,// 91
;0x00, 0x07, 0x00, 0x07, 0x00,// 92
;0x14, 0x7F, 0x14, 0x7F, 0x14,// 93
;0x24, 0x2A, 0x7F, 0x2A, 0x12,// 94
;0x23, 0x13, 0x08, 0x64, 0x62,// 95
;0x36, 0x49, 0x55, 0x22, 0x50,// 96
;0x00, 0x05, 0x03, 0x00, 0x00,// 97
;0x00, 0x1C, 0x22, 0x41, 0x00,// 98
;0x00, 0x41, 0x22, 0x1C, 0x00,// 99
;0x14, 0x08, 0x3E, 0x08, 0x14,// 9A
;0x08, 0x08, 0x3E, 0x08, 0x08,// 9B
;0x00, 0x50, 0x30, 0x00, 0x00,// 9C
;0x08, 0x08, 0x08, 0x08, 0x08,// 9D
;0x00, 0x60, 0x60, 0x00, 0x00,// 9E
;0x20, 0x10, 0x08, 0x04, 0x02,// 9F
;0x00, 0x00, 0x00, 0x00, 0x00,// A0
;0x00, 0x00, 0x5F, 0x00, 0x00,// A1
;0x00, 0x07, 0x00, 0x07, 0x00,// A2
;0x14, 0x7F, 0x14, 0x7F, 0x14,// A3
;0x24, 0x2A, 0x7F, 0x2A, 0x12,// A4
;0x23, 0x13, 0x08, 0x64, 0x62,// A5
;0x36, 0x49, 0x55, 0x22, 0x50,// A6
;0x00, 0x05, 0x03, 0x00, 0x00,// A7
;0x00, 0x1C, 0x22, 0x41, 0x00,// A8
;0x00, 0x41, 0x22, 0x1C, 0x00,// A9
;0x14, 0x08, 0x3E, 0x08, 0x14,// AA
;0x08, 0x08, 0x3E, 0x08, 0x08,// AB
;0x00, 0x50, 0x30, 0x00, 0x00,// AC
;0x08, 0x08, 0x08, 0x08, 0x08,// AD
;0x00, 0x60, 0x60, 0x00, 0x00,// AE
;0x20, 0x10, 0x08, 0x04, 0x02,// AF
;//0x3E, 0x51, 0x49, 0x45, 0x3E,// B0
;0x00, 0x06, 0x09, 0x09, 0x06,
;0x00, 0x42, 0x7F, 0x40, 0x00,// B1
;0x42, 0x61, 0x51, 0x49, 0x46,// B2
;0x21, 0x41, 0x45, 0x4B, 0x31,// B3
;0x18, 0x14, 0x12, 0x7F, 0x10,// B4
;0x27, 0x45, 0x45, 0x45, 0x39,// B5
;0x3C, 0x4A, 0x49, 0x49, 0x30,// B6
;0x01, 0x71, 0x09, 0x05, 0x03,// B7
;0x36, 0x49, 0x49, 0x49, 0x36,// B8
;0x06, 0x49, 0x49, 0x29, 0x1E,// B9
;0x00, 0x36, 0x36, 0x00, 0x00,// BA
;0x00, 0x56, 0x36, 0x00, 0x00,// BB
;0x08, 0x14, 0x22, 0x41, 0x00,// BC
;0x14, 0x14, 0x14, 0x14, 0x14,// BD
;0x00, 0x41, 0x22, 0x14, 0x08,// BE
;0x02, 0x01, 0x51, 0x09, 0x06,// BF
;0x7E, 0x11, 0x11, 0x11, 0x7E,// C0 
;0x7F, 0x49, 0x49, 0x49, 0x31,// C1 
;0x7F, 0x49, 0x49, 0x49, 0x36,// C2 
;0x7F, 0x01, 0x01, 0x01, 0x03,// C3 
;0x60, 0x3E, 0x21, 0x21, 0x7F,// C4 
;0x7F, 0x49, 0x49, 0x49, 0x41,// C5 
;0x77, 0x08, 0x7F, 0x08, 0x77,// C6 
;0x22, 0x41, 0x49, 0x49, 0x36,// C7 
;0x7F, 0x10, 0x08, 0x04, 0x7F,// C8 
;0x7F, 0x10, 0x09, 0x04, 0x7F,// C9 
;0x7F, 0x08, 0x14, 0x22, 0x41,// CA 
;0x40, 0x3E, 0x01, 0x01, 0x7F,// CB 
;0x7F, 0x02, 0x0C, 0x02, 0x7F,// CC 
;0x7F, 0x08, 0x08, 0x08, 0x7F,// CD 
;0x3E, 0x41, 0x41, 0x41, 0x3E,// CE 
;0x7F, 0x01, 0x01, 0x01, 0x7F,// CF 
;0x7F, 0x09, 0x09, 0x09, 0x06,// D0 
;0x3E, 0x41, 0x41, 0x41, 0x22,// D1 
;0x01, 0x01, 0x7F, 0x01, 0x01,// D2 
;0x27, 0x48, 0x48, 0x48, 0x3F,// D3 
;0x1E, 0x21, 0x7F, 0x21, 0x1E,// D4 
;0x63, 0x14, 0x08, 0x14, 0x63,// D5 
;0x3F, 0x20, 0x20, 0x3F, 0x60,// D6 
;0x07, 0x08, 0x08, 0x08, 0x7F,// D7 
;0x7F, 0x40, 0x7F, 0x40, 0x7F,// D8 
;0x3F, 0x20, 0x3F, 0x20, 0x7F,// D9 
;0x01, 0x7F, 0x48, 0x48, 0x30,// DA 
;0x7F, 0x48, 0x30, 0x00, 0x7F,// DB 
;0x00, 0x7F, 0x48, 0x48, 0x30,// DC 
;0x22, 0x41, 0x49, 0x49, 0x3E,// DD 
;0x7F, 0x08, 0x3E, 0x41, 0x3E,// DE 
;0x46, 0x29, 0x19, 0x09, 0x7F,// DF 
;0x20, 0x54, 0x54, 0x54, 0x78,// E0 
;0x3C, 0x4A, 0x4A, 0x4A, 0x30,// E1 
;0x7C, 0x54, 0x54, 0x28, 0x00,// E2 
;0x7C, 0x04, 0x04, 0x04, 0x04,// E3 
;0x60, 0x38, 0x24, 0x24, 0x7C,// E4 
;0x38, 0x54, 0x54, 0x54, 0x18,// E5 
;0x6C, 0x10, 0x7C, 0x10, 0x6C,// E6 
;0x00, 0x44, 0x54, 0x54, 0x28,// E7 
;0x7C, 0x20, 0x10, 0x08, 0x7C,// E8 
;0x7C, 0x21, 0x12, 0x09, 0x7C,// E9 
;0x7C, 0x10, 0x28, 0x44, 0x00,// EA 
;0x40, 0x38, 0x04, 0x04, 0x7C,// EB 
;0x7C, 0x08, 0x10, 0x08, 0x7C,// EC 
;0x7C, 0x10, 0x10, 0x10, 0x7C,// ED 
;0x38, 0x44, 0x44, 0x44, 0x38,// EE 
;0x7C, 0x04, 0x04, 0x04, 0x7C,// EF 
;0x7C, 0x14, 0x14, 0x14, 0x08,// F0 
;0x38, 0x44, 0x44, 0x44, 0x00,// F1 
;0x04, 0x04, 0x7C, 0x04, 0x04,// F2 
;0x0C, 0x50, 0x50, 0x50, 0x3C,// F3 
;0x08, 0x14, 0x7C, 0x14, 0x08,// F4 
;0x44, 0x28, 0x10, 0x28, 0x44,// F5 
;0x3C, 0x20, 0x20, 0x3C, 0x60,// F6 
;0x0C, 0x10, 0x10, 0x10, 0x7C,// F7 
;0x7C, 0x40, 0x7C, 0x40, 0x7C,// F8 
;0x3C, 0x20, 0x3C, 0x20, 0x7C,// F9 
;0x04, 0x7C, 0x50, 0x50, 0x20,// FA 
;0x7C, 0x50, 0x20, 0x00, 0x7C,// FB 
;0x00, 0x7C, 0x50, 0x50, 0x20,// FC 
;0x28, 0x44, 0x54, 0x54, 0x38,// FD 
;0x7C, 0x10, 0x38, 0x44, 0x38,// FE 
;0x48, 0x54, 0x34, 0x14, 0x7C // FF 
;};
;
;flash unsigned char BigNum[15][96] =
;{ //0
;{0x00, 0x00, 0x00, 0xC0, 0xE0, 0xF0, 0xF0, 0xF0, 0xF0, 0xF0, 0xF0, 0xF0, 0xF0, 0xF0, 0xF0, 0xF0,
;0xF0, 0xF0, 0xF0, 0xE0, 0xC0, 0x00, 0x00, 0x00, 0x00, 0x00, 0x00, 0xFF, 0xFF, 0xFF, 0xFF, 0x01,
;0x00, 0x00, 0x00, 0x00, 0x00, 0x00, 0x00, 0x00, 0x01, 0xFF, 0xFF, 0xFF, 0xFF, 0x00, 0x00, 0x00,
;0x00, 0x00, 0x00, 0xFF, 0xFF, 0xFF, 0xFF, 0x80, 0x00, 0x00, 0x00, 0x00, 0x00, 0x00, 0x00, 0x00,
;0x80, 0xFF, 0xFF, 0xFF, 0xFF, 0x00, 0x00, 0x00, 0x00, 0x00, 0x00, 0x03, 0x07, 0x0F, 0x0F, 0x0F,
;0x0F, 0x0F, 0x0F, 0x0F, 0x0F, 0x0F, 0x0F, 0x0F, 0x0F, 0x0F, 0x0F, 0x07, 0x03, 0x00, 0x00, 0x00},
; //1
;{0x00, 0x00, 0x00, 0x00, 0x00, 0x00, 0x00, 0x00, 0x00, 0x00, 0x00, 0x00, 0x00, 0x00, 0xE0, 0xF0,
;0xF0, 0xE0, 0x00, 0x00, 0x00, 0x00, 0x00, 0x00, 0x00, 0x00, 0x00, 0x00, 0x00, 0x00, 0x00, 0x00,
;0x00, 0x00, 0x00, 0x00, 0x00, 0x00, 0xFF, 0xFF, 0xFF, 0xFF, 0x00, 0x00, 0x00, 0x00, 0x00, 0x00,
;0x00, 0x00, 0x00, 0x00, 0x00, 0x00, 0x00, 0x00, 0x00, 0x00, 0x00, 0x00, 0x00, 0x00, 0xFF, 0xFF,
;0xFF, 0xFF, 0x00, 0x00, 0x00, 0x00, 0x00, 0x00, 0x00, 0x00, 0x00, 0x00, 0x00, 0x00, 0x00, 0x00,
;0x00, 0x00, 0x00, 0x00, 0x00, 0x00, 0x03, 0x07, 0x07, 0x03, 0x00, 0x00, 0x00, 0x00, 0x00, 0x00},
; //2
;{0x00, 0x00, 0x00, 0xE0, 0xF0, 0xF0, 0xF0, 0xF0, 0xF0, 0xF0, 0xF0, 0xF0, 0xF0, 0xF0, 0xF0, 0xF0,
;0xF0, 0xF0, 0xF0, 0xE0, 0x00, 0x00, 0x00, 0x00, 0x00, 0x00, 0x00, 0x81, 0xC1, 0xC0, 0xC0, 0xC0,
;0xC0, 0xC0, 0xC0, 0xC0, 0xC0, 0xC0, 0xC0, 0xE1, 0xFF, 0xFF, 0xFF, 0xFF, 0x00, 0x00, 0x00, 0x00,
;0x00, 0x00, 0x00, 0xFF, 0xFF, 0xFF, 0xFF, 0x87, 0x03, 0x03, 0x03, 0x03, 0x03, 0x03, 0x03, 0x03,
;0x03, 0x03, 0x83, 0x81, 0x00, 0x00, 0x00, 0x00, 0x00, 0x00, 0x00, 0x07, 0x0F, 0x0F, 0x0F, 0x0F,
;0x0F, 0x0F, 0x0F, 0x0F, 0x0F, 0x0F, 0x0F, 0x0F, 0x0F, 0x0F, 0x0F, 0x07, 0x00, 0x00, 0x00, 0x00},
;   //3
;{0x00, 0x00, 0x00, 0xE0, 0xF0, 0xF0, 0xF0, 0xF0, 0xF0, 0xF0, 0xF0, 0xF0, 0xF0, 0xF0, 0xF0, 0xF0,
;0xF0, 0xF0, 0xF0, 0xE0, 0x00, 0x00, 0x00, 0x00, 0x00, 0x00, 0x00, 0x81, 0xC1, 0xC0, 0xC0, 0xC0,
;0xC0, 0xC0, 0xC0, 0xC0, 0xC0, 0xC0, 0xC0, 0xE1, 0xFF, 0xFF, 0xFF, 0x7F, 0x00, 0x00, 0x00, 0x00,
;0x00, 0x00, 0x00, 0x81, 0x83, 0x03, 0x03, 0x03, 0x03, 0x03, 0x03, 0x03, 0x03, 0x03, 0x03, 0x87,
;0xFF, 0xFF, 0xFF, 0xFE, 0x00, 0x00, 0x00, 0x00, 0x00, 0x00, 0x00, 0x07, 0x0F, 0x0F, 0x0F, 0x0F,
;0x0F, 0x0F, 0x0F, 0x0F, 0x0F, 0x0F, 0x0F, 0x0F, 0x0F, 0x0F, 0x0F, 0x07, 0x00, 0x00, 0x00, 0x00},
;  //4
;{0x00, 0x00, 0x00, 0xE0, 0xF0, 0xF0, 0xF0, 0x30, 0x00, 0x00, 0x00, 0x00, 0x00, 0x00, 0x00, 0x30,
;0xF0, 0xF0, 0xF0, 0xE0, 0x00, 0x00, 0x00, 0x00, 0x00, 0x00, 0x00, 0xFF, 0xFF, 0xFF, 0xFF, 0xE0,
;0xC0, 0xC0, 0xC0, 0xC0, 0xC0, 0xC0, 0xC0, 0xE0, 0xFF, 0xFF, 0xFF, 0xFF, 0x00, 0x00, 0x00, 0x00,
;0x00, 0x00, 0x00, 0x01, 0x03, 0x03, 0x03, 0x03, 0x03, 0x03, 0x03, 0x03, 0x03, 0x03, 0x03, 0x07,
;0xFF, 0xFF, 0xFF, 0xFF, 0x00, 0x00, 0x00, 0x00, 0x00, 0x00, 0x00, 0x00, 0x00, 0x00, 0x00, 0x00,
;0x00, 0x00, 0x00, 0x00, 0x00, 0x00, 0x00, 0x0C, 0x0F, 0x0F, 0x0F, 0x07, 0x00, 0x00, 0x00, 0x00},
;  //5
;{0x00, 0x00, 0x00, 0xE0, 0xF0, 0xF0, 0xF0, 0xF0, 0xF0, 0xF0, 0xF0, 0xF0, 0xF0, 0xF0, 0xF0, 0xF0,
;0xF0, 0xF0, 0xF0, 0xE0, 0x00, 0x00, 0x00, 0x00, 0x00, 0x00, 0x00, 0xFF, 0xFF, 0xFF, 0xFF, 0xE1,
;0xC0, 0xC0, 0xC0, 0xC0, 0xC0, 0xC0, 0xC0, 0xC0, 0xC0, 0xC0, 0xC1, 0x81, 0x00, 0x00, 0x00, 0x00,
;0x00, 0x00, 0x00, 0x81, 0x83, 0x03, 0x03, 0x03, 0x03, 0x03, 0x03, 0x03, 0x03, 0x03, 0x03, 0x87,
;0xFF, 0xFF, 0xFF, 0xFF, 0x00, 0x00, 0x00, 0x00, 0x00, 0x00, 0x00, 0x07, 0x0F, 0x0F, 0x0F, 0x0F,
;0x0F, 0x0F, 0x0F, 0x0F, 0x0F, 0x0F, 0x0F, 0x0F, 0x0F, 0x0F, 0x0F, 0x07, 0x00, 0x00, 0x00, 0x00},
; //6
;{0x00, 0x00, 0x00, 0xE0, 0xF0, 0xF0, 0xF0, 0xF0, 0xF0, 0xF0, 0xF0, 0xF0, 0xF0, 0xF0, 0xF0, 0xF0,
;0xF0, 0xF0, 0xF0, 0xE0, 0x00, 0x00, 0x00, 0x00, 0x00, 0x00, 0x00, 0xFF, 0xFF, 0xFF, 0xFF, 0xE1,
;0xC0, 0xC0, 0xC0, 0xC0, 0xC0, 0xC0, 0xC0, 0xC0, 0xC0, 0xC0, 0xC1, 0x81, 0x00, 0x00, 0x00, 0x00,
;0x00, 0x00, 0x00, 0xFF, 0xFF, 0xFF, 0xFF, 0x87, 0x03, 0x03, 0x03, 0x03, 0x03, 0x03, 0x03, 0x87,
;0xFF, 0xFF, 0xFF, 0xFF, 0x00, 0x00, 0x00, 0x00, 0x00, 0x00, 0x00, 0x07, 0x0F, 0x0F, 0x0F, 0x0F,
;0x0F, 0x0F, 0x0F, 0x0F, 0x0F, 0x0F, 0x0F, 0x0F, 0x0F, 0x0F, 0x0F, 0x07, 0x00, 0x00, 0x00, 0x00},
;  //7
;{0x00, 0x00, 0x00, 0xE0, 0xF0, 0xF0, 0xF0, 0xF0, 0xF0, 0xF0, 0xF0, 0xF0, 0xF0, 0xF0, 0xF0, 0xF0,
;0xF0, 0xF0, 0xF0, 0xE0, 0x00, 0x00, 0x00, 0x00, 0x00, 0x00, 0x00, 0x01, 0x01, 0x00, 0x00, 0x00,
;0x00, 0x00, 0x00, 0x00, 0x00, 0x00, 0x00, 0x01, 0xFF, 0xFF, 0xFF, 0xFF, 0x00, 0x00, 0x00, 0x00,
;0x00, 0x00, 0x00, 0x00, 0x00, 0x00, 0x00, 0x00, 0x00, 0x00, 0x00, 0x00, 0x00, 0x00, 0x00, 0x00,
;0xFF, 0xFF, 0xFF, 0xFF, 0x00, 0x00, 0x00, 0x00, 0x00, 0x00, 0x00, 0x00, 0x00, 0x00, 0x00, 0x00,
;0x00, 0x00, 0x00, 0x00, 0x00, 0x00, 0x00, 0x0C, 0x0F, 0x0F, 0x0F, 0x07, 0x00, 0x00, 0x00, 0x00},
;  //8
;{0x00, 0x00, 0x00, 0xE0, 0xF0, 0xF0, 0xF0, 0xF0, 0xF0, 0xF0, 0xF0, 0xF0, 0xF0, 0xF0, 0xF0, 0xF0,
;0xF0, 0xF0, 0xF0, 0xE0, 0x00, 0x00, 0x00, 0x00, 0x00, 0x00, 0x00, 0x7F, 0xFF, 0xFF, 0xFF, 0xE1,
;0xC0, 0xC0, 0xC0, 0xC0, 0xC0, 0xC0, 0xC0, 0xE1, 0xFF, 0xFF, 0xFF, 0x3F, 0x00, 0x00, 0x00, 0x00,
;0x00, 0x00, 0x00, 0xFE, 0xFF, 0xFF, 0xFF, 0x87, 0x03, 0x03, 0x03, 0x03, 0x03, 0x03, 0x03, 0x87,
;0xFF, 0xFF, 0xFF, 0xFE, 0x00, 0x00, 0x00, 0x00, 0x00, 0x00, 0x00, 0x07, 0x0F, 0x0F, 0x0F, 0x0F,
;0x0F, 0x0F, 0x0F, 0x0F, 0x0F, 0x0F, 0x0F, 0x0F, 0x0F, 0x0F, 0x0F, 0x07, 0x00, 0x00, 0x00, 0x00},
;    //9
;{0x00, 0x00, 0x00, 0xE0, 0xF0, 0xF0, 0xF0, 0xF0, 0xF0, 0xF0, 0xF0, 0xF0, 0xF0, 0xF0, 0xF0, 0xF0,
;0xF0, 0xF0, 0xF0, 0xE0, 0x00, 0x00, 0x00, 0x00, 0x00, 0x00, 0x00, 0xFF, 0xFF, 0xFF, 0xFF, 0xE1,
;0xC0, 0xC0, 0xC0, 0xC0, 0xC0, 0xC0, 0xC0, 0xE1, 0xFF, 0xFF, 0xFF, 0xFF, 0x00, 0x00, 0x00, 0x00,
;0x00, 0x00, 0x00, 0x01, 0x03, 0x03, 0x03, 0x03, 0x03, 0x03, 0x03, 0x03, 0x03, 0x03, 0x03, 0x07,
;0xFF, 0xFF, 0xFF, 0xFF, 0x00, 0x00, 0x00, 0x00, 0x00, 0x00, 0x00, 0x00, 0x00, 0x00, 0x00, 0x00,
;0x00, 0x00, 0x00, 0x00, 0x00, 0x00, 0x00, 0x0C, 0x0F, 0x0F, 0x0F, 0x07, 0x00, 0x00, 0x00, 0x00},
;  //:    10
;{0x00, 0x00, 0x00, 0x00, 0x00, 0x00, 0x00, 0x00, 0x00, 0x00, 0x00, 0x00, 0x00, 0x00, 0x00, 0x00, 0x00, 0x00, 0x00, 0x00, ...
; 0x00, 0x00, 0x00, 0x00, 0x00, 0x00, 0x00, 0x00, 0x00, 0x3C, 0x7E, 0x7E, 0x7E, 0x7E, 0x3C, 0x00, 0x00, 0x00, 0x00, 0x00, ...
; 0x00, 0x00, 0x00, 0x00, 0x00, 0x00, 0x00, 0x00, 0x00, 0xF0, 0xF8, 0xF8, 0xF8, 0xF8, 0xF0, 0x00, 0x00, 0x00, 0x00, 0x00, ...
; 0x00, 0x00, 0x00, 0x00, 0x00, 0x00, 0x00, 0x00, 0x00, 0x00, 0x01, 0x01, 0x01, 0x01, 0x00, 0x00, 0x00, 0x00, 0x00, 0x00, ...
;  //.    11
;{0x00, 0x00, 0x00, 0x00, 0x00, 0x00, 0x00, 0x00, 0x00, 0x00, 0x00, 0x00, 0x00, 0x00, 0x00, 0x00, 0x00, 0x00, 0x00, 0x00, ...
; 0x00, 0x00, 0x00, 0x00, 0x00, 0x00, 0x00, 0x00, 0x00, 0x00, 0x00, 0x00, 0x00, 0x00, 0x00, 0x00, 0x00, 0x00, 0x00, 0x00, ...
; 0x00, 0x00, 0x00, 0x00, 0x00, 0x00, 0x00, 0x00, 0x00, 0xc0, 0xc0, 0xc0, 0xc0, 0xc0, 0xc0, 0x00, 0x00, 0x00, 0x00, 0x00, ...
; 0x00, 0x00, 0x00, 0x00, 0x00, 0x00, 0x00, 0x00, 0x00, 0x0f, 0x0f, 0x0f, 0x0f, 0x0f, 0x0f, 0x00, 0x00, 0x00, 0x00, 0x00, ...
; //space   12
;{0x00, 0x00, 0x00, 0x00, 0x00, 0x00, 0x00, 0x00, 0x00, 0x00, 0x00, 0x00, 0x00, 0x00, 0x00, 0x00, 0x00, 0x00, 0x00, 0x00, ...
; 0x00, 0x00, 0x00, 0x00, 0x00, 0x00, 0x00, 0x00, 0x00, 0x00, 0x00, 0x00, 0x00, 0x00, 0x00, 0x00, 0x00, 0x00, 0x00, 0x00, ...
; 0x00, 0x00, 0x00, 0x00, 0x00, 0x00, 0x00, 0x00, 0x00, 0x00, 0x00, 0x00, 0x00, 0x00, 0x00, 0x00, 0x00, 0x00, 0x00, 0x00, ...
; 0x00, 0x00, 0x00, 0x00, 0x00, 0x00, 0x00, 0x00, 0x00, 0x00, 0x00, 0x00, 0x00, 0x00, 0x00, 0x00, 0x00, 0x00, 0x00, 0x00, ...
; //    13
;{0x00, 0x00, 0x00, 0x00, 0x00, 0x00, 0x00, 0x00, 0x00, 0x1F, 0x11, 0x11, 0x11, 0x1F, 0x00, 0x00, 0x00, 0x00, 0x00, 0x00, ...
; 0x00, 0x00, 0x00, 0x00, 0x00, 0x00, 0x00, 0x00, 0x00, 0x00, 0x00, 0x00, 0x00, 0x00, 0x00, 0x00, 0x00, 0x00, 0x00, 0x00, ...
; 0x00, 0x00, 0x00, 0x00, 0x00, 0x00, 0x00, 0x00, 0x00, 0x00, 0x00, 0x00, 0x00, 0x00, 0x00, 0x00, 0x00, 0x00, 0x00, 0x00, ...
; 0x00, 0x00, 0x00, 0x00, 0x00, 0x00, 0x00, 0x00, 0x00, 0x00, 0x00, 0x00, 0x00, 0x00, 0x00, 0x00, 0x00, 0x00, 0x00, 0x00, ...
;
;};
;
;
;//7 running dog pictures
;flash unsigned char dog0[1024]={
;0x00, 0x00, 0x00, 0x00, 0x00, 0x00, 0x00, 0x00,
;0x00, 0x00, 0x00, 0x00, 0x00, 0x00, 0x00, 0x00,
;0x00, 0x00, 0x00, 0x00, 0x00, 0x00, 0x00, 0x00,
;0x00, 0x00, 0x00, 0x00, 0x00, 0x00, 0x00, 0x00,
;0x00, 0x00, 0x00, 0x00, 0x00, 0x00, 0x00, 0x00,
;0x00, 0x00, 0x00, 0x00, 0x00, 0x00, 0x00, 0x00,
;0x00, 0x80, 0x80, 0x80, 0x80, 0x80, 0x80, 0x00,
;0x00, 0x00, 0x00, 0x00, 0x00, 0x00, 0x00, 0x00,
;0x00, 0x00, 0x00, 0x00, 0x00, 0x00, 0x00, 0x00,
;0x00, 0x00, 0x00, 0x00, 0x00, 0x00, 0x00, 0x00,
;0x00, 0x00, 0x00, 0x00, 0x00, 0x00, 0x00, 0x00,
;0x00, 0x00, 0x00, 0x00, 0x00, 0x00, 0x00, 0x00,
;0x00, 0x00, 0x00, 0x00, 0x00, 0x00, 0x00, 0x00,
;0x00, 0x00, 0x00, 0x00, 0x00, 0x00, 0x00, 0x00,
;0x00, 0x00, 0x00, 0x00, 0x00, 0x00, 0x00, 0x00,
;0x00, 0x00, 0x00, 0x00, 0x00, 0x00, 0x00, 0x00,
;0x00, 0x00, 0x00, 0x02, 0x02, 0x06, 0x0E, 0x0E,
;0x1E, 0x3C, 0x7C, 0xF8, 0xF0, 0xE0, 0xE0, 0xC0,
;0x80, 0x00, 0x00, 0x00, 0x00, 0x00, 0x00, 0x00,
;0x00, 0x00, 0x00, 0x00, 0x00, 0x00, 0x00, 0x00,
;0x00, 0x00, 0x00, 0xC0, 0xC0, 0xE0, 0xF0, 0xF8,
;0xF8, 0xFC, 0xFE, 0xFE, 0xFE, 0xFF, 0xFF, 0xFF,
;0xFF, 0xFF, 0xFF, 0xFF, 0xFF, 0xFF, 0xFF, 0xFF,
;0xFF, 0xFF, 0xFF, 0xFE, 0xFE, 0xFE, 0xFC, 0xFC,
;0xFC, 0xF8, 0xF0, 0xF0, 0xE0, 0xE0, 0xC0, 0xC0,
;0xC0, 0x80, 0x80, 0x80, 0x80, 0x80, 0x00, 0x00,
;0x00, 0x00, 0x00, 0x00, 0x00, 0x00, 0x60, 0xF0,
;0xF0, 0xF0, 0xF0, 0xF0, 0xF0, 0xF0, 0xE0, 0xE0,
;0xE0, 0xE0, 0xE0, 0xE0, 0xE0, 0xF0, 0xF0, 0xF0,
;0xF0, 0xF0, 0xF0, 0xE0, 0xC0, 0x80, 0x00, 0x00,
;0x00, 0x00, 0x00, 0x00, 0x00, 0x00, 0x00, 0x00,
;0x00, 0x00, 0x00, 0x00, 0x00, 0x00, 0x00, 0x00,
;0x00, 0x00, 0x00, 0x00, 0x00, 0x00, 0x00, 0x00,
;0x00, 0x00, 0x00, 0x01, 0x03, 0x07, 0x0F, 0x0F,
;0x1F, 0x3F, 0x7E, 0x7E, 0xFC, 0xFC, 0xF8, 0xF8,
;0xF0, 0xF0, 0xE0, 0xE0, 0xE0, 0xE0, 0xF0, 0xF8,
;0xFC, 0xFE, 0xFF, 0xFF, 0xFF, 0xFF, 0xFF, 0xFF,
;0xFF, 0xFF, 0xFF, 0xFF, 0xFF, 0xFF, 0xFF, 0xFF,
;0xFF, 0xFF, 0xFF, 0xFF, 0xFF, 0xFF, 0xFF, 0xFF,
;0xFF, 0xFF, 0xFF, 0xFF, 0xFF, 0xFF, 0xFF, 0xFF,
;0xFF, 0xFF, 0xFF, 0xFF, 0xFF, 0xFF, 0xFF, 0xFF,
;0xFF, 0xFF, 0xFF, 0xFF, 0xFF, 0xFF, 0xFF, 0xFF,
;0xFF, 0xFE, 0xFE, 0xFC, 0xFC, 0xFC, 0xF8, 0xF9,
;0xFF, 0xFF, 0xFF, 0xFF, 0xFF, 0xFF, 0xFF, 0xFF,
;0xFF, 0xFF, 0xFF, 0xFF, 0xFF, 0xFF, 0xFF, 0xFF,
;0xFF, 0xFF, 0xFF, 0xFF, 0xFF, 0xFF, 0xFF, 0xFF,
;0xFE, 0xFC, 0xF8, 0xF8, 0xF8, 0xF0, 0xF0, 0x00,
;0x00, 0x00, 0x00, 0x00, 0x00, 0x00, 0x00, 0x00,
;0x00, 0x00, 0x00, 0x00, 0x00, 0x00, 0x00, 0x00,
;0x00, 0x00, 0x00, 0x00, 0x00, 0x00, 0x00, 0x00,
;0x00, 0x00, 0x00, 0x00, 0x00, 0x00, 0x01, 0x01,
;0x03, 0x03, 0x07, 0x07, 0x07, 0x03, 0x03, 0x03,
;0x01, 0x01, 0x01, 0x01, 0x03, 0x07, 0x1F, 0x3F,
;0x7F, 0xFF, 0xFF, 0xFF, 0xFF, 0xFF, 0xFF, 0xFF,
;0xFF, 0xFF, 0xFF, 0xFF, 0xFF, 0xFF, 0xFF, 0xFF,
;0xFF, 0xFF, 0xFF, 0xFF, 0xFF, 0xFF, 0xFF, 0xFF,
;0xFF, 0xFF, 0xFF, 0xFF, 0xFF, 0xFF, 0xFF, 0xFF,
;0xFF, 0xFF, 0xFF, 0xFF, 0xFF, 0xFF, 0xFF, 0xFF,
;0xFF, 0xFF, 0xFF, 0xFF, 0xFF, 0xFF, 0xFF, 0xFF,
;0xFF, 0xFF, 0xFF, 0xFF, 0xFF, 0xFF, 0x7F, 0x7F,
;0x3F, 0x1F, 0x1F, 0x0F, 0x0F, 0x0F, 0x0F, 0x0F,
;0x0F, 0x0F, 0x0F, 0x0F, 0x0F, 0x0F, 0x0F, 0x0F,
;0x0F, 0x0F, 0x0F, 0x07, 0x03, 0x01, 0x00, 0x00,
;0x00, 0x00, 0x00, 0x00, 0x00, 0x00, 0x00, 0x00,
;0x00, 0x00, 0x00, 0x00, 0x00, 0x00, 0x00, 0x00,
;0x00, 0x00, 0x00, 0x00, 0x00, 0x00, 0x00, 0x00,
;0x00, 0x00, 0x00, 0x00, 0x00, 0x00, 0x00, 0x00,
;0x00, 0x00, 0x00, 0x00, 0x00, 0x00, 0x00, 0x00,
;0x00, 0x00, 0x1F, 0xFF, 0xFF, 0xFE, 0xFE, 0xBE,
;0x3E, 0x3F, 0x3F, 0x3F, 0x3F, 0x3F, 0x7F, 0xFF,
;0xFF, 0xFF, 0xFF, 0xFF, 0xBF, 0x1F, 0x1F, 0x1F,
;0x1F, 0x1F, 0x0F, 0x03, 0x03, 0x03, 0x03, 0x07,
;0x07, 0xFF, 0xFF, 0xFF, 0xFF, 0xFF, 0xFF, 0xFF,
;0xFF, 0xFF, 0xFF, 0xFF, 0xFF, 0xFF, 0xFF, 0xFF,
;0x7F, 0x7F, 0x3F, 0x3F, 0x1F, 0x1F, 0x0F, 0x0F,
;0x07, 0x03, 0x03, 0x01, 0x00, 0x00, 0x00, 0x00,
;0x00, 0x00, 0x00, 0x00, 0x00, 0x00, 0x00, 0x00,
;0x00, 0x00, 0x00, 0x00, 0x00, 0x00, 0x00, 0x00,
;0x00, 0x00, 0x00, 0x00, 0x00, 0x00, 0x00, 0x00,
;0x00, 0x00, 0x00, 0x00, 0x00, 0x00, 0x00, 0x00,
;0x00, 0x00, 0x00, 0x00, 0x00, 0x00, 0x00, 0x00,
;0x00, 0x00, 0x00, 0x00, 0x00, 0x00, 0x00, 0x00,
;0x00, 0x00, 0x00, 0x00, 0x00, 0x00, 0x00, 0x00,
;0x00, 0x00, 0x00, 0x00, 0x00, 0x00, 0x00, 0x00,
;0x00, 0x00, 0x00, 0x00, 0x1F, 0xFF, 0xFF, 0xFF,
;0xF8, 0xC0, 0x00, 0x00, 0x00, 0x00, 0x00, 0x00,
;0x03, 0x07, 0x0F, 0x3F, 0xFF, 0xFF, 0xFE, 0xFC,
;0xF8, 0xE0, 0x00, 0x00, 0x00, 0x00, 0x00, 0x00,
;0xF0, 0xFF, 0xFF, 0xFF, 0xFF, 0xFF, 0xFF, 0xFF,
;0xFF, 0x7F, 0x3F, 0x1F, 0x0F, 0x07, 0x01, 0x00,
;0x00, 0x00, 0x00, 0x00, 0x00, 0x00, 0x00, 0x00,
;0x00, 0x00, 0x00, 0x00, 0x00, 0x00, 0x00, 0x00,
;0x00, 0x00, 0x00, 0x00, 0x00, 0x00, 0x00, 0x00,
;0x00, 0x00, 0x00, 0x00, 0x00, 0x00, 0x00, 0x00,
;0x00, 0x00, 0x00, 0x00, 0x00, 0x00, 0x00, 0x00,
;0x00, 0x00, 0x00, 0x00, 0x00, 0x00, 0x00, 0x00,
;0x00, 0x00, 0x00, 0x00, 0x00, 0x00, 0x00, 0x00,
;0x00, 0x00, 0x00, 0x00, 0x00, 0x00, 0x00, 0x00,
;0x00, 0x00, 0x00, 0x00, 0x00, 0x00, 0x00, 0x00,
;0x00, 0x00, 0x00, 0x00, 0x00, 0x00, 0x00, 0x00,
;0x00, 0x00, 0x00, 0x00, 0x07, 0x3F, 0x3F, 0x1F,
;0x1F, 0x0F, 0x00, 0x00, 0x00, 0x00, 0x00, 0x00,
;0x00, 0x00, 0x00, 0x00, 0x07, 0x0F, 0xE7, 0xF7,
;0xF3, 0xF1, 0xF0, 0xF0, 0xF0, 0xF8, 0xF8, 0xFE,
;0xFF, 0x7F, 0x3F, 0x1F, 0x0F, 0x03, 0x01, 0x01,
;0x00, 0x00, 0x00, 0x00, 0x00, 0x00, 0x00, 0x00,
;0x00, 0x00, 0x00, 0x00, 0x00, 0x00, 0x00, 0x00,
;0x00, 0x00, 0x00, 0x00, 0x00, 0x00, 0x00, 0x00,
;0x00, 0x00, 0x00, 0x00, 0x00, 0x00, 0x00, 0x00,
;0x00, 0x00, 0x00, 0x00, 0x00, 0x00, 0x00, 0x00,
;0x00, 0x00, 0x00, 0x00, 0x00, 0x00, 0x00, 0x00,
;0x00, 0x00, 0x00, 0x00, 0x00, 0x00, 0x00, 0x00,
;0x00, 0x00, 0x00, 0x00, 0x00, 0x00, 0x00, 0x00,
;0x00, 0x00, 0x00, 0x00, 0x00, 0x00, 0x00, 0x00,
;0x00, 0x00, 0x00, 0x00, 0x00, 0x00, 0x00, 0x00,
;0x00, 0x00, 0x00, 0x00, 0x00, 0x00, 0x00, 0x00,
;0x00, 0x00, 0x00, 0x00, 0x00, 0x00, 0x00, 0x00,
;0x00, 0x00, 0x00, 0x00, 0x00, 0x00, 0x00, 0x00,
;0x00, 0x00, 0x00, 0x00, 0x00, 0x00, 0x00, 0x01,
;0x03, 0x03, 0x0F, 0x7F, 0xFF, 0xFF, 0xFF, 0xFF,
;0xF8, 0xF0, 0xF0, 0x00, 0x00, 0x00, 0x00, 0x00,
;0x00, 0x00, 0x00, 0x00, 0x00, 0x00, 0x00, 0x00,
;0x00, 0x00, 0x00, 0x00, 0x00, 0x00, 0x00, 0x00,
;0x00, 0x00, 0x00, 0x00, 0x00, 0x00, 0x00, 0x00,
;0x00, 0x00, 0x00, 0x00, 0x00, 0x00, 0x00, 0x00,
;0x00, 0x00, 0x00, 0x00, 0x00, 0x00, 0x00, 0x00,
;0x00, 0x00, 0x00, 0x00, 0x00, 0x00, 0x00, 0x00,
;0x00, 0x00, 0x00, 0x00, 0x00, 0x00, 0x00, 0x00
;};
;
;flash unsigned char dog1[1024]={
;0x00, 0x00, 0x00, 0x00, 0x00, 0x00, 0x00, 0x00,
;0x00, 0x00, 0x00, 0x00, 0x00, 0x00, 0x00, 0x00,
;0x00, 0x00, 0x00, 0x00, 0x00, 0x00, 0x00, 0x00,
;0x00, 0x00, 0x00, 0x00, 0x00, 0x00, 0x00, 0x00,
;0x00, 0x00, 0x00, 0x00, 0x00, 0x00, 0x00, 0x00,
;0x00, 0x00, 0x00, 0x00, 0x00, 0x00, 0x00, 0x00,
;0x00, 0x00, 0x00, 0x00, 0x00, 0x00, 0x00, 0x00,
;0x00, 0x00, 0x00, 0x00, 0x00, 0x00, 0x00, 0x00,
;0x00, 0x00, 0x00, 0x00, 0x00, 0x00, 0x00, 0x00,
;0x00, 0x00, 0x00, 0x00, 0x00, 0x00, 0x00, 0x00,
;0x00, 0x00, 0x00, 0x00, 0x00, 0x00, 0x00, 0x00,
;0x00, 0x00, 0x00, 0x00, 0x00, 0x00, 0x00, 0x00,
;0x00, 0x00, 0x00, 0x00, 0x00, 0x00, 0x00, 0x00,
;0x00, 0x00, 0x00, 0x00, 0x00, 0x00, 0x00, 0x00,
;0x00, 0x00, 0x00, 0x00, 0x00, 0x00, 0x00, 0x00,
;0x00, 0x00, 0x00, 0x00, 0x00, 0x00, 0x00, 0x00,
;0x00, 0x00, 0x00, 0x00, 0x00, 0x00, 0x00, 0x00,
;0x00, 0x00, 0x00, 0x00, 0x00, 0x00, 0x00, 0x00,
;0x00, 0x00, 0x00, 0x00, 0x00, 0x00, 0x00, 0x00,
;0x00, 0x00, 0x00, 0x00, 0x00, 0x00, 0x00, 0x00,
;0x00, 0x00, 0x00, 0x00, 0x80, 0xC0, 0xC0, 0xE0,
;0xF0, 0xF0, 0xF0, 0xF8, 0xF8, 0xF8, 0xF8, 0xF8,
;0xF8, 0xF8, 0xF8, 0xF8, 0xF0, 0xF0, 0xF0, 0xF0,
;0xF0, 0xE0, 0xC0, 0xC0, 0x80, 0x80, 0x00, 0x00,
;0x00, 0x00, 0x00, 0x00, 0x00, 0x00, 0x00, 0x00,
;0x00, 0x00, 0x00, 0x00, 0x00, 0x00, 0x00, 0x00,
;0x00, 0x00, 0x00, 0x00, 0x00, 0x00, 0x00, 0x00,
;0x00, 0x00, 0x00, 0x00, 0x00, 0x00, 0x80, 0x80,
;0x80, 0xC0, 0xC0, 0xE0, 0xE0, 0xF0, 0xE0, 0xE0,
;0xC0, 0xC0, 0x80, 0x80, 0x00, 0x00, 0x00, 0x00,
;0x00, 0x00, 0x00, 0x00, 0x00, 0x00, 0x00, 0x00,
;0x00, 0x00, 0x00, 0x00, 0x00, 0x00, 0x00, 0x00,
;0x00, 0x00, 0x00, 0x00, 0x00, 0x00, 0x00, 0x00,
;0x00, 0x00, 0x00, 0x00, 0x00, 0x00, 0x00, 0x00,
;0x00, 0x00, 0x00, 0x00, 0x00, 0x00, 0x00, 0x00,
;0x00, 0x00, 0x00, 0x00, 0x00, 0x00, 0x00, 0x80,
;0xE0, 0xF8, 0xFC, 0xFF, 0xFF, 0xFF, 0xFF, 0xFF,
;0xFF, 0xFF, 0xFF, 0xFF, 0xFF, 0xFF, 0xFF, 0xFF,
;0xFF, 0xFF, 0xFF, 0xFF, 0xFF, 0xFF, 0xFF, 0xFF,
;0xFF, 0xFF, 0xFF, 0xFF, 0xFF, 0xFF, 0xFF, 0xFE,
;0xFE, 0xFC, 0xFC, 0xF8, 0xF8, 0xF8, 0xF0, 0xF8,
;0xF8, 0xF8, 0xF8, 0xF8, 0xF8, 0xF8, 0xF0, 0xF0,
;0xF0, 0xF0, 0xE0, 0xFC, 0xFC, 0xFC, 0xFC, 0xFC,
;0xFC, 0xFE, 0xFE, 0xFF, 0xFF, 0xFF, 0xFF, 0xFF,
;0xFF, 0xFF, 0xFF, 0xFF, 0xFF, 0xFF, 0xFF, 0xFF,
;0xFF, 0xFF, 0xFF, 0xFF, 0xFF, 0xFF, 0xFE, 0xFE,
;0xFE, 0xFE, 0xFE, 0xFE, 0x7E, 0x1E, 0x00, 0x00,
;0x00, 0x00, 0x00, 0x00, 0x00, 0x00, 0x00, 0x00,
;0x00, 0x00, 0x00, 0x00, 0x00, 0x00, 0x00, 0x00,
;0x00, 0x00, 0x00, 0x00, 0x00, 0x00, 0x00, 0x00,
;0x00, 0x00, 0x00, 0x80, 0x80, 0xC0, 0xC0, 0xE0,
;0xE0, 0xF0, 0xF0, 0xF8, 0xFC, 0xFE, 0xFF, 0x7F,
;0x3F, 0x7F, 0x7F, 0xFF, 0xFF, 0xFF, 0xFF, 0xFF,
;0xFF, 0xFF, 0xFF, 0xFF, 0xFF, 0xFF, 0xFF, 0xFF,
;0xFF, 0xFF, 0xFF, 0xFF, 0xFF, 0xFF, 0xFF, 0xFF,
;0xFF, 0xFF, 0xFF, 0xFF, 0xFF, 0xFF, 0xFF, 0xFF,
;0xFF, 0xFF, 0xFF, 0xFF, 0xFF, 0xFF, 0xFF, 0xFF,
;0xFF, 0xFF, 0xFF, 0xFF, 0xFF, 0xFF, 0xFF, 0xFF,
;0xFF, 0xFF, 0xFF, 0xFF, 0xFF, 0xFF, 0xFF, 0xFF,
;0xFF, 0xFF, 0xFF, 0xFF, 0xFF, 0xFF, 0x7F, 0x3F,
;0x1F, 0x0F, 0x0F, 0x0F, 0x0F, 0x0F, 0x0F, 0x0F,
;0x0F, 0x0F, 0x0F, 0x0F, 0x0F, 0x07, 0x07, 0x07,
;0x07, 0x07, 0x03, 0x01, 0x00, 0x00, 0x00, 0x00,
;0x00, 0x00, 0x00, 0x00, 0x00, 0x00, 0x00, 0x00,
;0x00, 0x00, 0x00, 0x00, 0x00, 0x02, 0x02, 0x06,
;0x06, 0x06, 0x06, 0x06, 0x07, 0x07, 0x0F, 0x0F,
;0x0F, 0x0F, 0x0F, 0x0F, 0x0F, 0x07, 0x07, 0x07,
;0x07, 0x03, 0x03, 0x03, 0x01, 0x00, 0x00, 0x00,
;0x00, 0x00, 0x00, 0xC0, 0xE1, 0xF3, 0xF7, 0xFF,
;0xFF, 0xFF, 0xFF, 0xFF, 0xFF, 0xFF, 0xFF, 0x3F,
;0x3F, 0x3F, 0xFF, 0xFF, 0xFF, 0xFF, 0xFF, 0xFF,
;0xFF, 0x0F, 0x1F, 0x3F, 0x3F, 0x7F, 0xFF, 0xFF,
;0xFF, 0xFF, 0xFF, 0xFF, 0xFF, 0xFF, 0xFF, 0xFF,
;0xFF, 0xFF, 0xFF, 0xFF, 0xFF, 0xFF, 0xFF, 0xFF,
;0xFF, 0xFF, 0xFF, 0xFF, 0xFF, 0x7F, 0x3F, 0x1F,
;0x0F, 0x07, 0x03, 0x03, 0x01, 0x00, 0x00, 0x00,
;0x00, 0x00, 0x00, 0x00, 0x00, 0x00, 0x00, 0x00,
;0x00, 0x00, 0x00, 0x00, 0x00, 0x00, 0x00, 0x00,
;0x00, 0x00, 0x00, 0x00, 0x00, 0x00, 0x00, 0x00,
;0x00, 0x00, 0x00, 0x00, 0x00, 0x00, 0x00, 0x00,
;0x00, 0x00, 0x00, 0x00, 0x00, 0x00, 0x00, 0x00,
;0x00, 0x00, 0x00, 0x00, 0x00, 0x00, 0x00, 0x00,
;0x00, 0x00, 0x00, 0x00, 0x00, 0x00, 0x00, 0x00,
;0x00, 0x00, 0x00, 0x00, 0x00, 0x00, 0x00, 0x00,
;0x00, 0x00, 0x00, 0x01, 0x01, 0x03, 0x07, 0x07,
;0x07, 0x0F, 0x0F, 0x1F, 0x1F, 0x1F, 0x3F, 0x3F,
;0x7E, 0x7E, 0x7C, 0xFF, 0xFF, 0xFF, 0xFF, 0xFF,
;0xFF, 0xC0, 0xC0, 0xC0, 0xE0, 0xF8, 0xFF, 0xFF,
;0xFF, 0x7F, 0x3F, 0x1F, 0x0F, 0x07, 0x0F, 0x1F,
;0x3F, 0xFF, 0xFF, 0xFF, 0xFF, 0xFF, 0xFF, 0xFB,
;0xE3, 0x81, 0x01, 0x01, 0x00, 0x00, 0x00, 0x00,
;0x00, 0x00, 0x00, 0x00, 0x00, 0x00, 0x00, 0x00,
;0x00, 0x00, 0x00, 0x00, 0x00, 0x00, 0x00, 0x00,
;0x00, 0x00, 0x00, 0x00, 0x00, 0x00, 0x00, 0x00,
;0x00, 0x00, 0x00, 0x00, 0x00, 0x00, 0x00, 0x00,
;0x00, 0x00, 0x00, 0x00, 0x00, 0x00, 0x00, 0x00,
;0x00, 0x00, 0x00, 0x00, 0x00, 0x00, 0x00, 0x00,
;0x00, 0x00, 0x00, 0x00, 0x00, 0x00, 0x00, 0x00,
;0x00, 0x00, 0x00, 0x00, 0x00, 0x00, 0x00, 0x00,
;0x00, 0x00, 0x00, 0x00, 0x00, 0x00, 0x00, 0x00,
;0x00, 0x00, 0x00, 0x00, 0x00, 0x00, 0x00, 0x00,
;0x00, 0x00, 0x00, 0x00, 0xF0, 0xF0, 0xF0, 0xF0,
;0xF0, 0xF0, 0xF0, 0xF0, 0xF0, 0xF9, 0xF9, 0xFB,
;0xFF, 0x7F, 0x7F, 0x3F, 0x3F, 0x3F, 0x3F, 0x3F,
;0x7E, 0x7C, 0x7C, 0xFC, 0xFC, 0xF8, 0xF0, 0xE0,
;0x80, 0x80, 0xC1, 0xC3, 0xE7, 0xFF, 0xFF, 0xFF,
;0xFF, 0xFF, 0x38, 0x00, 0x00, 0x00, 0x00, 0x00,
;0x00, 0x00, 0x00, 0x00, 0x00, 0x00, 0x00, 0x00,
;0x00, 0x00, 0x00, 0x00, 0x00, 0x00, 0x00, 0x00,
;0x00, 0x00, 0x00, 0x00, 0x00, 0x00, 0x00, 0x00,
;0x00, 0x00, 0x00, 0x00, 0x00, 0x00, 0x00, 0x00,
;0x00, 0x00, 0x00, 0x00, 0x00, 0x00, 0x00, 0x00,
;0x00, 0x00, 0x00, 0x00, 0x00, 0x00, 0x00, 0x00,
;0x00, 0x00, 0x00, 0x00, 0x00, 0x00, 0x00, 0x00,
;0x00, 0x00, 0x00, 0x00, 0x00, 0x00, 0x00, 0x00,
;0x00, 0x00, 0x00, 0x00, 0x00, 0x00, 0x00, 0x00,
;0x00, 0x00, 0x00, 0x00, 0x00, 0x00, 0x00, 0x00,
;0x00, 0x00, 0x00, 0x00, 0x00, 0x00, 0x01, 0x01,
;0x01, 0x01, 0x01, 0x01, 0x01, 0x00, 0x00, 0x00,
;0x00, 0x00, 0x00, 0x00, 0x00, 0x00, 0x00, 0x00,
;0x00, 0x00, 0x00, 0x00, 0x07, 0x07, 0x0F, 0x0F,
;0x0F, 0x0F, 0x0F, 0x0F, 0x0F, 0x07, 0x07, 0x07,
;0x03, 0x01, 0x00, 0x00, 0x00, 0x00, 0x00, 0x00,
;0x00, 0x00, 0x00, 0x00, 0x00, 0x00, 0x00, 0x00,
;0x00, 0x00, 0x00, 0x00, 0x00, 0x00, 0x00, 0x00,
;0x00, 0x00, 0x00, 0x00, 0x00, 0x00, 0x00, 0x00,
;0x00, 0x00, 0x00, 0x00, 0x00, 0x00, 0x00, 0x00,
;0x00, 0x00, 0x00, 0x00, 0x00, 0x00, 0x00, 0x00
;};
;
;
;flash unsigned char dog2[1024]={
;0x00, 0x00, 0x00, 0x00, 0x00, 0x00, 0x00, 0x00,
;0x00, 0x00, 0x00, 0x00, 0x00, 0x00, 0x00, 0x00,
;0x00, 0x00, 0x00, 0x00, 0x00, 0x00, 0x00, 0x00,
;0x00, 0x00, 0x00, 0x00, 0x00, 0x00, 0x00, 0x00,
;0x00, 0x00, 0x00, 0x00, 0x00, 0x00, 0x00, 0x00,
;0x00, 0x00, 0x00, 0x00, 0x00, 0x00, 0x00, 0x00,
;0x00, 0x00, 0x00, 0x00, 0x00, 0x00, 0x00, 0x00,
;0x00, 0x00, 0x00, 0x00, 0x00, 0x00, 0x00, 0x00,
;0x00, 0x00, 0x00, 0x00, 0x00, 0x00, 0x00, 0x00,
;0x00, 0x00, 0x00, 0x00, 0x00, 0x00, 0x00, 0x00,
;0x00, 0x00, 0x00, 0x00, 0x00, 0x00, 0x00, 0x00,
;0x00, 0x00, 0x00, 0x00, 0x00, 0x00, 0x00, 0x00,
;0x00, 0x00, 0x00, 0x00, 0x00, 0x00, 0x00, 0x80,
;0x80, 0x80, 0x00, 0x00, 0x00, 0x00, 0x00, 0x00,
;0x00, 0x00, 0x00, 0x00, 0x00, 0x00, 0x00, 0x00,
;0x00, 0x00, 0x00, 0x00, 0x00, 0x00, 0x00, 0x00,
;0x00, 0x00, 0x00, 0x00, 0x00, 0x00, 0x00, 0x00,
;0x00, 0x00, 0x00, 0x00, 0x00, 0x00, 0x00, 0x00,
;0x00, 0x00, 0x00, 0x00, 0x00, 0x00, 0x00, 0x00,
;0x00, 0x00, 0x00, 0x00, 0x00, 0x00, 0x00, 0x00,
;0x00, 0x00, 0x00, 0x00, 0x00, 0x00, 0x00, 0x00,
;0x00, 0x00, 0x00, 0x00, 0x00, 0x00, 0x80, 0x80,
;0x80, 0x80, 0xC0, 0xC0, 0xC0, 0xC0, 0xC0, 0xC0,
;0xC0, 0xC0, 0xC0, 0x80, 0x80, 0x80, 0x80, 0x00,
;0x00, 0x00, 0x00, 0x00, 0x00, 0x00, 0x00, 0x00,
;0x00, 0x00, 0x00, 0x00, 0x00, 0x00, 0x00, 0x00,
;0x00, 0x00, 0x00, 0x00, 0x00, 0x00, 0x00, 0x00,
;0x00, 0x00, 0x00, 0xF0, 0xF8, 0xFC, 0xFC, 0xFC,
;0xFC, 0xFC, 0xFE, 0xFE, 0xFE, 0xFF, 0xFF, 0xFF,
;0xFF, 0xFF, 0xFF, 0xFF, 0xFE, 0xFC, 0xFC, 0xF8,
;0xF0, 0xF0, 0xF0, 0xF0, 0xF0, 0xF0, 0xF0, 0xF0,
;0x30, 0x00, 0x00, 0x00, 0x00, 0x00, 0x00, 0x00,
;0x00, 0x00, 0x00, 0x00, 0x00, 0x00, 0x00, 0x00,
;0x00, 0x00, 0x00, 0x00, 0x00, 0x00, 0x00, 0x00,
;0x00, 0x00, 0x00, 0x00, 0x00, 0x00, 0x00, 0x00,
;0x00, 0x00, 0x00, 0x00, 0x00, 0x00, 0x00, 0x00,
;0x00, 0x00, 0x00, 0x00, 0xC0, 0xE0, 0xF0, 0xF8,
;0xFC, 0xFC, 0xFE, 0xFE, 0xFF, 0xFF, 0xFF, 0xFF,
;0xFF, 0xFF, 0xFF, 0xFF, 0xFF, 0xFF, 0xFF, 0xFF,
;0xFF, 0xFF, 0xFF, 0xFF, 0xFF, 0xFF, 0xFF, 0xFF,
;0xFF, 0xFF, 0xFF, 0xFF, 0xFF, 0xFF, 0xFF, 0xFF,
;0xFF, 0xFF, 0xFF, 0xFF, 0xFF, 0xFF, 0xFF, 0xFF,
;0xFF, 0xFF, 0xFF, 0xFF, 0xFF, 0xFF, 0xFF, 0xFF,
;0xFF, 0xFF, 0xFF, 0xFF, 0xFF, 0xFF, 0xFF, 0xFF,
;0xFF, 0xFF, 0xFF, 0xFF, 0xFF, 0x7F, 0x7F, 0x7F,
;0x3F, 0x3F, 0x3F, 0x3F, 0x3F, 0x3F, 0x3F, 0x3F,
;0x3F, 0x3F, 0x3F, 0x1F, 0x0F, 0x07, 0x03, 0x00,
;0x00, 0x00, 0x00, 0x00, 0x00, 0x00, 0x00, 0x00,
;0x00, 0x00, 0x00, 0x00, 0x00, 0x00, 0x00, 0x00,
;0x00, 0x00, 0x00, 0x00, 0x00, 0x00, 0x00, 0x00,
;0x00, 0x00, 0x00, 0x00, 0x00, 0x00, 0x00, 0x00,
;0x00, 0x00, 0x00, 0x00, 0x00, 0x00, 0x80, 0xC0,
;0xE0, 0xF8, 0xFC, 0xFF, 0xFF, 0xFF, 0xFF, 0xFF,
;0xFF, 0xFF, 0xFF, 0xFF, 0xFF, 0xFF, 0xFF, 0xFF,
;0xFF, 0xFF, 0xFF, 0xFF, 0xFF, 0xFF, 0xFF, 0xFF,
;0xFF, 0xFF, 0xFF, 0xFF, 0xFF, 0xFF, 0xFF, 0xFF,
;0xFF, 0xFF, 0xFF, 0xFF, 0xFF, 0xFF, 0xFF, 0xFF,
;0xFF, 0xFF, 0xFF, 0xFF, 0xFF, 0xFF, 0xFF, 0xFF,
;0xFF, 0xFF, 0xFF, 0xFF, 0xFF, 0xFF, 0xFF, 0xFF,
;0xFF, 0xFF, 0xFF, 0x7F, 0x7F, 0x3F, 0x3F, 0x1F,
;0x0F, 0x07, 0x03, 0x01, 0x00, 0x00, 0x00, 0x00,
;0x00, 0x00, 0x00, 0x00, 0x00, 0x00, 0x00, 0x00,
;0x00, 0x00, 0x00, 0x00, 0x00, 0x00, 0x00, 0x00,
;0x00, 0x00, 0x00, 0x00, 0x00, 0x00, 0x00, 0x00,
;0x00, 0x04, 0x04, 0x08, 0x18, 0x18, 0x30, 0x30,
;0x70, 0x70, 0xF0, 0xF0, 0xF0, 0xF0, 0xF0, 0xF0,
;0xF0, 0xF0, 0xF0, 0xF0, 0xF0, 0xF0, 0xF0, 0xF0,
;0xF8, 0xF8, 0x7C, 0x7E, 0x3E, 0x3F, 0x1F, 0x0F,
;0x0F, 0x0F, 0x1F, 0x3F, 0x3F, 0x7F, 0x7F, 0xFF,
;0xFF, 0xFF, 0xFF, 0xFF, 0xFF, 0xFF, 0xFF, 0xFF,
;0xFF, 0xFF, 0xFF, 0xFF, 0xFF, 0xFF, 0xFF, 0xFF,
;0xFF, 0x01, 0x03, 0x03, 0x07, 0x07, 0x0F, 0x0F,
;0x1F, 0x1F, 0x3F, 0x3F, 0x7F, 0x7F, 0x7F, 0x7F,
;0xFF, 0xFF, 0xFF, 0xFF, 0xFF, 0xFF, 0xFF, 0xFF,
;0xFF, 0x3F, 0x3F, 0x3F, 0x7F, 0x7F, 0x7F, 0xFF,
;0xFF, 0xFF, 0xFF, 0xFE, 0xFE, 0xFC, 0xF8, 0xF8,
;0xF0, 0xF0, 0xE0, 0xE0, 0xC0, 0xC0, 0x80, 0x00,
;0x00, 0x00, 0x00, 0x00, 0x00, 0x00, 0x00, 0x00,
;0x00, 0x00, 0x00, 0x00, 0x00, 0x00, 0x00, 0x00,
;0x00, 0x00, 0x00, 0x00, 0x00, 0x00, 0x00, 0x00,
;0x00, 0x00, 0x00, 0x00, 0x00, 0x00, 0x00, 0x00,
;0x00, 0x00, 0x00, 0x00, 0x00, 0x01, 0x01, 0x01,
;0x01, 0x01, 0x01, 0x01, 0x01, 0x01, 0x01, 0x01,
;0x00, 0x00, 0x00, 0x00, 0x00, 0x00, 0x00, 0x00,
;0x00, 0x00, 0x00, 0x00, 0x00, 0x00, 0x00, 0x00,
;0x87, 0xFF, 0xFF, 0xFF, 0xFF, 0xFF, 0xFF, 0x3F,
;0x1F, 0x07, 0x07, 0x3F, 0xFF, 0xFF, 0xFF, 0xFF,
;0xFF, 0xF0, 0xC0, 0x80, 0x80, 0x00, 0x00, 0x00,
;0x00, 0x00, 0x80, 0xC0, 0xC0, 0xC0, 0x80, 0x80,
;0x83, 0x07, 0x8F, 0xFF, 0xFF, 0xFF, 0xFF, 0xFF,
;0xFF, 0x00, 0x00, 0x00, 0x00, 0x00, 0x00, 0x00,
;0x00, 0x00, 0x01, 0x01, 0x81, 0x83, 0xC3, 0xC3,
;0xE7, 0xEF, 0xFF, 0xFF, 0xFF, 0xFF, 0xFF, 0x3F,
;0x00, 0x00, 0x00, 0x00, 0x00, 0x00, 0x00, 0x00,
;0x00, 0x00, 0x00, 0x00, 0x00, 0x00, 0x00, 0x00,
;0x00, 0x00, 0x00, 0x00, 0x00, 0x00, 0x00, 0x00,
;0x00, 0x00, 0x00, 0x00, 0x00, 0x00, 0x00, 0x00,
;0x00, 0x00, 0x00, 0x00, 0x00, 0x00, 0x00, 0x00,
;0x00, 0x00, 0x00, 0x00, 0x00, 0x00, 0x00, 0x00,
;0x00, 0x00, 0x00, 0x00, 0x00, 0x00, 0x00, 0x00,
;0x00, 0x00, 0x00, 0x00, 0x00, 0x78, 0xFC, 0xFE,
;0xFF, 0xFF, 0xFF, 0xCF, 0x83, 0x01, 0x00, 0x00,
;0x00, 0x00, 0x00, 0x00, 0x00, 0x01, 0x01, 0x03,
;0x07, 0x0F, 0x0F, 0x1F, 0x3F, 0x7F, 0xFE, 0xFC,
;0xFC, 0xFC, 0xF9, 0xFB, 0xF7, 0xF7, 0xE7, 0xCF,
;0x0F, 0x0F, 0x0F, 0x0F, 0x0F, 0x07, 0x07, 0x03,
;0x00, 0x00, 0x00, 0x00, 0x00, 0x00, 0x00, 0x00,
;0x00, 0x00, 0x02, 0x07, 0x07, 0x0F, 0x0F, 0x0F,
;0x0F, 0x07, 0x07, 0x03, 0x03, 0x01, 0x00, 0x00,
;0x00, 0x00, 0x00, 0x00, 0x00, 0x00, 0x00, 0x00,
;0x00, 0x00, 0x00, 0x00, 0x00, 0x00, 0x00, 0x00,
;0x00, 0x00, 0x00, 0x00, 0x00, 0x00, 0x00, 0x00,
;0x00, 0x00, 0x00, 0x00, 0x00, 0x00, 0x00, 0x00,
;0x00, 0x00, 0x00, 0x00, 0x00, 0x00, 0x00, 0x00,
;0x00, 0x00, 0x00, 0x00, 0x00, 0x00, 0x00, 0x00,
;0x00, 0x00, 0x00, 0x00, 0x00, 0x00, 0x00, 0x00,
;0x00, 0x00, 0x00, 0x00, 0x00, 0x00, 0x00, 0x01,
;0x03, 0x07, 0x0F, 0x1F, 0x1F, 0x3E, 0x7E, 0xFC,
;0xFC, 0xFC, 0xFC, 0xFC, 0xF8, 0x78, 0x60, 0x00,
;0x00, 0x00, 0x00, 0x00, 0x00, 0x00, 0x00, 0x00,
;0x01, 0x01, 0x01, 0x01, 0x01, 0x01, 0x01, 0x01,
;0x00, 0x00, 0x00, 0x00, 0x00, 0x00, 0x00, 0x00,
;0x00, 0x00, 0x00, 0x00, 0x00, 0x00, 0x00, 0x00,
;0x00, 0x00, 0x00, 0x00, 0x00, 0x00, 0x00, 0x00,
;0x00, 0x00, 0x00, 0x00, 0x00, 0x00, 0x00, 0x00,
;0x00, 0x00, 0x00, 0x00, 0x00, 0x00, 0x00, 0x00,
;0x00, 0x00, 0x00, 0x00, 0x00, 0x00, 0x00, 0x00,
;0x00, 0x00, 0x00, 0x00, 0x00, 0x00, 0x00, 0x00
;};
;
;flash unsigned char dog3[1024]={
;0x00, 0x00, 0x00, 0x00, 0x00, 0x00, 0x00, 0x00,
;0x00, 0x00, 0x00, 0x00, 0x00, 0x00, 0x00, 0x00,
;0x00, 0x00, 0x00, 0x00, 0x00, 0x00, 0x00, 0x00,
;0x00, 0x00, 0x00, 0x00, 0x00, 0x00, 0x00, 0x00,
;0x00, 0x00, 0x00, 0x00, 0x00, 0x00, 0x00, 0x00,
;0x00, 0x00, 0x00, 0x00, 0x00, 0x00, 0x00, 0x00,
;0x00, 0x00, 0x00, 0x00, 0x00, 0x00, 0x00, 0x00,
;0x00, 0x00, 0x00, 0x00, 0x00, 0x00, 0x00, 0x00,
;0x00, 0x00, 0x00, 0x00, 0x00, 0x00, 0x00, 0x00,
;0x00, 0x00, 0x00, 0x00, 0x00, 0x00, 0x00, 0x00,
;0x00, 0x00, 0x00, 0x00, 0x00, 0x00, 0x00, 0x00,
;0x00, 0x00, 0x80, 0x80, 0x80, 0x80, 0x80, 0xC0,
;0xC0, 0xC0, 0xC0, 0xC0, 0xC0, 0xE0, 0xE0, 0xE0,
;0xE0, 0xE0, 0xE0, 0xE0, 0xC0, 0x80, 0x80, 0x00,
;0x00, 0x00, 0x00, 0x00, 0x00, 0x00, 0x00, 0x00,
;0x00, 0x00, 0x00, 0x00, 0x00, 0x00, 0x00, 0x00,
;0x00, 0x00, 0x00, 0x00, 0x00, 0x00, 0x00, 0x00,
;0x00, 0x00, 0x00, 0x00, 0x00, 0x00, 0x00, 0x00,
;0x00, 0x00, 0x00, 0x00, 0x00, 0x00, 0x00, 0x00,
;0x00, 0x00, 0x00, 0x00, 0x00, 0x00, 0x00, 0x00,
;0x00, 0x00, 0x00, 0x00, 0x00, 0x00, 0x00, 0x00,
;0x00, 0x00, 0x00, 0x00, 0x00, 0x00, 0x00, 0x00,
;0x00, 0x00, 0x00, 0x00, 0x00, 0x00, 0x00, 0x00,
;0x00, 0x00, 0x00, 0x00, 0x00, 0x00, 0x00, 0x00,
;0x00, 0x00, 0x00, 0x00, 0x00, 0x00, 0x00, 0x00,
;0x80, 0x80, 0x80, 0xC0, 0xC0, 0xC0, 0xC0, 0xC0,
;0xC0, 0xC0, 0xC0, 0xC0, 0xC0, 0xC0, 0xC8, 0xCC,
;0xCE, 0xEF, 0xEF, 0xFF, 0xFF, 0xFF, 0xFF, 0xFF,
;0xFF, 0xFF, 0xFF, 0xFF, 0xFF, 0xFF, 0xFF, 0xFF,
;0xFF, 0xFF, 0xFF, 0xFF, 0xFF, 0xFF, 0xFF, 0xFF,
;0xFE, 0xFC, 0xFC, 0xFC, 0xFC, 0xFC, 0xFC, 0xFC,
;0xFC, 0x1C, 0x00, 0x00, 0x00, 0x00, 0x00, 0x00,
;0x00, 0x00, 0x00, 0x00, 0x00, 0x00, 0x00, 0x00,
;0x00, 0x00, 0x00, 0x00, 0x00, 0x00, 0x00, 0x00,
;0x00, 0x00, 0x00, 0x00, 0x00, 0x00, 0x00, 0x00,
;0x00, 0x00, 0x00, 0x00, 0x00, 0x00, 0x80, 0x80,
;0x80, 0x80, 0x00, 0x80, 0xC0, 0xE0, 0xF0, 0xF0,
;0xF8, 0xF8, 0xFC, 0xFC, 0xFC, 0xFC, 0xFC, 0xFE,
;0xFE, 0xFE, 0xFE, 0xFE, 0xFE, 0xFE, 0xFC, 0xFC,
;0xFC, 0xFC, 0xFC, 0xFC, 0xFC, 0xFC, 0xFC, 0xFC,
;0xFC, 0xFC, 0xFE, 0xFE, 0xFE, 0xFF, 0xFF, 0xFF,
;0xFF, 0xFF, 0xFF, 0xFF, 0xFF, 0xFF, 0xFF, 0xFF,
;0xFF, 0xFF, 0xFF, 0xFF, 0xFF, 0xFF, 0xFF, 0xFF,
;0xFF, 0xFF, 0xFF, 0xFF, 0xFF, 0xFF, 0xFF, 0xFF,
;0xFF, 0xFF, 0xFF, 0x7F, 0x3F, 0x3F, 0x1F, 0x0F,
;0x0F, 0x0F, 0x0F, 0x1F, 0x1F, 0x1F, 0x1F, 0x1F,
;0x1F, 0x0F, 0x0F, 0x0F, 0x0F, 0x07, 0x07, 0x03,
;0x00, 0x00, 0x00, 0x00, 0x00, 0x00, 0x00, 0x00,
;0x00, 0x00, 0x00, 0x00, 0x00, 0x00, 0x00, 0x00,
;0x00, 0x00, 0x00, 0x00, 0x00, 0x00, 0x00, 0x80,
;0xC0, 0xE0, 0xE0, 0xF0, 0xF8, 0xFC, 0x7C, 0x3E,
;0x3E, 0x1F, 0x1F, 0x0F, 0x0F, 0x0F, 0x0F, 0x0F,
;0x0F, 0xFF, 0xFF, 0xFF, 0xFF, 0xFF, 0xFF, 0xFF,
;0xFF, 0xFF, 0xFF, 0xFF, 0xFF, 0xFF, 0xFF, 0xFF,
;0xFF, 0xFF, 0xFF, 0xFF, 0xFF, 0xFF, 0xFF, 0xFF,
;0xFF, 0xFF, 0xFF, 0xFF, 0xFF, 0xFF, 0xFF, 0xFF,
;0xFF, 0xFF, 0xFF, 0xFF, 0xFF, 0xFF, 0xFF, 0xFF,
;0xFF, 0xFF, 0xFF, 0xFF, 0xFF, 0xFF, 0xFF, 0xFF,
;0xFF, 0xFF, 0xFF, 0xFF, 0xFF, 0xFF, 0xFF, 0xFF,
;0xFF, 0xFF, 0xFF, 0xFF, 0xFF, 0xCF, 0x87, 0x87,
;0x83, 0x81, 0x80, 0x80, 0x80, 0x80, 0x80, 0x80,
;0x80, 0xC0, 0xC0, 0xC0, 0xC0, 0x80, 0x80, 0x00,
;0x00, 0x00, 0x00, 0x00, 0x00, 0x00, 0x00, 0x00,
;0x00, 0x00, 0x00, 0x00, 0x00, 0x00, 0x00, 0x00,
;0x00, 0x00, 0x08, 0x08, 0x08, 0x18, 0x18, 0x18,
;0x1C, 0x1C, 0x1C, 0x1C, 0x1E, 0x1F, 0x0F, 0x0F,
;0x07, 0x07, 0x03, 0x01, 0x01, 0x00, 0x00, 0x00,
;0x00, 0x00, 0x00, 0x00, 0x80, 0x80, 0xC0, 0xE0,
;0xF0, 0xF8, 0xFF, 0xFF, 0xFF, 0xFF, 0xFF, 0xFF,
;0xFF, 0xFF, 0xFF, 0xFF, 0xFF, 0xFF, 0xFF, 0xFF,
;0xFF, 0xFF, 0xFF, 0xFF, 0xFF, 0xFF, 0xFF, 0xFF,
;0x0F, 0x0F, 0x0F, 0x1F, 0x1F, 0x3F, 0x3F, 0x3F,
;0x3F, 0x7F, 0x7F, 0x7F, 0x7F, 0x7F, 0xFF, 0xFF,
;0xFF, 0x7F, 0x7F, 0x7F, 0x7F, 0x3F, 0x3F, 0x1F,
;0x1F, 0x3F, 0x7F, 0xFF, 0xFF, 0xFF, 0xFF, 0xFF,
;0xFF, 0xFF, 0xFF, 0xFF, 0xFF, 0xFF, 0xFF, 0xFF,
;0xFF, 0xFF, 0xFF, 0xFF, 0xFF, 0xFF, 0xDF, 0xDF,
;0x8F, 0x0F, 0x0F, 0x0F, 0x0F, 0x1F, 0x3F, 0x7F,
;0x7F, 0xFE, 0xFE, 0xFC, 0xFC, 0xF8, 0xF0, 0xF0,
;0xE0, 0xC0, 0x80, 0x00, 0x00, 0x00, 0x00, 0x00,
;0x00, 0x00, 0x00, 0x00, 0x00, 0x00, 0x00, 0x00,
;0x00, 0x00, 0x00, 0x00, 0x00, 0x00, 0x00, 0x00,
;0x00, 0x00, 0x00, 0x00, 0x00, 0x80, 0xE0, 0xF8,
;0xFC, 0xFC, 0xFE, 0xFF, 0xFF, 0x7F, 0x7F, 0x3F,
;0x3F, 0x1F, 0x1F, 0x0F, 0x0F, 0x07, 0x07, 0x03,
;0x03, 0x03, 0x01, 0x01, 0x03, 0x0F, 0xFF, 0xFF,
;0xFF, 0xFF, 0xFF, 0xFF, 0xFF, 0xFF, 0x3F, 0x0F,
;0x00, 0x00, 0x00, 0x00, 0x00, 0x00, 0x00, 0x00,
;0x00, 0x00, 0x00, 0x00, 0x00, 0x00, 0x00, 0x00,
;0x00, 0x00, 0x00, 0x00, 0x00, 0x00, 0x00, 0x00,
;0x00, 0x00, 0x00, 0x00, 0x00, 0x00, 0x00, 0x00,
;0x00, 0x00, 0x00, 0x00, 0x00, 0x01, 0x01, 0x81,
;0xC1, 0xC1, 0xC3, 0xC3, 0xC3, 0xE7, 0xFF, 0xFF,
;0xFF, 0xFF, 0xFE, 0x38, 0x00, 0x00, 0x00, 0x00,
;0x00, 0x00, 0x01, 0x03, 0x03, 0x03, 0x07, 0x03,
;0x03, 0x03, 0x00, 0x00, 0x00, 0x00, 0x00, 0x00,
;0x00, 0x00, 0x00, 0x00, 0x00, 0x00, 0x00, 0x00,
;0x00, 0x00, 0x00, 0x00, 0x00, 0x00, 0x00, 0x00,
;0x00, 0xE0, 0xF8, 0xFC, 0xFE, 0xFF, 0x7F, 0x1F,
;0x0F, 0x07, 0x03, 0x01, 0x00, 0x00, 0x00, 0x00,
;0x00, 0x00, 0x00, 0x00, 0x00, 0x00, 0x00, 0x00,
;0x00, 0x00, 0x00, 0x00, 0x3C, 0xFF, 0xFF, 0xFF,
;0xFF, 0xFF, 0xFF, 0xFF, 0xE3, 0x80, 0x00, 0x00,
;0x00, 0x00, 0x00, 0x00, 0x00, 0x00, 0x00, 0x00,
;0x00, 0x00, 0x00, 0x00, 0x00, 0x00, 0x00, 0x00,
;0x00, 0x00, 0x00, 0x00, 0x00, 0x00, 0x00, 0x00,
;0x00, 0x00, 0x00, 0x00, 0x00, 0x00, 0x00, 0x00,
;0x00, 0x00, 0x00, 0x00, 0x00, 0x00, 0x00, 0x01,
;0x03, 0x03, 0x07, 0x07, 0x07, 0x07, 0x03, 0x03,
;0x01, 0x01, 0x00, 0x00, 0x00, 0x00, 0x00, 0x00,
;0x00, 0x00, 0x00, 0x00, 0x00, 0x00, 0x00, 0x00,
;0x00, 0x00, 0x00, 0x00, 0x00, 0x00, 0x00, 0x00,
;0x00, 0x00, 0x00, 0x00, 0x00, 0x00, 0x00, 0x00,
;0x00, 0x00, 0x00, 0x00, 0x00, 0x00, 0x00, 0x00,
;0x00, 0x1F, 0x3F, 0x3F, 0x7F, 0x7F, 0x7C, 0x7C,
;0x7C, 0x38, 0x00, 0x00, 0x00, 0x00, 0x00, 0x00,
;0x00, 0x00, 0x00, 0x00, 0x00, 0x00, 0x00, 0x00,
;0x00, 0x00, 0x00, 0x00, 0x00, 0x00, 0x01, 0x01,
;0x03, 0x07, 0x07, 0x0F, 0x1F, 0x3F, 0x7F, 0x7E,
;0x7C, 0x7C, 0x7C, 0x7C, 0x7C, 0x78, 0x70, 0x00,
;0x00, 0x00, 0x00, 0x00, 0x00, 0x00, 0x00, 0x00,
;0x00, 0x00, 0x00, 0x00, 0x00, 0x00, 0x00, 0x00,
;0x00, 0x00, 0x00, 0x00, 0x00, 0x00, 0x00, 0x00,
;0x00, 0x00, 0x00, 0x00, 0x00, 0x00, 0x00, 0x00,
;0x00, 0x00, 0x00, 0x00, 0x00, 0x00, 0x00, 0x00,
;0x00, 0x00, 0x00, 0x00, 0x00, 0x00, 0x00, 0x00,
;0x00, 0x00, 0x00, 0x00, 0x00, 0x00, 0x00, 0x00,
;0x00, 0x00, 0x00, 0x00, 0x00, 0x00, 0x00, 0x00
;};
;
;flash unsigned char dog4[1024]={
;0x00, 0x00, 0x00, 0x00, 0x00, 0x00, 0x00, 0x00,
;0x00, 0x00, 0x00, 0x00, 0x00, 0x00, 0x00, 0x00,
;0x00, 0x00, 0x00, 0x00, 0x00, 0x00, 0x00, 0x00,
;0x00, 0x00, 0x00, 0x00, 0x00, 0x00, 0x00, 0x00,
;0x00, 0x00, 0x00, 0x00, 0x00, 0x00, 0x00, 0x00,
;0x00, 0x00, 0x00, 0x00, 0x00, 0x00, 0x00, 0x00,
;0x00, 0x00, 0x00, 0x00, 0x00, 0x00, 0x00, 0x00,
;0x00, 0x00, 0x00, 0x00, 0x00, 0x00, 0x00, 0x00,
;0x00, 0x00, 0x00, 0x00, 0x00, 0x00, 0x00, 0x00,
;0x00, 0x00, 0x00, 0x00, 0x00, 0x00, 0x00, 0x00,
;0x00, 0x00, 0x00, 0x00, 0x00, 0x00, 0x00, 0x00,
;0x00, 0x00, 0x00, 0x00, 0x00, 0x00, 0x00, 0x00,
;0x00, 0x00, 0x00, 0x00, 0x00, 0x00, 0x00, 0x00,
;0x00, 0x00, 0x00, 0x00, 0x00, 0x00, 0x00, 0x00,
;0x00, 0x00, 0x00, 0x00, 0x00, 0x00, 0x00, 0x00,
;0x00, 0x00, 0x00, 0x00, 0x00, 0x00, 0x00, 0x00,
;0x00, 0x00, 0x00, 0x00, 0x00, 0x00, 0x00, 0x00,
;0x00, 0x00, 0x00, 0x00, 0x00, 0x00, 0x00, 0x00,
;0x00, 0x00, 0x00, 0x00, 0x00, 0x00, 0x00, 0x00,
;0x00, 0x00, 0x00, 0x00, 0x00, 0x00, 0x00, 0x00,
;0x00, 0x00, 0x00, 0x00, 0x00, 0x00, 0x00, 0x00,
;0x00, 0x00, 0x00, 0x00, 0x00, 0x00, 0x00, 0x00,
;0x00, 0x00, 0x00, 0x00, 0x00, 0x00, 0x00, 0x00,
;0x00, 0x00, 0x00, 0x00, 0x00, 0x00, 0x00, 0x00,
;0x00, 0x00, 0x00, 0x00, 0x00, 0x80, 0x80, 0x80,
;0xC0, 0xC0, 0xC0, 0xE0, 0xE0, 0xE0, 0xE0, 0xE0,
;0xE0, 0xE0, 0xE0, 0xE0, 0xC0, 0xC0, 0xC0, 0xC0,
;0xC0, 0xCC, 0xCE, 0xCE, 0xDF, 0xDF, 0xFF, 0xFF,
;0xFF, 0xFF, 0xFF, 0xFF, 0xFE, 0xFE, 0xFE, 0xFF,
;0xFF, 0xFF, 0xFF, 0xFF, 0xFF, 0xFE, 0xFE, 0xFC,
;0xF8, 0xF8, 0xF0, 0xE0, 0xE0, 0xC0, 0xC0, 0xC0,
;0xC0, 0xC0, 0xC0, 0x80, 0x00, 0x00, 0x00, 0x00,
;0x00, 0x00, 0x00, 0x00, 0x00, 0x00, 0x00, 0x80,
;0xC0, 0xE0, 0xE0, 0xF0, 0xF8, 0x78, 0x78, 0x3C,
;0x3C, 0x3C, 0x3E, 0x1E, 0x1E, 0x1E, 0x1F, 0x1F,
;0x0F, 0x0F, 0x1F, 0x1F, 0x1F, 0x1F, 0x3E, 0x3E,
;0x3E, 0x7E, 0xFC, 0xFC, 0xFC, 0xFC, 0xFC, 0xFC,
;0xFE, 0xFE, 0xFE, 0xFE, 0xFF, 0xFF, 0xFF, 0xFF,
;0xFF, 0xFF, 0xFF, 0xFE, 0xFE, 0xFE, 0xFE, 0xFE,
;0xFE, 0xFE, 0xFE, 0xFE, 0xFE, 0xFE, 0xFE, 0xFF,
;0xFF, 0xFF, 0xFF, 0xFF, 0xFF, 0xFF, 0xFF, 0xFF,
;0xFF, 0xFF, 0xFF, 0xFF, 0xFF, 0xFF, 0xFF, 0xFF,
;0xFF, 0xFF, 0xFF, 0xFF, 0xFF, 0xFF, 0xFF, 0xFF,
;0xFF, 0xFF, 0xFF, 0xFF, 0xFF, 0xFF, 0xFF, 0xFF,
;0xFF, 0xFF, 0xFF, 0xFF, 0xFF, 0xFF, 0xFF, 0x7F,
;0x7F, 0x3F, 0x3F, 0x7F, 0x7F, 0x7F, 0x7F, 0xFF,
;0xFF, 0xFF, 0xFF, 0xFF, 0xFF, 0x7F, 0x7F, 0x3F,
;0x1F, 0x0F, 0x07, 0x01, 0x00, 0x00, 0x00, 0x00,
;0x00, 0x20, 0x30, 0x18, 0x0C, 0x0E, 0x07, 0x07,
;0x03, 0x01, 0x01, 0x00, 0x00, 0x00, 0x00, 0x00,
;0x00, 0x00, 0x00, 0x00, 0x00, 0x00, 0x00, 0x00,
;0x00, 0x00, 0x00, 0x00, 0x00, 0xC0, 0xE0, 0xF8,
;0xFC, 0xFF, 0xFF, 0xFF, 0xFF, 0xFF, 0xFF, 0xFF,
;0xFF, 0xFF, 0xFF, 0xFF, 0xFF, 0xFF, 0xFF, 0xFF,
;0xFF, 0xFF, 0xFF, 0xFF, 0xFF, 0xFF, 0xFF, 0xFF,
;0xFF, 0xFF, 0xFF, 0xFF, 0xFF, 0xFF, 0xFF, 0xFF,
;0xFF, 0xFF, 0xFF, 0xFF, 0xFF, 0xFF, 0xFF, 0xFF,
;0xFF, 0xFF, 0xFF, 0xFF, 0xFF, 0xFF, 0xFF, 0xFF,
;0xFF, 0xFF, 0xFF, 0xFF, 0xFF, 0xFF, 0xFF, 0xFF,
;0xFF, 0xFF, 0xFF, 0xFF, 0xFF, 0xFF, 0xFF, 0xFF,
;0xCF, 0xC7, 0xC3, 0xC3, 0xC1, 0xC1, 0xC0, 0xC0,
;0xC0, 0xC0, 0xC0, 0xC0, 0xC0, 0xC0, 0xC0, 0xC0,
;0x80, 0x80, 0x80, 0x00, 0x00, 0x00, 0x00, 0x00,
;0x00, 0x00, 0x00, 0x00, 0x00, 0x00, 0x00, 0x00,
;0x00, 0x00, 0x00, 0x00, 0x00, 0x00, 0x00, 0x00,
;0x00, 0x00, 0x00, 0x00, 0x00, 0x00, 0x80, 0xC0,
;0xE0, 0xE0, 0xE0, 0xE0, 0xF0, 0xF0, 0xF0, 0xF8,
;0xF8, 0xF8, 0xFC, 0xFE, 0xFF, 0xFF, 0xFF, 0xFF,
;0xFF, 0xFF, 0xFF, 0xFF, 0xFF, 0xFF, 0xFF, 0xFF,
;0xFF, 0xFF, 0xFF, 0xFF, 0xFF, 0xFF, 0x7F, 0x1F,
;0x0F, 0x03, 0x01, 0x01, 0x01, 0x01, 0x01, 0x01,
;0x01, 0x01, 0x01, 0x01, 0x03, 0x03, 0x07, 0x07,
;0x0F, 0x0F, 0x1F, 0x1F, 0x1F, 0x3F, 0x3F, 0x3F,
;0x3F, 0x3F, 0x3F, 0x3F, 0x3F, 0x3F, 0x1F, 0x1F,
;0x1F, 0x1F, 0x1F, 0x0F, 0x0F, 0x0F, 0x07, 0x0F,
;0x0F, 0x1F, 0x1F, 0x3F, 0x3F, 0x7F, 0x7F, 0x7F,
;0x7F, 0x7F, 0xFF, 0xFF, 0xFF, 0xFF, 0xF7, 0xE3,
;0xE3, 0xC3, 0xC3, 0x83, 0x83, 0x87, 0x07, 0x07,
;0x0F, 0x0F, 0x0F, 0x1F, 0x1F, 0x1F, 0x1E, 0x9E,
;0x9C, 0x88, 0x80, 0x00, 0x00, 0x00, 0x00, 0x00,
;0x00, 0x00, 0xE0, 0xF0, 0xE0, 0xE0, 0xE0, 0xE0,
;0xF0, 0xF0, 0xF8, 0xFC, 0xFE, 0xFF, 0xFF, 0x7F,
;0x3F, 0x1F, 0x0F, 0x07, 0xC3, 0xF3, 0xFB, 0xFF,
;0xFF, 0xFF, 0xFF, 0xFF, 0x7F, 0x7F, 0x7F, 0x7F,
;0x7F, 0x3F, 0x3F, 0x3F, 0x1F, 0x1F, 0x1F, 0x0F,
;0x0F, 0x07, 0x03, 0x03, 0x01, 0x00, 0x00, 0x00,
;0x00, 0x00, 0x00, 0x00, 0x00, 0x00, 0x00, 0x00,
;0x00, 0x00, 0x00, 0x00, 0x00, 0x00, 0x00, 0x00,
;0x00, 0x00, 0x00, 0x00, 0x00, 0x00, 0x00, 0x00,
;0x00, 0x00, 0x00, 0x00, 0x00, 0x00, 0x00, 0x00,
;0x00, 0x00, 0x00, 0x00, 0x00, 0x00, 0x00, 0x00,
;0x00, 0x00, 0x00, 0x00, 0x00, 0x00, 0x00, 0x00,
;0x00, 0x00, 0x00, 0x00, 0x00, 0x01, 0x01, 0x03,
;0x07, 0x07, 0x0F, 0x0F, 0x0F, 0x0F, 0x0F, 0x0F,
;0x0F, 0x0F, 0x0F, 0x0F, 0x0F, 0x0F, 0x0F, 0x0F,
;0x0F, 0x0F, 0x07, 0x07, 0x00, 0x00, 0x00, 0x00,
;0x00, 0x00, 0x00, 0x01, 0x03, 0x07, 0x07, 0x07,
;0x07, 0x07, 0x07, 0x03, 0x01, 0x01, 0x00, 0x00,
;0x00, 0xF0, 0xFC, 0xFE, 0xFF, 0xFF, 0xFF, 0x3F,
;0x0F, 0x07, 0x01, 0x00, 0x00, 0x00, 0x00, 0x00,
;0x00, 0x00, 0x00, 0x00, 0x00, 0x00, 0x00, 0x00,
;0x00, 0x00, 0x00, 0x00, 0x00, 0x00, 0x00, 0x00,
;0x00, 0x00, 0x00, 0x00, 0x00, 0x00, 0x00, 0x00,
;0x00, 0x00, 0x00, 0x00, 0x00, 0x00, 0x00, 0x00,
;0x00, 0x00, 0x00, 0x00, 0x00, 0x00, 0x00, 0x00,
;0x00, 0x00, 0x00, 0x00, 0x00, 0x00, 0x00, 0x00,
;0x00, 0x00, 0x00, 0x00, 0x00, 0x00, 0x00, 0x00,
;0x00, 0x00, 0x00, 0x00, 0x00, 0x00, 0x00, 0x00,
;0x00, 0x00, 0x00, 0x00, 0x00, 0x00, 0x00, 0x00,
;0x00, 0x00, 0x00, 0x00, 0x00, 0x00, 0x00, 0x00,
;0x00, 0x00, 0x00, 0x00, 0x00, 0x00, 0x00, 0x00,
;0x00, 0x00, 0x00, 0x00, 0x00, 0x00, 0x00, 0x00,
;0x00, 0x00, 0x00, 0x00, 0x00, 0x00, 0x00, 0x00,
;0x00, 0x00, 0x00, 0x00, 0x00, 0x00, 0x00, 0x00,
;0x00, 0x07, 0x1F, 0x3F, 0x3F, 0x7F, 0x7F, 0x7E,
;0x7C, 0x7C, 0x38, 0x00, 0x00, 0x00, 0x00, 0x00,
;0x00, 0x00, 0x00, 0x00, 0x00, 0x00, 0x00, 0x00,
;0x00, 0x00, 0x00, 0x00, 0x00, 0x00, 0x00, 0x00,
;0x00, 0x00, 0x00, 0x00, 0x00, 0x00, 0x00, 0x00,
;0x00, 0x00, 0x00, 0x00, 0x00, 0x00, 0x00, 0x00,
;0x00, 0x00, 0x00, 0x00, 0x00, 0x00, 0x00, 0x00,
;0x00, 0x00, 0x00, 0x00, 0x00, 0x00, 0x00, 0x00,
;0x00, 0x00, 0x00, 0x00, 0x00, 0x00, 0x00, 0x00,
;0x00, 0x00, 0x00, 0x00, 0x00, 0x00, 0x00, 0x00,
;0x00, 0x00, 0x00, 0x00, 0x00, 0x00, 0x00, 0x00,
;0x00, 0x00, 0x00, 0x00, 0x00, 0x00, 0x00, 0x00,
;0x00, 0x00, 0x00, 0x00, 0x00, 0x00, 0x00, 0x00,
;0x00, 0x00, 0x00, 0x00, 0x00, 0x00, 0x00, 0x00
;};
;
;flash unsigned char dog5[1024]={
;0x00, 0x00, 0x00, 0x00, 0x00, 0x00, 0x00, 0x00,
;0x00, 0x00, 0x00, 0x00, 0x00, 0x00, 0x80, 0x80,
;0x80, 0x80, 0xC0, 0xC0, 0xC0, 0xC0, 0xC0, 0xC0,
;0xC0, 0xC0, 0xC0, 0xC0, 0xC0, 0xC0, 0xC0, 0xC0,
;0xC0, 0xC0, 0x80, 0x80, 0x80, 0x00, 0x00, 0x00,
;0x00, 0x00, 0x00, 0x00, 0x00, 0x00, 0x00, 0x00,
;0x00, 0x00, 0x00, 0x00, 0x00, 0x00, 0x00, 0x00,
;0x00, 0x00, 0x00, 0x00, 0x00, 0x00, 0x00, 0x00,
;0x00, 0x00, 0x00, 0x00, 0x00, 0x00, 0x00, 0x00,
;0x00, 0x00, 0x00, 0x00, 0x00, 0x00, 0x00, 0x00,
;0x00, 0x00, 0x00, 0x00, 0x00, 0x00, 0x00, 0x00,
;0x00, 0x00, 0x00, 0x00, 0x00, 0x00, 0x00, 0x00,
;0x00, 0x00, 0x80, 0x80, 0x80, 0x80, 0x80, 0x80,
;0x00, 0x00, 0x00, 0x00, 0x00, 0x00, 0x00, 0x00,
;0x00, 0x00, 0x00, 0x00, 0x00, 0x00, 0x00, 0x00,
;0x00, 0x00, 0x00, 0x00, 0x00, 0x00, 0x00, 0x00,
;0x00, 0x00, 0x00, 0x00, 0x00, 0x00, 0x00, 0x00,
;0x00, 0x02, 0x02, 0x03, 0x01, 0x01, 0x01, 0x01,
;0x01, 0x01, 0x01, 0x01, 0x01, 0x01, 0x01, 0x01,
;0x01, 0x01, 0x01, 0x03, 0x03, 0x03, 0x07, 0x07,
;0x07, 0x0F, 0x0F, 0x1F, 0x3F, 0x3F, 0x7F, 0xFE,
;0xFC, 0xFC, 0xF8, 0xF0, 0xF0, 0xF8, 0xF8, 0xF8,
;0xF8, 0xFC, 0xFC, 0xFC, 0xFC, 0xFC, 0xFC, 0xFC,
;0xFC, 0xF8, 0xF8, 0xF8, 0xF8, 0xF8, 0xF0, 0xF0,
;0xF0, 0xF0, 0xF0, 0xE0, 0xE0, 0xE0, 0xE0, 0xE0,
;0xE0, 0xE0, 0xC0, 0xC0, 0xE0, 0xE0, 0xE0, 0xE0,
;0xE0, 0xE0, 0xE0, 0xE0, 0xE0, 0xF0, 0xF0, 0xE0,
;0xE0, 0xE0, 0xE0, 0xC0, 0xC0, 0x80, 0x80, 0x82,
;0x83, 0x87, 0x87, 0x8F, 0x8F, 0x9F, 0xFF, 0xFF,
;0xFF, 0xFF, 0xFE, 0xFC, 0xF8, 0xF8, 0xF0, 0xF8,
;0xF8, 0xF0, 0xF0, 0xF0, 0xE0, 0xE0, 0xC0, 0x80,
;0x00, 0x00, 0x00, 0x00, 0x00, 0x00, 0x00, 0x00,
;0x00, 0x00, 0x00, 0x00, 0x00, 0x00, 0x00, 0x00,
;0x00, 0x00, 0x00, 0x00, 0x00, 0x00, 0x00, 0x00,
;0x00, 0x00, 0x00, 0x00, 0x00, 0x00, 0x00, 0x00,
;0x00, 0x00, 0x00, 0x00, 0x00, 0x00, 0x00, 0x00,
;0x00, 0x00, 0x00, 0x00, 0x00, 0xC0, 0xF8, 0xFE,
;0xFF, 0xFF, 0xFF, 0xFF, 0xFF, 0xFF, 0xFF, 0xFF,
;0xFF, 0xFF, 0xFF, 0xFF, 0xFF, 0xFF, 0xFF, 0xFF,
;0xFF, 0xFF, 0xFF, 0xFF, 0xFF, 0xFF, 0xFF, 0xFF,
;0xFF, 0xFF, 0xFF, 0xFF, 0xFF, 0xFF, 0xFF, 0xFF,
;0xFF, 0xFF, 0xFF, 0xFF, 0xFF, 0xFF, 0xFF, 0xFF,
;0xFF, 0xFF, 0xFF, 0xFF, 0xFF, 0xFF, 0xFF, 0xFF,
;0xFF, 0xFF, 0xFF, 0xFF, 0xFF, 0xFF, 0xFF, 0xFF,
;0xFF, 0xFF, 0xFF, 0xFF, 0xFF, 0xFF, 0xFF, 0xFF,
;0xFF, 0xFF, 0xFF, 0xFF, 0xFF, 0xFF, 0xFF, 0xFF,
;0xFF, 0xFF, 0xFF, 0xFF, 0xFF, 0xFF, 0xFF, 0xFF,
;0xFF, 0xFF, 0xFE, 0xFC, 0xFC, 0x7C, 0x38, 0x18,
;0x00, 0x00, 0x00, 0x00, 0x00, 0x00, 0x00, 0x00,
;0x00, 0x00, 0x00, 0x00, 0x00, 0x00, 0x00, 0x00,
;0x80, 0x80, 0xC0, 0xE0, 0xF0, 0xFC, 0xFC, 0xFE,
;0x7E, 0x7E, 0xFE, 0xFE, 0xFC, 0xFC, 0xF8, 0xF8,
;0xF0, 0xF0, 0xF8, 0xFC, 0xFE, 0xFF, 0xFF, 0xFF,
;0xFF, 0xFF, 0xFF, 0xFF, 0xFF, 0xFF, 0xFF, 0xFF,
;0xFF, 0xFF, 0xFF, 0xFF, 0xFF, 0x7F, 0x7F, 0x3F,
;0x1F, 0x1F, 0x0F, 0x0F, 0x0F, 0x0F, 0x1F, 0x3F,
;0x7F, 0xFF, 0xFF, 0xFF, 0xFF, 0xFF, 0xFF, 0xFF,
;0xFF, 0xFF, 0xFF, 0xFF, 0xFF, 0xFF, 0xFF, 0xFF,
;0xFF, 0xFF, 0xFF, 0xFF, 0xFF, 0xFF, 0xFF, 0xFF,
;0xFF, 0xFF, 0xFF, 0xFF, 0xFF, 0xFF, 0xFF, 0xFF,
;0xFF, 0x7F, 0x3F, 0x3F, 0x1F, 0x0F, 0x0F, 0x0F,
;0x07, 0x07, 0x07, 0x03, 0x03, 0x03, 0x03, 0x01,
;0x01, 0x01, 0x03, 0x03, 0x03, 0x03, 0x03, 0x03,
;0x03, 0x03, 0x03, 0x01, 0x00, 0x00, 0x00, 0x00,
;0x00, 0x00, 0x00, 0x00, 0x00, 0x00, 0x00, 0x00,
;0x00, 0x00, 0x00, 0x07, 0x1F, 0xBF, 0xFF, 0xFF,
;0xFF, 0xFF, 0xFF, 0xFF, 0xFF, 0xFF, 0xFF, 0x7E,
;0x7E, 0x7F, 0x3F, 0x3F, 0x3F, 0x3F, 0x3F, 0x3F,
;0x7F, 0x7F, 0x7F, 0x7F, 0x3F, 0x3F, 0x3F, 0x1F,
;0x0F, 0x0F, 0x07, 0x07, 0x07, 0x03, 0x03, 0x03,
;0x03, 0x01, 0x01, 0x00, 0x00, 0x00, 0x00, 0x00,
;0x00, 0x00, 0x00, 0x00, 0x00, 0x00, 0x00, 0x00,
;0x00, 0x00, 0x01, 0x03, 0x03, 0x07, 0x07, 0x0F,
;0x0F, 0x0F, 0x1F, 0x1F, 0x1F, 0x1F, 0x1F, 0x1F,
;0x1F, 0x1F, 0x1F, 0x1F, 0x1F, 0x1F, 0xFF, 0xFF,
;0xFF, 0xFF, 0xFF, 0xFF, 0xFF, 0xFF, 0xFF, 0xFF,
;0xFF, 0xFF, 0xFC, 0xF8, 0xF8, 0xF0, 0xF0, 0xF0,
;0xE0, 0xE0, 0xC0, 0xC0, 0x80, 0x80, 0x00, 0x00,
;0x00, 0x00, 0x00, 0x00, 0x00, 0x00, 0x00, 0x00,
;0x00, 0x00, 0x00, 0x00, 0x00, 0x00, 0x00, 0x00,
;0x00, 0x00, 0x70, 0xF0, 0xF8, 0xF8, 0xF8, 0xF8,
;0xFC, 0x7C, 0x7E, 0x7E, 0x3F, 0x1F, 0x1F, 0x0F,
;0x07, 0x07, 0x03, 0x01, 0x01, 0x00, 0x00, 0x00,
;0x00, 0x00, 0x00, 0x00, 0x00, 0x00, 0x00, 0x00,
;0x00, 0x00, 0x00, 0x00, 0x00, 0x00, 0x00, 0x00,
;0x00, 0x00, 0x00, 0x00, 0x00, 0x00, 0x00, 0x00,
;0x00, 0x00, 0x00, 0x00, 0x00, 0x00, 0x00, 0x00,
;0x00, 0x00, 0x00, 0x00, 0x00, 0x00, 0x00, 0x00,
;0x00, 0x00, 0x00, 0x00, 0x00, 0x00, 0x00, 0x00,
;0x00, 0x00, 0x00, 0x00, 0x00, 0x00, 0x00, 0x00,
;0x00, 0x00, 0x00, 0x00, 0x00, 0x00, 0x0F, 0x1F,
;0x7F, 0xFF, 0xFF, 0xFF, 0xFF, 0xFF, 0xFF, 0xF9,
;0xC1, 0x03, 0x03, 0x07, 0x07, 0x0F, 0x0F, 0x0F,
;0x1F, 0x1F, 0x1F, 0x3F, 0x3F, 0x3F, 0x3F, 0x7F,
;0x7E, 0x7E, 0x7C, 0x7C, 0x7C, 0xF8, 0xF8, 0xF8,
;0xFC, 0xFC, 0xFC, 0xFC, 0xFC, 0x7C, 0x3C, 0x18,
;0x00, 0x00, 0x00, 0x00, 0x00, 0x00, 0x00, 0x00,
;0x00, 0x00, 0x00, 0x00, 0x00, 0x00, 0x00, 0x00,
;0x00, 0x00, 0x00, 0x00, 0x00, 0x00, 0x00, 0x00,
;0x00, 0x00, 0x00, 0x00, 0x00, 0x00, 0x00, 0x00,
;0x00, 0x00, 0x00, 0x00, 0x00, 0x00, 0x00, 0x00,
;0x00, 0x00, 0x00, 0x00, 0x00, 0x00, 0x00, 0x00,
;0x00, 0x00, 0x00, 0x00, 0x00, 0x00, 0x00, 0x00,
;0x00, 0x00, 0x00, 0x00, 0x00, 0x00, 0x00, 0x00,
;0x00, 0x00, 0x00, 0x00, 0x00, 0x00, 0x00, 0x00,
;0x00, 0x00, 0x00, 0x00, 0x00, 0x00, 0x00, 0x00,
;0x00, 0x00, 0x00, 0x00, 0x00, 0x00, 0x00, 0x00,
;0x00, 0x00, 0x01, 0x07, 0x0F, 0x1F, 0x3F, 0x7F,
;0xFF, 0xFF, 0xFE, 0xFC, 0xF8, 0xE0, 0xC0, 0x80,
;0x00, 0x00, 0x00, 0x00, 0x00, 0x00, 0x00, 0x00,
;0x00, 0x00, 0x00, 0x00, 0x00, 0x00, 0x00, 0x00,
;0x00, 0x00, 0x00, 0x00, 0x00, 0x00, 0x00, 0x00,
;0x00, 0x00, 0x00, 0x00, 0x00, 0x00, 0x00, 0x00,
;0x00, 0x00, 0x00, 0x00, 0x00, 0x00, 0x00, 0x00,
;0x00, 0x00, 0x00, 0x00, 0x00, 0x00, 0x00, 0x00,
;0x00, 0x00, 0x00, 0x00, 0x00, 0x00, 0x00, 0x00,
;0x00, 0x00, 0x00, 0x00, 0x00, 0x00, 0x00, 0x00,
;0x00, 0x00, 0x00, 0x00, 0x00, 0x00, 0x00, 0x00,
;0x00, 0x00, 0x00, 0x00, 0x00, 0x00, 0x00, 0x00,
;0x00, 0x00, 0x00, 0x00, 0x00, 0x00, 0x00, 0x00,
;0x00, 0x00, 0x00, 0x00, 0x00, 0x00, 0x00, 0x00,
;0x00, 0x00, 0x00, 0x00, 0x00, 0x00, 0x00, 0x00,
;0x00, 0x00, 0x00, 0x00, 0x00, 0x00, 0x00, 0x00,
;0x00, 0x00, 0x00, 0x00, 0x00, 0x00, 0x00, 0x00,
;0x01, 0x03, 0x07, 0x0F, 0x1F, 0x1F, 0x3F, 0x7F,
;0x7F, 0x7E, 0x7C, 0x7C, 0x7C, 0x7C, 0x7C, 0x3C,
;0x3C, 0x38, 0x00, 0x00, 0x00, 0x00, 0x00, 0x00,
;0x00, 0x00, 0x00, 0x00, 0x00, 0x00, 0x00, 0x00
;};
;
;flash unsigned char dog6[1024]={
;0x00, 0x00, 0x00, 0x00, 0x00, 0x00, 0x00, 0x00,
;0x00, 0x00, 0x00, 0x00, 0x00, 0x00, 0x08, 0x08,
;0x0C, 0x0C, 0x06, 0x06, 0x06, 0x07, 0x07, 0x07,
;0x0F, 0x1F, 0x1E, 0x3E, 0x7E, 0x7C, 0xFC, 0xF8,
;0xF8, 0xF0, 0xE0, 0xE0, 0xC0, 0x80, 0x00, 0x00,
;0x00, 0x00, 0x00, 0x00, 0x00, 0x00, 0x00, 0x00,
;0x00, 0x00, 0x00, 0x00, 0x00, 0x00, 0x00, 0x00,
;0x00, 0x00, 0x00, 0x00, 0x00, 0x00, 0x00, 0x00,
;0x00, 0x00, 0x00, 0x00, 0x00, 0x00, 0x00, 0x00,
;0x00, 0x00, 0x00, 0x00, 0x00, 0x00, 0x00, 0x00,
;0x00, 0x00, 0x00, 0x00, 0x00, 0x00, 0x00, 0x00,
;0x00, 0x00, 0x00, 0x00, 0x00, 0x00, 0x00, 0x00,
;0x00, 0x00, 0x00, 0x00, 0x00, 0x00, 0x00, 0x00,
;0x00, 0x00, 0x00, 0x00, 0x00, 0x00, 0x00, 0x00,
;0x00, 0x00, 0x00, 0x00, 0x00, 0x00, 0x00, 0x00,
;0x00, 0x00, 0x00, 0x00, 0x00, 0x00, 0x00, 0x00,
;0x00, 0x00, 0x00, 0x00, 0x00, 0x00, 0x00, 0x00,
;0x00, 0x00, 0x00, 0x00, 0x00, 0x00, 0x00, 0x00,
;0x00, 0x00, 0x00, 0x00, 0x00, 0x00, 0x00, 0x00,
;0x00, 0x00, 0x00, 0x00, 0x00, 0x00, 0x00, 0x01,
;0x03, 0x03, 0x07, 0x0F, 0x0F, 0x1F, 0x3F, 0x3F,
;0x7E, 0xFC, 0xFC, 0xF8, 0xF8, 0xF8, 0xF8, 0xFC,
;0xFC, 0xFC, 0xFC, 0xFC, 0xFC, 0xFC, 0xFC, 0xFC,
;0xFC, 0xFC, 0xF8, 0xF8, 0xF8, 0xF0, 0xF0, 0xE0,
;0xE0, 0xC0, 0xC0, 0x80, 0x80, 0x80, 0x00, 0x00,
;0x00, 0x00, 0x00, 0x00, 0x00, 0x00, 0x00, 0x00,
;0x00, 0x00, 0x00, 0x00, 0x00, 0x00, 0x00, 0x00,
;0x00, 0x00, 0x00, 0x00, 0x00, 0x00, 0x00, 0x00,
;0x30, 0x78, 0xF8, 0xF8, 0xF8, 0xF8, 0xF0, 0xE0,
;0xC0, 0x80, 0x00, 0x00, 0x00, 0x00, 0x00, 0x00,
;0x00, 0x00, 0x00, 0x00, 0x00, 0x00, 0x00, 0x00,
;0x00, 0x00, 0x00, 0x00, 0x00, 0x00, 0x00, 0x00,
;0x00, 0x00, 0x00, 0x00, 0x00, 0x00, 0x00, 0x00,
;0x00, 0x00, 0x00, 0x00, 0x00, 0x00, 0x00, 0x00,
;0x00, 0x00, 0x00, 0x00, 0x00, 0x80, 0xC0, 0xE0,
;0xF0, 0xF8, 0xF8, 0xF8, 0xF8, 0xF0, 0xF0, 0xC0,
;0x80, 0x80, 0x80, 0x80, 0x80, 0xE0, 0xF0, 0xF8,
;0xFF, 0xFF, 0xFF, 0xFF, 0xFF, 0xFF, 0xFF, 0xFF,
;0xFF, 0xFF, 0xFF, 0xFF, 0xFF, 0xFF, 0xFF, 0xFF,
;0xFF, 0xFF, 0xFF, 0xFF, 0xFF, 0xFF, 0xFF, 0xFF,
;0xFF, 0xFF, 0xFF, 0xFF, 0xFF, 0xFF, 0xFF, 0xFF,
;0xFE, 0xFE, 0xFE, 0xFE, 0xFE, 0xFE, 0xFE, 0xFC,
;0xFC, 0xFC, 0xFC, 0xFC, 0xFC, 0xFC, 0xFC, 0xFC,
;0xF8, 0xF8, 0xF8, 0xF0, 0xE0, 0xE0, 0xE0, 0xE0,
;0xE0, 0xE0, 0xE0, 0xE3, 0xFF, 0xFF, 0xFF, 0xFF,
;0xFF, 0xFF, 0xFE, 0xFE, 0xFE, 0xFE, 0xFE, 0xFE,
;0xFE, 0xFC, 0xF8, 0xF0, 0xE0, 0xC0, 0x80, 0x00,
;0x00, 0x00, 0x00, 0x00, 0x00, 0x00, 0x00, 0x00,
;0x00, 0x00, 0x00, 0x00, 0x00, 0x00, 0x00, 0xE0,
;0xE0, 0xE0, 0xF0, 0xF0, 0xF0, 0xF0, 0xF8, 0xF8,
;0xFC, 0xFC, 0xFE, 0x7F, 0x7F, 0x3F, 0x1F, 0x0F,
;0x0F, 0x07, 0x07, 0x07, 0x87, 0x8F, 0xCF, 0xFF,
;0xFF, 0xFF, 0xFF, 0xFF, 0xFF, 0xFF, 0xFF, 0xFF,
;0xFF, 0xFF, 0xFF, 0xFF, 0xFF, 0xFF, 0xFF, 0xFF,
;0xFF, 0xFF, 0xFF, 0xFF, 0xFF, 0xFF, 0xFF, 0xFF,
;0xFF, 0xFF, 0xFF, 0x7F, 0x3F, 0x7F, 0xFF, 0xFF,
;0xFF, 0xFF, 0xFF, 0xFF, 0xFF, 0xFF, 0xFF, 0xFF,
;0xFF, 0xFF, 0xFF, 0xFF, 0xFF, 0xFF, 0xFF, 0xFF,
;0xFF, 0xFF, 0xFF, 0xFF, 0xFF, 0xFF, 0xFF, 0xFF,
;0xFF, 0xFF, 0xFF, 0xFF, 0xFF, 0xFF, 0xFF, 0xFF,
;0xFF, 0xFF, 0xFF, 0xFF, 0xFF, 0xFF, 0xFF, 0xFF,
;0xFF, 0xFF, 0xFF, 0xFF, 0xFF, 0xFF, 0xFF, 0xFF,
;0xFF, 0xFF, 0xFF, 0xFF, 0xFF, 0xFF, 0xFF, 0xFF,
;0xFF, 0xFE, 0xFE, 0x7E, 0x3C, 0x0C, 0x00, 0x00,
;0x00, 0x00, 0x00, 0x00, 0x00, 0x00, 0x00, 0x00,
;0x01, 0x01, 0x03, 0x03, 0x03, 0x03, 0x03, 0x03,
;0x03, 0x01, 0x00, 0x00, 0x1C, 0x3E, 0x3E, 0x3E,
;0x3E, 0x3F, 0x3F, 0x1F, 0x1F, 0x1F, 0x1F, 0x0F,
;0x0F, 0x0F, 0x07, 0x03, 0x03, 0x03, 0x03, 0x03,
;0x03, 0x03, 0x03, 0x03, 0x03, 0x03, 0x03, 0x01,
;0x03, 0x03, 0x03, 0x03, 0x03, 0x01, 0x01, 0x01,
;0x01, 0x00, 0x00, 0x00, 0x00, 0x00, 0x01, 0x03,
;0x07, 0x0F, 0x0F, 0x1F, 0x1F, 0xBF, 0xFF, 0xFF,
;0xFF, 0xFF, 0xFF, 0xFF, 0xFF, 0xFF, 0xFF, 0xFF,
;0xFF, 0xFF, 0xFF, 0xFF, 0xFF, 0xFF, 0xFF, 0xFF,
;0xFF, 0xFF, 0xFF, 0xFF, 0xFF, 0x9F, 0x1F, 0x0F,
;0x0F, 0x07, 0x07, 0x03, 0x03, 0x03, 0x01, 0x01,
;0x01, 0x01, 0x00, 0x00, 0x00, 0x00, 0x01, 0x01,
;0x03, 0x03, 0x03, 0x03, 0x03, 0x03, 0x03, 0x03,
;0x01, 0x01, 0x00, 0x00, 0x00, 0x00, 0x00, 0x00,
;0x00, 0x00, 0x00, 0x00, 0x00, 0x00, 0x00, 0x00,
;0x00, 0x00, 0x00, 0x00, 0x00, 0x00, 0x00, 0x00,
;0x00, 0x00, 0x00, 0x00, 0x00, 0x00, 0x00, 0x00,
;0x00, 0x00, 0x00, 0x00, 0x00, 0x00, 0x00, 0x00,
;0x00, 0x00, 0x00, 0x00, 0x00, 0x00, 0x00, 0x00,
;0x00, 0x00, 0x00, 0x00, 0x00, 0x00, 0x00, 0x00,
;0x00, 0x00, 0x00, 0x00, 0x00, 0x00, 0x00, 0x00,
;0x00, 0x00, 0x00, 0x00, 0x00, 0x00, 0x00, 0x00,
;0x00, 0xC0, 0xF0, 0xFC, 0xFF, 0xFF, 0xFF, 0xFF,
;0xFF, 0x7F, 0x3F, 0x1F, 0x0F, 0x07, 0x03, 0x01,
;0x01, 0x01, 0x01, 0x03, 0x0F, 0x0F, 0x1F, 0x3F,
;0x3F, 0x7F, 0x7F, 0xFF, 0xFF, 0xFF, 0xFF, 0xFE,
;0xFC, 0xF8, 0xF0, 0xE0, 0xC0, 0x80, 0x00, 0x00,
;0x00, 0x00, 0x00, 0x00, 0x00, 0x00, 0x00, 0x00,
;0x00, 0x00, 0x00, 0x00, 0x00, 0x00, 0x00, 0x00,
;0x00, 0x00, 0x00, 0x00, 0x00, 0x00, 0x00, 0x00,
;0x00, 0x00, 0x00, 0x00, 0x00, 0x00, 0x00, 0x00,
;0x00, 0x00, 0x00, 0x00, 0x00, 0x00, 0x00, 0x00,
;0x00, 0x00, 0x00, 0x00, 0x00, 0x00, 0x00, 0x00,
;0x00, 0x00, 0x00, 0x00, 0x00, 0x00, 0x00, 0x00,
;0x00, 0x00, 0x00, 0x00, 0x00, 0x00, 0x00, 0x00,
;0x00, 0x00, 0x00, 0x00, 0x00, 0x00, 0x00, 0x00,
;0x00, 0x00, 0x00, 0x00, 0x00, 0x00, 0x00, 0x00,
;0x00, 0x00, 0x00, 0x00, 0x00, 0x00, 0xE0, 0xFC,
;0xFF, 0xFF, 0xFF, 0x3F, 0x1F, 0x07, 0x03, 0x01,
;0x00, 0x00, 0x00, 0x00, 0x00, 0x00, 0x00, 0x00,
;0x00, 0x00, 0x00, 0x00, 0x00, 0x00, 0x00, 0x00,
;0x00, 0x00, 0x00, 0x00, 0x00, 0x01, 0x01, 0x03,
;0x03, 0x07, 0x0F, 0x1F, 0x1F, 0x3F, 0x7F, 0x7E,
;0xFC, 0xF8, 0xF8, 0xF0, 0xF0, 0xE0, 0xE0, 0xE0,
;0xE0, 0xE0, 0xE0, 0xC0, 0x80, 0x00, 0x00, 0x00,
;0x00, 0x00, 0x00, 0x00, 0x00, 0x00, 0x00, 0x00,
;0x00, 0x00, 0x00, 0x00, 0x00, 0x00, 0x00, 0x00,
;0x00, 0x00, 0x00, 0x00, 0x00, 0x00, 0x00, 0x00,
;0x00, 0x00, 0x00, 0x00, 0x00, 0x00, 0x00, 0x00,
;0x00, 0x00, 0x00, 0x00, 0x00, 0x00, 0x00, 0x00,
;0x00, 0x00, 0x00, 0x00, 0x00, 0x00, 0x00, 0x00,
;0x00, 0x00, 0x00, 0x00, 0x00, 0x00, 0x00, 0x00,
;0x00, 0x00, 0x00, 0x00, 0x00, 0x00, 0x00, 0x00,
;0x00, 0x00, 0x00, 0x00, 0x00, 0x00, 0x1F, 0x3F,
;0x3F, 0x7F, 0x7F, 0x7F, 0x7E, 0x7C, 0x30, 0x00,
;0x00, 0x00, 0x00, 0x00, 0x00, 0x00, 0x00, 0x00,
;0x00, 0x00, 0x00, 0x00, 0x00, 0x00, 0x00, 0x00,
;0x00, 0x00, 0x00, 0x00, 0x00, 0x00, 0x00, 0x00,
;0x00, 0x00, 0x00, 0x00, 0x00, 0x00, 0x00, 0x00,
;0x00, 0x01, 0x01, 0x01, 0x03, 0x03, 0x03, 0x03,
;0x03, 0x03, 0x03, 0x03, 0x03, 0x00, 0x00, 0x00,
;0x00, 0x00, 0x00, 0x00, 0x00, 0x00, 0x00, 0x00
;};
;//end of the running dog pictures
;
;
;//tiger
;flash unsigned char image0[1024]=
;{
;0x00, 0x00, 0x00, 0x00, 0x00, 0x00, 0x00, 0x00,
;0x00, 0x00, 0x00, 0x00, 0x00, 0x00, 0x00, 0x00,
;0x00, 0x00, 0x00, 0x00, 0x00, 0x00, 0x00, 0x00,
;0x00, 0x00, 0x00, 0x00, 0x00, 0x00, 0x00, 0x00,
;0x00, 0x00, 0x00, 0x00, 0x00, 0x00, 0x00, 0x00,
;0x00, 0x00, 0x00, 0x00, 0x00, 0x00, 0x80, 0x00,
;0x00, 0x00, 0x80, 0x00, 0x00, 0x00, 0x00, 0x00,
;0x00, 0x00, 0x00, 0x00, 0x00, 0x00, 0x00, 0x00,
;0x00, 0x00, 0x00, 0x00, 0x00, 0x00, 0x00, 0x00,
;0x00, 0x00, 0x00, 0x00, 0x00, 0x00, 0x00, 0x00,
;0x00, 0x00, 0x00, 0x00, 0x00, 0x00, 0x00, 0x00,
;0x00, 0x00, 0x00, 0x00, 0x00, 0x00, 0x00, 0x00,
;0x00, 0x00, 0x00, 0x00, 0x00, 0x00, 0x00, 0x00,
;0x00, 0x00, 0x00, 0x00, 0x00, 0x00, 0x00, 0x00,
;0x00, 0x00, 0x00, 0x00, 0x00, 0x00, 0x00, 0x00,
;0x00, 0x00, 0x00, 0x00, 0x00, 0x00, 0x00, 0x00,
;0x00, 0x00, 0x00, 0x00, 0x00, 0x00, 0x00, 0x00,
;0x00, 0x00, 0x80, 0x80, 0xC0, 0x80, 0x00, 0x00,
;0x00, 0x00, 0x00, 0x00, 0x00, 0x00, 0x80, 0x00,
;0x02, 0x00, 0x28, 0xEC, 0xEC, 0xF4, 0xF0, 0xF8,
;0xF8, 0x18, 0x48, 0x48, 0xE8, 0xE8, 0x28, 0x10,
;0xD0, 0xD0, 0x90, 0xF0, 0xD0, 0xD1, 0xF8, 0xF8,
;0xFE, 0x61, 0xC2, 0xC0, 0x00, 0x00, 0x00, 0x00,
;0x00, 0x00, 0x00, 0x00, 0x00, 0x00, 0x00, 0x00,
;0x00, 0x00, 0x00, 0x00, 0x00, 0x00, 0x00, 0x00,
;0x00, 0x00, 0x00, 0x00, 0x00, 0x00, 0x00, 0x00,
;0x00, 0x00, 0x00, 0x00, 0x00, 0x00, 0x00, 0x00,
;0x00, 0x00, 0x00, 0x00, 0x00, 0x00, 0x00, 0x00,
;0x00, 0x00, 0x00, 0x00, 0x00, 0x00, 0x00, 0x00,
;0x00, 0x00, 0x00, 0x00, 0x00, 0x00, 0x00, 0x00,
;0x00, 0x00, 0x00, 0x00, 0x00, 0x00, 0x00, 0x00,
;0x00, 0x00, 0x00, 0x00, 0x00, 0x00, 0x00, 0x00,
;0xF0, 0x10, 0x08, 0x00, 0x80, 0xC0, 0xE0, 0xF0,
;0xB0, 0x47, 0x2F, 0x07, 0x0B, 0x05, 0x02, 0x00,
;0x00, 0x00, 0x00, 0x00, 0x00, 0x00, 0x80, 0xC0,
;0xE0, 0xD0, 0xA0, 0x88, 0xE0, 0xE5, 0xFB, 0xE1,
;0x22, 0x06, 0x03, 0x3D, 0xFF, 0xFF, 0xFE, 0x73,
;0x79, 0x79, 0x4C, 0x66, 0xB3, 0x7B, 0xFE, 0xFB,
;0x1A, 0x31, 0xEB, 0x53, 0xEA, 0xF4, 0xEC, 0xF8,
;0xA0, 0x00, 0x80, 0x00, 0x00, 0x00, 0x00, 0x00,
;0x00, 0x00, 0x00, 0x00, 0x00, 0x00, 0x00, 0x00,
;0x00, 0x00, 0x00, 0x00, 0x00, 0x00, 0x00, 0x00,
;0x00, 0x00, 0x00, 0x00, 0x00, 0x00, 0x00, 0x00,
;0x00, 0x00, 0x00, 0x00, 0x00, 0x00, 0x00, 0x00,
;0x00, 0x00, 0x00, 0x00, 0x00, 0x00, 0x00, 0x00,
;0x00, 0x00, 0x00, 0x00, 0x00, 0x00, 0x00, 0x00,
;0x00, 0x00, 0x00, 0x00, 0x00, 0x00, 0x00, 0x00,
;0x00, 0x00, 0x00, 0x00, 0x00, 0x00, 0x00, 0x00,
;0x80, 0x40, 0xB8, 0x7C, 0xFE, 0xFE, 0xFE, 0xFD,
;0xFA, 0xFC, 0xFE, 0xD0, 0x28, 0xD0, 0x80, 0x00,
;0x08, 0x00, 0x80, 0x40, 0xE8, 0xE0, 0xFA, 0xDD,
;0xCF, 0x0D, 0x0F, 0xCF, 0xFF, 0xFF, 0x9F, 0x0F,
;0x0C, 0x18, 0x18, 0xF8, 0xF1, 0x41, 0xE3, 0xC5,
;0xA4, 0x24, 0x40, 0x00, 0x82, 0xC2, 0x81, 0x09,
;0x1B, 0x18, 0x33, 0x7F, 0xFF, 0xFF, 0xFF, 0xFF,
;0xFF, 0xF0, 0xF0, 0xE0, 0x80, 0x00, 0x00, 0x00,
;0x00, 0x00, 0x00, 0x00, 0x00, 0x00, 0x00, 0x00,
;0x00, 0x00, 0x00, 0x00, 0x00, 0x00, 0x00, 0x00,
;0x00, 0x00, 0x00, 0x00, 0x00, 0x00, 0x00, 0x00,
;0x00, 0x00, 0x00, 0x00, 0x00, 0x00, 0x00, 0x00,
;0x00, 0x00, 0x00, 0x00, 0x00, 0x00, 0x00, 0x00,
;0x00, 0x00, 0x00, 0x00, 0x00, 0x00, 0x00, 0x00,
;0x00, 0x00, 0x00, 0x00, 0x00, 0x00, 0x00, 0x00,
;0x00, 0x00, 0x00, 0x00, 0x00, 0x00, 0x00, 0x00,
;0xBE, 0xDC, 0xAA, 0x76, 0xAA, 0x94, 0x8F, 0x17,
;0x22, 0x67, 0x0A, 0x00, 0x08, 0x03, 0x02, 0x00,
;0x00, 0x14, 0xAA, 0xF0, 0xE3, 0x0F, 0xFF, 0xFF,
;0xFF, 0xF0, 0x80, 0x00, 0xE0, 0xF1, 0xFF, 0xF0,
;0xE0, 0x00, 0x00, 0x7F, 0x21, 0x00, 0x08, 0x00,
;0x30, 0x01, 0x80, 0x56, 0xE7, 0x57, 0x2A, 0x37,
;0x16, 0xEC, 0xEE, 0xFF, 0xBA, 0xD9, 0xFB, 0xFF,
;0xDF, 0x1F, 0x3B, 0x7F, 0xFF, 0xFF, 0xFE, 0xFC,
;0xF8, 0xE0, 0x80, 0x00, 0x00, 0x00, 0x00, 0x00,
;0x00, 0x00, 0x00, 0x00, 0x00, 0x00, 0x00, 0x00,
;0x00, 0x00, 0x00, 0x00, 0x00, 0x00, 0x00, 0x00,
;0x00, 0x00, 0x00, 0x00, 0x00, 0x00, 0x00, 0x00,
;0x00, 0x00, 0x00, 0x00, 0x00, 0x00, 0x00, 0x00,
;0x00, 0x00, 0x00, 0x00, 0x00, 0x00, 0x00, 0x00,
;0x00, 0x00, 0x00, 0x00, 0x00, 0x00, 0x00, 0x00,
;0x00, 0x00, 0x00, 0x00, 0x00, 0x00, 0x00, 0x00,
;0xB3, 0x75, 0xF8, 0xC0, 0xC9, 0x85, 0xAA, 0x11,
;0xEB, 0x80, 0x80, 0x00, 0x00, 0x00, 0x00, 0x00,
;0x00, 0x00, 0x0E, 0x04, 0x2B, 0x1F, 0xFE, 0x7F,
;0xE3, 0x1F, 0xBF, 0xF0, 0xE3, 0xCF, 0x2B, 0x61,
;0xA3, 0xC0, 0x20, 0x08, 0x00, 0x00, 0x00, 0x00,
;0x00, 0x00, 0x00, 0x01, 0x01, 0x00, 0x00, 0x04,
;0x13, 0x11, 0x15, 0x15, 0x97, 0x15, 0x97, 0x95,
;0x17, 0x16, 0x1C, 0x18, 0x30, 0x00, 0x00, 0x00,
;0x00, 0x10, 0x08, 0x00, 0x00, 0x00, 0x00, 0x00,
;0x00, 0x00, 0x00, 0x00, 0x00, 0x00, 0x00, 0x00,
;0x00, 0x00, 0x00, 0x00, 0x00, 0x00, 0x00, 0x00,
;0x00, 0x00, 0x00, 0x00, 0x00, 0x00, 0x00, 0x00,
;0x00, 0x00, 0x00, 0x00, 0x00, 0x00, 0x00, 0x00,
;0x00, 0x00, 0x00, 0x00, 0x00, 0x00, 0x00, 0x00,
;0x00, 0x00, 0x00, 0x00, 0x00, 0x00, 0x00, 0x00,
;0x00, 0x00, 0x00, 0x00, 0x00, 0x00, 0x00, 0x00,
;0xF8, 0xF0, 0xA0, 0x61, 0x82, 0x01, 0x8A, 0x8F,
;0x8E, 0x15, 0x0E, 0x14, 0x08, 0x00, 0x80, 0x00,
;0x00, 0x00, 0x00, 0x00, 0x00, 0x00, 0x01, 0x01,
;0x03, 0x00, 0x00, 0x01, 0x2F, 0x07, 0x28, 0x00,
;0x01, 0x01, 0x08, 0x00, 0x00, 0x00, 0x00, 0x00,
;0x00, 0x00, 0x00, 0x00, 0x00, 0x00, 0x00, 0x00,
;0x00, 0x00, 0x00, 0x00, 0x00, 0x00, 0x00, 0x00,
;0x00, 0x00, 0x00, 0x00, 0x00, 0x00, 0x00, 0x00,
;0x00, 0x00, 0x00, 0x00, 0x00, 0x00, 0x00, 0x00,
;0x00, 0x00, 0x00, 0x00, 0x00, 0x00, 0x00, 0x00,
;0x00, 0x00, 0x00, 0x00, 0x00, 0x00, 0x00, 0x00,
;0x00, 0x00, 0x00, 0x00, 0x00, 0x00, 0x00, 0x00,
;0x00, 0x00, 0x00, 0x00, 0x00, 0x00, 0x00, 0x00,
;0x00, 0x00, 0x00, 0x00, 0x00, 0x00, 0x00, 0x00,
;0x00, 0x00, 0x00, 0x00, 0x00, 0x00, 0x00, 0x00,
;0x00, 0x00, 0x00, 0x00, 0x00, 0x00, 0x00, 0x00,
;0xBB, 0x56, 0xAA, 0x76, 0xBA, 0x08, 0xFA, 0x31,
;0xA2, 0x42, 0xC2, 0x00, 0x80, 0x40, 0x02, 0x00,
;0x02, 0x40, 0x00, 0x00, 0x00, 0x00, 0x00, 0x00,
;0x20, 0x00, 0x00, 0x00, 0x00, 0x00, 0x00, 0x00,
;0x00, 0x00, 0x00, 0x00, 0x00, 0x00, 0x00, 0x00,
;0x00, 0x00, 0x00, 0x00, 0x00, 0x00, 0x00, 0x00,
;0x00, 0x00, 0x00, 0x00, 0x00, 0x00, 0x00, 0x00,
;0x00, 0x00, 0x00, 0x00, 0x00, 0x00, 0x00, 0x00,
;0x00, 0x00, 0x00, 0x00, 0x00, 0x00, 0x00, 0x00,
;0x00, 0x00, 0x00, 0x00, 0x00, 0x00, 0x00, 0x00,
;0x00, 0x00, 0x00, 0x00, 0x00, 0x00, 0x00, 0x00,
;0x00, 0x00, 0x00, 0x00, 0x00, 0x00, 0x00, 0x00,
;0x00, 0x00, 0x00, 0x00, 0x00, 0x00, 0x00, 0x00,
;0x00, 0x00, 0x00, 0x00, 0x00, 0x00, 0x00, 0x00,
;0x00, 0x00, 0x00, 0x00, 0x00, 0x00, 0x00, 0x00,
;0x00, 0x00, 0x00, 0x00, 0x00, 0x00, 0x00, 0x00
;};
;
;//avr image
;flash unsigned char image1[1024] =
;{
;0x00,0xFE,0x02,0x02,0x02,0x02,0x02,0x02,
;0x02,0x02,0x02,0x02,0x02,0x02,0x02,0x02,
;0x02,0x02,0x02,0x02,0x02,0x02,0x02,0x02,
;0x02,0x02,0x02,0x02,0x02,0x02,0x02,0x02,
;0x02,0x02,0x02,0x02,0x02,0x02,0x02,0x02,
;0x02,0x02,0x02,0x02,0x02,0x02,0x02,0x02,
;0x02,0x02,0x02,0x02,0x02,0x02,0x02,0x02,
;0x02,0x02,0x02,0x02,0x02,0x02,0x02,0x02,
;0x02,0x02,0x02,0x02,0x02,0x02,0x02,0x02,
;0x02,0x02,0x02,0x02,0x02,0x02,0x02,0x02,
;0x02,0x02,0x02,0x02,0x02,0x02,0x02,0x02,
;0x02,0x02,0x02,0x02,0x02,0x02,0x02,0x02,
;0x02,0x02,0x02,0x02,0x02,0x02,0x02,0x02,
;0x02,0x02,0x02,0x02,0x02,0x02,0x02,0x02,
;0x02,0x02,0x02,0x02,0x02,0x02,0x02,0x02,
;0x02,0x02,0x02,0x02,0x02,0x02,0xFE,0x00,
;0x00,0xFF,0x00,0x00,0x00,0x00,0x00,0xFF,
;0xFF,0x07,0x1E,0x38,0x60,0xC0,0x60,0x30,
;0x1E,0x07,0xFF,0xFF,0x00,0x00,0xFF,0xFF,
;0x83,0x83,0x83,0x83,0x83,0x83,0x83,0x00,
;0x00,0xFC,0xFC,0x06,0x03,0x03,0x83,0x83,
;0x83,0x8F,0x8E,0x00,0x00,0xF0,0xF8,0x8C,
;0x84,0x86,0x83,0x83,0x83,0x86,0x8C,0x8C,
;0xF8,0xF0,0x00,0x00,0x80,0x80,0x80,0x80,
;0x80,0x80,0x00,0x00,0xF0,0xF8,0x9C,0x8C,
;0x86,0x87,0x83,0x83,0x87,0x8E,0x9C,0xF8,
;0xF0,0x00,0x00,0xFF,0xFF,0x00,0x00,0x00,
;0x00,0x00,0x00,0x00,0x00,0x00,0xFF,0xFF,
;0x00,0x00,0xFC,0xFE,0x83,0x83,0x83,0x83,
;0x83,0x83,0x83,0xFE,0x3C,0x00,0x00,0x00,
;0x00,0x00,0x00,0x00,0x00,0x00,0x00,0x00,
;0x00,0x00,0x00,0x00,0x00,0x00,0xFF,0x00,
;0x00,0xFF,0x00,0x00,0x00,0x00,0x00,0xFF,
;0xFF,0x00,0x00,0x00,0x00,0x00,0x00,0x00,
;0x00,0x00,0xFF,0xFF,0x00,0x00,0xFF,0xFF,
;0xC1,0xC1,0xC1,0xC1,0xC1,0xC1,0xC1,0x00,
;0x00,0x1F,0x3F,0x70,0xE0,0xC0,0xC1,0xE1,
;0x31,0x3F,0x0F,0x00,0x00,0xFF,0xFF,0x01,
;0x01,0x01,0x01,0x01,0x01,0x01,0x01,0x01,
;0xFF,0xFF,0x00,0x00,0x01,0x01,0x01,0x01,
;0x01,0x01,0x00,0x00,0xFF,0xFF,0x01,0x01,
;0x01,0x01,0x01,0x01,0x01,0x01,0x01,0xFF,
;0xFF,0x00,0x00,0x03,0x0F,0x18,0x30,0x60,
;0xC0,0x80,0x80,0xC0,0x70,0x18,0x0F,0x03,
;0x00,0x00,0xFF,0xFF,0x01,0x01,0x03,0x07,
;0x0D,0x39,0x71,0xC0,0x80,0x00,0x00,0x00,
;0x00,0x00,0x00,0x00,0x00,0x00,0x00,0x00,
;0x00,0x00,0x00,0x00,0x00,0x00,0xFF,0x00,
;0x00,0xFF,0x00,0x00,0x00,0x00,0x00,0x00,
;0x00,0x00,0x00,0x00,0x00,0x00,0x00,0x00,
;0x00,0x80,0x80,0xC0,0xC0,0xC0,0xC0,0xC0,
;0xC0,0xC0,0xC0,0xC0,0xC0,0xC0,0xC0,0xC0,
;0x80,0x80,0x00,0x00,0x00,0x00,0x00,0x00,
;0x00,0x00,0x00,0x00,0x00,0x00,0x00,0x00,
;0x00,0x00,0x00,0x00,0x00,0x00,0x00,0x00,
;0x00,0x00,0x00,0x00,0x00,0x00,0x00,0x00,
;0x00,0x00,0x00,0x00,0x00,0x00,0x00,0x00,
;0x00,0x20,0x60,0xC0,0xC0,0x80,0x80,0x00,
;0x00,0x00,0x00,0x00,0x00,0x00,0x00,0x00,
;0x00,0x00,0x00,0x00,0x00,0x00,0x00,0x00,
;0x00,0x00,0x00,0x00,0x00,0x00,0x00,0x00,
;0x00,0x00,0x00,0x00,0x00,0x00,0x00,0x80,
;0xC0,0xC0,0x20,0x00,0x00,0x00,0x00,0x00,
;0x00,0x00,0x00,0x00,0x00,0x00,0xFF,0x00,
;0x00,0xFF,0x00,0x00,0x00,0x00,0x00,0x00,
;0x00,0x00,0x00,0x80,0xE0,0xF8,0x3C,0x1E,
;0x06,0x03,0xC1,0x61,0x20,0x20,0x60,0xC0,
;0x00,0x00,0x00,0x80,0xC0,0x41,0x41,0xC1,
;0x03,0x03,0x03,0x06,0x1C,0x18,0x38,0x70,
;0xE0,0x80,0x00,0x00,0x00,0x00,0x00,0x01,
;0x03,0x06,0x0C,0x18,0x30,0xE0,0xC0,0xC0,
;0xC0,0xE0,0x30,0x18,0x0C,0x06,0x03,0x01,
;0x00,0x00,0x00,0x00,0x00,0x00,0x00,0x00,
;0x00,0x00,0x00,0x00,0x00,0x01,0x03,0x07,
;0x0F,0x0E,0x1C,0x3C,0x78,0x78,0xF0,0xF0,
;0xE0,0xC0,0xC0,0x80,0x80,0x00,0x00,0x00,
;0x00,0x00,0x80,0x80,0xC0,0xE0,0xE0,0xF0,
;0xF8,0xF8,0xFC,0xFC,0x7E,0x1F,0x0F,0x03,
;0x01,0x00,0x00,0x00,0x00,0x00,0x00,0x00,
;0x00,0x00,0x00,0x00,0x00,0x00,0xFF,0x00,
;0x00,0xFF,0x00,0x00,0x00,0x00,0x00,0x00,
;0x00,0x00,0xF8,0xFF,0x03,0x00,0x00,0x00,
;0x80,0x87,0x8D,0x0C,0x09,0x0C,0x06,0x03,
;0x00,0x00,0x1F,0x11,0x12,0x18,0x0C,0x87,
;0x80,0x00,0x00,0x00,0x00,0x00,0x00,0xE0,
;0x7F,0x0F,0x00,0x00,0x00,0x00,0x00,0x00,
;0xFF,0xFF,0x03,0x03,0x03,0x03,0x03,0x03,
;0x03,0x03,0x03,0x03,0x03,0x03,0x03,0x03,
;0xFF,0xFF,0x00,0x00,0x00,0x00,0x00,0x00,
;0x00,0x00,0x00,0x00,0x00,0x00,0x00,0x00,
;0x00,0x00,0x00,0x00,0x00,0x00,0x80,0x81,
;0xC3,0xE7,0xE7,0xFF,0xFF,0xFF,0xFF,0xFE,
;0xFE,0xFF,0xFF,0xFF,0xFF,0xFF,0xFF,0xFF,
;0xCF,0x87,0x83,0x00,0x00,0x00,0x00,0x00,
;0x00,0x00,0x00,0x00,0x00,0x00,0x00,0x00,
;0x00,0x00,0x00,0x00,0x00,0x00,0xFF,0x00,
;0x00,0xFF,0x00,0x00,0x00,0x00,0x00,0x00,
;0x00,0x00,0x0F,0x1F,0x7C,0xF8,0xC0,0x80,
;0x81,0x87,0x8D,0x8B,0x0A,0x1A,0x16,0x14,
;0x14,0x14,0x14,0x14,0x16,0x1B,0x0D,0x07,
;0x81,0x80,0xC0,0xE0,0x78,0x3E,0x1F,0x07,
;0x00,0x00,0x00,0x00,0x00,0x00,0x00,0x00,
;0xFF,0xFF,0x80,0x80,0x80,0x80,0x80,0x80,
;0x80,0x80,0x80,0x80,0x80,0x80,0x80,0x80,
;0xFF,0xFF,0x00,0x00,0x00,0x00,0x00,0x00,
;0x00,0x00,0x80,0xC0,0xC0,0xE0,0xF0,0xF0,
;0xF8,0xFC,0xFC,0xFE,0xFF,0xFF,0xFF,0xFF,
;0xFF,0xFF,0xFF,0xFF,0xFF,0xFF,0xFF,0xFF,
;0xFF,0xBF,0x9F,0x8F,0x87,0x8F,0x9F,0xBF,
;0xBF,0xFF,0xFF,0xFF,0xFF,0xFE,0xFE,0xFC,
;0xFC,0xF8,0xF0,0xF0,0xE0,0xE0,0xC0,0xC0,
;0x80,0x00,0x00,0x00,0x00,0x00,0xFF,0x00,
;0x00,0x7F,0x40,0x40,0x40,0x40,0x40,0x40,
;0x40,0x40,0x40,0x40,0x40,0x40,0x40,0x41,
;0x43,0x43,0x43,0x43,0x43,0x43,0x43,0x43,
;0x43,0x43,0x43,0x43,0x43,0x43,0x43,0x43,
;0x41,0x41,0x41,0x40,0x40,0x40,0x40,0x40,
;0x40,0x40,0x40,0x40,0x40,0x40,0x40,0x40,
;0x41,0x41,0x41,0x41,0x41,0x41,0x41,0x41,
;0x41,0x41,0x41,0x41,0x41,0x41,0x41,0x41,
;0x41,0x41,0x40,0x40,0x40,0x40,0x40,0x40,
;0x40,0x40,0x40,0x40,0x40,0x40,0x40,0x40,
;0x40,0x40,0x40,0x40,0x40,0x40,0x40,0x40,
;0x40,0x40,0x40,0x40,0x40,0x40,0x40,0x40,
;0x40,0x40,0x40,0x40,0x40,0x40,0x40,0x40,
;0x40,0x40,0x40,0x40,0x40,0x40,0x40,0x40,
;0x40,0x40,0x40,0x40,0x40,0x40,0x40,0x40,
;0x40,0x40,0x40,0x40,0x40,0x40,0x7F,0x00
;};
;
;
;flash unsigned char mishaniya[1024] ={
;0x00, 0x00, 0x00, 0x00, 0x00, 0x00, 0x00, 0x00,
;0x00, 0x00, 0x00, 0x00, 0x00, 0x00, 0x00, 0x00,
;0x00, 0x00, 0x00, 0x00, 0x00, 0x00, 0x00, 0x00,
;0x00, 0x00, 0x00, 0x00, 0x00, 0x00, 0x00, 0x80,
;0x80, 0x80, 0x80, 0x80, 0x00, 0x00, 0x80, 0x80,
;0x00, 0x80, 0x00, 0x00, 0x00, 0x00, 0x00, 0x00,
;0x00, 0x00, 0x00, 0x00, 0x00, 0x80, 0x80, 0x00,
;0x00, 0x00, 0x00, 0x00, 0x00, 0x00, 0x00, 0x00,
;0x00, 0x00, 0x00, 0x00, 0x00, 0x00, 0x00, 0x00,
;0x00, 0x00, 0x00, 0x00, 0x00, 0x00, 0x00, 0x00,
;0x00, 0x00, 0x00, 0x00, 0x00, 0x00, 0x00, 0x00,
;0x00, 0x00, 0x00, 0x00, 0x00, 0x00, 0x00, 0x00,
;0x00, 0x00, 0x00, 0x00, 0x00, 0x00, 0x00, 0x00,
;0x00, 0x00, 0x00, 0x00, 0x00, 0x00, 0x00, 0x00,
;0x00, 0x00, 0x00, 0x00, 0x00, 0x00, 0x00, 0x00,
;0x00, 0x00, 0x00, 0x00, 0x00, 0x00, 0x00, 0x00,
;0x00, 0x00, 0x00, 0x00, 0x00, 0x00, 0x00, 0x00,
;0x00, 0x00, 0x00, 0x00, 0x00, 0x00, 0x00, 0x00,
;0x00, 0x00, 0x00, 0x00, 0x00, 0x00, 0xC0, 0xF0,
;0xF8, 0xFC, 0xFC, 0xFE, 0xFF, 0xFF, 0xFF, 0xFF,
;0xFF, 0xFF, 0xFF, 0x7F, 0x7F, 0xFF, 0xFF, 0xFF,
;0xFF, 0xFF, 0xFF, 0xFF, 0xFF, 0xFE, 0xFE, 0xFC,
;0xFC, 0xFC, 0xF8, 0xF0, 0xE0, 0xC1, 0x81, 0x00,
;0x00, 0x00, 0x00, 0x00, 0x00, 0x00, 0x00, 0x00,
;0x00, 0x00, 0x00, 0x00, 0x00, 0x00, 0x00, 0x00,
;0x00, 0x00, 0x00, 0x00, 0x00, 0x00, 0x00, 0x7F,
;0x06, 0x38, 0x60, 0x18, 0x06, 0x7F, 0x00, 0x00,
;0x7F, 0x30, 0x0C, 0x02, 0x7F, 0x00, 0x00, 0x7F,
;0x40, 0x40, 0x7F, 0x40, 0x40, 0x7F, 0x00, 0x00,
;0x60, 0x1C, 0x13, 0x17, 0x38, 0x40, 0x00, 0x7F,
;0x08, 0x08, 0x08, 0x7F, 0x00, 0x46, 0x39, 0x09,
;0x09, 0x7F, 0x00, 0x00, 0x00, 0x00, 0x00, 0x00,
;0x00, 0x00, 0x00, 0x00, 0x00, 0x00, 0x00, 0x00,
;0x00, 0x00, 0x00, 0x00, 0x00, 0x00, 0x00, 0x00,
;0x00, 0x00, 0x00, 0xC0, 0xFC, 0xFF, 0xFF, 0x3F,
;0x1F, 0x1F, 0x0F, 0x3F, 0x03, 0x03, 0x03, 0x01,
;0x03, 0x01, 0x00, 0x00, 0x00, 0x00, 0x00, 0x01,
;0x03, 0x03, 0x0F, 0x1F, 0x1F, 0x3F, 0x7F, 0xFF,
;0x7F, 0xFF, 0xFF, 0xFF, 0xFF, 0xFF, 0xFF, 0xFC,
;0xF0, 0xC0, 0x00, 0x00, 0x00, 0x00, 0x00, 0x00,
;0x00, 0x00, 0x00, 0x00, 0x00, 0x08, 0x0A, 0x02,
;0x32, 0x32, 0x32, 0x32, 0x00, 0x00, 0x00, 0x00,
;0x00, 0x00, 0x00, 0x00, 0x00, 0x00, 0x00, 0x00,
;0x00, 0x00, 0x00, 0x00, 0x00, 0x00, 0x00, 0x00,
;0x00, 0x00, 0x00, 0x00, 0x00, 0x00, 0x00, 0x00,
;0x00, 0x00, 0x00, 0x00, 0x00, 0x00, 0x00, 0x00,
;0x00, 0x00, 0x00, 0x00, 0x00, 0x00, 0x00, 0x00,
;0x00, 0x00, 0x00, 0x00, 0x00, 0x00, 0x00, 0x00,
;0x00, 0x00, 0x00, 0x00, 0x00, 0x80, 0x00, 0x00,
;0x00, 0x00, 0x00, 0x00, 0x00, 0x00, 0x00, 0x00,
;0xC0, 0x00, 0xFF, 0xFF, 0x7F, 0x67, 0xF8, 0x5C,
;0xDC, 0xCC, 0xCC, 0xFC, 0xFC, 0xF8, 0xD8, 0xD8,
;0xC0, 0x40, 0x40, 0x40, 0x50, 0x38, 0x38, 0xAC,
;0xAC, 0xFE, 0xDE, 0xDE, 0xCE, 0x9E, 0x1E, 0x1C,
;0xD8, 0x90, 0xE0, 0xE1, 0xDF, 0xFF, 0xFF, 0xFF,
;0xFF, 0xFF, 0xFC, 0x70, 0xF0, 0x70, 0x60, 0xE0,
;0xE0, 0xE0, 0xE0, 0xE0, 0xE0, 0xA0, 0x60, 0x60,
;0xE0, 0xE0, 0xE0, 0x40, 0x00, 0x00, 0x00, 0x00,
;0x00, 0x00, 0x00, 0x00, 0x00, 0x00, 0x00, 0x00,
;0x00, 0x00, 0x00, 0x00, 0x00, 0x00, 0x01, 0x01,
;0x00, 0x00, 0x00, 0x20, 0x40, 0x40, 0x20, 0x00,
;0x00, 0x00, 0x00, 0x00, 0x00, 0x00, 0x00, 0x00,
;0x00, 0x00, 0x00, 0x00, 0x00, 0x00, 0x00, 0x00,
;0x00, 0x00, 0x00, 0x00, 0x00, 0x00, 0x00, 0x00,
;0x00, 0x00, 0x00, 0x00, 0xC0, 0x40, 0x80, 0x80,
;0x80, 0xA4, 0x88, 0x88, 0x88, 0x81, 0x91, 0x95,
;0x9A, 0x90, 0x50, 0x06, 0x61, 0x43, 0x13, 0x06,
;0x03, 0x03, 0x00, 0x03, 0x07, 0x00, 0x83, 0x09,
;0x0E, 0x00, 0x00, 0x00, 0x07, 0x00, 0x83, 0x05,
;0x03, 0x00, 0x03, 0x03, 0x00, 0x02, 0x03, 0x00,
;0x00, 0x00, 0x01, 0x01, 0x87, 0x7F, 0x0F, 0x3F,
;0x7F, 0x1F, 0x0B, 0x10, 0x19, 0x19, 0x10, 0x56,
;0x4A, 0x44, 0x4C, 0x4C, 0x4E, 0x6E, 0x7C, 0xBC,
;0xB6, 0xF9, 0x9E, 0x92, 0x00, 0x00, 0x00, 0x00,
;0x00, 0x00, 0x00, 0x00, 0x00, 0x00, 0x00, 0x00,
;0x7F, 0x01, 0x01, 0x01, 0x00, 0x7F, 0x49, 0x49,
;0x49, 0x00, 0x7F, 0x30, 0x0C, 0x02, 0x7F, 0x00,
;0x00, 0x00, 0x00, 0x00, 0x08, 0x08, 0x08, 0x08,
;0x18, 0x30, 0xE0, 0x00, 0x00, 0x00, 0x00, 0x00,
;0x00, 0x00, 0x00, 0x00, 0x00, 0x00, 0x00, 0x00,
;0x00, 0x00, 0x00, 0x0C, 0x08, 0x08, 0x08, 0x1A,
;0x18, 0x10, 0x10, 0x10, 0x00, 0x00, 0x00, 0x00,
;0x00, 0x00, 0x80, 0x80, 0xD7, 0xFC, 0x7E, 0x78,
;0xC0, 0x00, 0x00, 0x00, 0x00, 0x00, 0x00, 0x0C,
;0x08, 0x08, 0x00, 0x00, 0x14, 0x18, 0x08, 0x00,
;0x00, 0x00, 0x00, 0x00, 0x00, 0x00, 0x00, 0x00,
;0x00, 0x00, 0x80, 0xF6, 0xE2, 0x21, 0x10, 0x01,
;0x01, 0x01, 0x01, 0x81, 0x80, 0x82, 0x82, 0x4A,
;0x4A, 0x42, 0x41, 0x60, 0x62, 0x22, 0x22, 0x22,
;0x40, 0x50, 0x20, 0xA2, 0x00, 0x00, 0x00, 0x00,
;0x00, 0x00, 0x00, 0x00, 0x00, 0x80, 0x80, 0x80,
;0x80, 0x80, 0x80, 0xC0, 0x40, 0x00, 0x00, 0x00,
;0x00, 0x00, 0x00, 0x00, 0x00, 0x00, 0x00, 0x00,
;0x00, 0x00, 0x00, 0x00, 0x00, 0x00, 0x80, 0xC0,
;0x60, 0x30, 0x0F, 0x00, 0x00, 0x00, 0x00, 0x00,
;0x00, 0x00, 0x00, 0x00, 0x00, 0x00, 0x00, 0x00,
;0x00, 0x00, 0x00, 0x9C, 0xBC, 0xB0, 0xB0, 0xB1,
;0xB9, 0xB8, 0xBC, 0x9C, 0x9C, 0xCE, 0xC6, 0xE7,
;0xEB, 0xE7, 0xF5, 0xFA, 0xFA, 0xFD, 0xFD, 0xEE,
;0xE6, 0xE6, 0xE0, 0xE0, 0x00, 0x80, 0x01, 0x01,
;0x01, 0x01, 0x01, 0x09, 0x01, 0x03, 0x03, 0x03,
;0x02, 0x00, 0x00, 0x00, 0x80, 0x00, 0x40, 0x00,
;0x00, 0x80, 0xFF, 0x8F, 0x3E, 0x1E, 0x02, 0x07,
;0x03, 0x01, 0x01, 0x00, 0x00, 0x00, 0x00, 0x00,
;0x00, 0x00, 0x00, 0x00, 0x00, 0x00, 0x00, 0x00,
;0x00, 0x00, 0x00, 0x02, 0x00, 0x00, 0x00, 0x00,
;0x00, 0x1C, 0x3E, 0xFE, 0xFF, 0xBF, 0x33, 0x33,
;0x31, 0x21, 0x21, 0x20, 0x20, 0x20, 0x20, 0x20,
;0x20, 0x10, 0x10, 0x10, 0x10, 0x08, 0x08, 0x08,
;0x08, 0x04, 0x04, 0x02, 0x02, 0x01, 0x01, 0x00,
;0x00, 0x00, 0x00, 0x00, 0x00, 0x00, 0x00, 0x00,
;0x00, 0x00, 0x00, 0x00, 0x00, 0x00, 0x00, 0x00,
;0x00, 0x00, 0x00, 0x07, 0x07, 0x07, 0x07, 0x07,
;0x07, 0x07, 0x07, 0x07, 0x07, 0x07, 0x07, 0x07,
;0x07, 0x07, 0x07, 0x07, 0x07, 0x07, 0x07, 0x07,
;0x07, 0x07, 0x07, 0x07, 0x00, 0x00, 0x01, 0x02,
;0x02, 0x06, 0x04, 0x04, 0x04, 0x04, 0x04, 0x00,
;0x00, 0x02, 0x00, 0x01, 0x00, 0x00, 0x00, 0x00,
;0x00, 0x07, 0x07, 0x03, 0x00, 0x07, 0x06, 0x04,
;0x04, 0x00, 0x00, 0x00, 0x00, 0x00, 0x00, 0x00,
;0x00, 0x00, 0x00, 0x00, 0x00, 0x00, 0x00, 0x00,
;0x00, 0x00, 0x00, 0x00, 0x00, 0x00, 0x00, 0x00,
;0x00, 0x00, 0x00, 0x00, 0x03, 0x07, 0x0E, 0x0C,
;0x00, 0x00, 0x00, 0x00, 0x00, 0x00, 0x00, 0x00,
;0x00, 0x00, 0x00, 0x00, 0x00, 0x00, 0x00, 0x00,
;0x00, 0x00, 0x00, 0x00, 0x00, 0x00, 0x00, 0x00,
;0x00, 0x00, 0x00, 0x00, 0x00, 0x00, 0x00, 0x00,
;0x00, 0x00, 0x00, 0x00, 0x00, 0x00, 0x00, 0x00};
;#include <ssd1306_lib_new.c>
;/*
;  
;OLED LCD SSD1306 .
;   CVAVR.
;22.12.2015  ..
;
; 04.06.2020  
;*/
;
;
;void LCD_init(void);  //  
;void LCD_Commmand(unsigned char ControByte, unsigned char DataByte); //   
;void LCD_Goto(unsigned char x, unsigned char y);    // 
;void LCD_DrawImage(flash unsigned char *image); //     (0)-   
;void LCD_Contrast(char set_contrast); //   0  255
;void LCD_BigNum(unsigned char num);  //  
;void LCD_Char(unsigned char c,unsigned char doublewidth); //  (doublewidth=1 -  )
;void LCD_Printf(unsigned char* buf, unsigned char size); //    - 0   2 -  - ...
;
;
;
;unsigned char LCD_X,LCD_Y;
;unsigned char tx_buffer[129];
;#define SSD1306_I2C_ADDRESS					 0x78
;#define SSD1306_I2C_H_ADDRESS				 0x3C
;// size
;#define SSD1306_LCDWIDTH                      128
;#define SSD1306_LCDHEIGHT                     64
;// Commands
;#define SSD1306_SETCONTRAST                  0x81
;#define SSD1306_DISPLAYALLON_RESUME          0xA4
;#define SSD1306_DISPLAYALLON                 0xA5
;#define SSD1306_NORMALDISPLAY                0xA6
;#define SSD1306_INVERTDISPLAY                0xA7
;#define SSD1306_DISPLAYOFF                   0xAE
;#define SSD1306_DISPLAYON                    0xAF
;#define SSD1306_SETDISPLAYOFFSET             0xD3
;#define SSD1306_SETCOMPINS                   0xDA
;#define SSD1306_SETVCOMDETECT                0xDB
;#define SSD1306_SETDISPLAYCLOCKDIV           0xD5
;#define SSD1306_SETPRECHARGE                 0xD9
;#define SSD1306_SETMULTIPLEX                 0xA8
;#define SSD1306_SETLOWCOLUMN                 0x00
;#define SSD1306_SETHIGHCOLUMN                0x10
;#define SSD1306_SETSTARTLINE                 0x40
;#define SSD1306_MEMORYMODE                   0x20
;#define SSD1306_COLUMNADDR                   0x21
;#define SSD1306_PAGEADDR                     0x22
;#define SSD1306_COMSCANINC                   0xC0
;#define SSD1306_COMSCANDEC                   0xC8
;#define SSD1306_SEGREMAP                     0xA0
;#define SSD1306_CHARGEPUMP                   0x8D
;#define SSD1306_EXTERNALVCC                   0x1
;#define SSD1306_SWITCHCAPVCC                  0x2
;// Scrolling #defines
;#define SSD1306_ACTIVATE_SCROLL               0x2F
;#define SSD1306_DEACTIVATE_SCROLL             0x2E
;#define SSD1306_SET_VERTICAL_SCROLL_AREA      0xA3
;#define SSD1306_RIGHT_HORIZONTAL_SCROLL       0x26
;#define SSD1306_LEFT_HORIZONTAL_SCROLL        0x27
;#define SSD1306_VERT_AND_RIGHT_HORIZ_SCROLL   0x29
;#define SSD1306_VERT_AND_LEFT_HORIZ_SCROLL    0x2A
;
;#define COMAND		                          0x00
;#define DATA		                          0x40
;
;
;
;void LCD_init(void)
; 0000 001D {

	.CSEG
_LCD_init:
; .FSTART _LCD_init
;  //return;
;//  delay_ms(10);
;  LCD_Commmand(COMAND, SSD1306_SETDISPLAYCLOCKDIV);
	LDI  R30,LOW(0)
	ST   -Y,R30
	LDI  R26,LOW(213)
	RCALL _LCD_Commmand
;  LCD_Commmand(COMAND, 0x80);
	LDI  R30,LOW(0)
	ST   -Y,R30
	LDI  R26,LOW(128)
	RCALL _LCD_Commmand
;
;  LCD_Commmand(COMAND, SSD1306_SETMULTIPLEX);
	LDI  R30,LOW(0)
	ST   -Y,R30
	LDI  R26,LOW(168)
	RCALL _LCD_Commmand
;  LCD_Commmand(COMAND, 0x3F);
	LDI  R30,LOW(0)
	ST   -Y,R30
	LDI  R26,LOW(63)
	RCALL _LCD_Commmand
;
;  LCD_Commmand(COMAND, SSD1306_SETDISPLAYOFFSET);
	LDI  R30,LOW(0)
	ST   -Y,R30
	LDI  R26,LOW(211)
	RCALL _LCD_Commmand
;  LCD_Commmand(COMAND, 0x00);
	LDI  R30,LOW(0)
	ST   -Y,R30
	LDI  R26,LOW(0)
	RCALL _LCD_Commmand
;
;  LCD_Commmand(COMAND, SSD1306_SETSTARTLINE | 0x00);
	LDI  R30,LOW(0)
	ST   -Y,R30
	LDI  R26,LOW(64)
	RCALL _LCD_Commmand
;
;    // We use internal charge pump
;  LCD_Commmand(COMAND, SSD1306_CHARGEPUMP);
	LDI  R30,LOW(0)
	ST   -Y,R30
	LDI  R26,LOW(141)
	RCALL _LCD_Commmand
;  LCD_Commmand(COMAND, 0x14);
	LDI  R30,LOW(0)
	ST   -Y,R30
	LDI  R26,LOW(20)
	RCALL _LCD_Commmand
;
;    // Horizontal memory mode
;  LCD_Commmand(COMAND, SSD1306_MEMORYMODE);
	LDI  R30,LOW(0)
	ST   -Y,R30
	LDI  R26,LOW(32)
	RCALL _LCD_Commmand
;  LCD_Commmand(COMAND, 2);
	LDI  R30,LOW(0)
	ST   -Y,R30
	LDI  R26,LOW(2)
	RCALL _LCD_Commmand
;
;  LCD_Commmand(COMAND, SSD1306_SEGREMAP | 0x1);
	LDI  R30,LOW(0)
	ST   -Y,R30
	LDI  R26,LOW(161)
	RCALL _LCD_Commmand
;
;  LCD_Commmand(COMAND, SSD1306_COMSCANDEC);
	LDI  R30,LOW(0)
	ST   -Y,R30
	LDI  R26,LOW(200)
	RCALL _LCD_Commmand
;
;  LCD_Commmand(COMAND, SSD1306_SETCOMPINS);
	LDI  R30,LOW(0)
	ST   -Y,R30
	LDI  R26,LOW(218)
	RCALL _LCD_Commmand
;  LCD_Commmand(COMAND, 0x12);
	LDI  R30,LOW(0)
	ST   -Y,R30
	LDI  R26,LOW(18)
	RCALL _LCD_Commmand
;
;  LCD_Commmand(COMAND, SSD1306_SETPRECHARGE);
	LDI  R30,LOW(0)
	ST   -Y,R30
	LDI  R26,LOW(217)
	RCALL _LCD_Commmand
;  LCD_Commmand(COMAND, 0xF1);
	LDI  R30,LOW(0)
	ST   -Y,R30
	LDI  R26,LOW(241)
	RCALL _LCD_Commmand
;
;  LCD_Commmand(COMAND, SSD1306_SETVCOMDETECT);
	LDI  R30,LOW(0)
	ST   -Y,R30
	LDI  R26,LOW(219)
	RCALL _LCD_Commmand
;  LCD_Commmand(COMAND, 0x40);
	LDI  R30,LOW(0)
	ST   -Y,R30
	LDI  R26,LOW(64)
	RCALL _LCD_Commmand
;
;  LCD_Commmand(COMAND, SSD1306_DISPLAYALLON_RESUME);
	LDI  R30,LOW(0)
	ST   -Y,R30
	LDI  R26,LOW(164)
	RCALL _LCD_Commmand
;    // Non-inverted display
;  //LCD_Commmand(COMAND, SSD1306_NORMALDISPLAY);
;    // Turn display on
;
;  LCD_Contrast(255);
	LDI  R26,LOW(255)
	RCALL _LCD_Contrast
;  LCD_Commmand(COMAND,SSD1306_DISPLAYON);
	LDI  R30,LOW(0)
	ST   -Y,R30
	LDI  R26,LOW(175)
	RCALL _LCD_Commmand
;
;  LCD_Goto(0,0);
	LDI  R30,LOW(0)
	ST   -Y,R30
	LDI  R26,LOW(0)
	RCALL _LCD_Goto
;}
	RET
; .FEND
;void LCD_Commmand(unsigned char ControByte, unsigned char DataByte)
;{
_LCD_Commmand:
; .FSTART _LCD_Commmand
; #ifdef I2C_hard
;  tx_buffer[0]=ControByte;
	ST   -Y,R26
;	ControByte -> Y+1
;	DataByte -> Y+0
	LDD  R30,Y+1
	STS  _tx_buffer,R30
;  tx_buffer[1]=DataByte;
	LD   R30,Y
	__PUTB1MN _tx_buffer,1
;  twi_master_trans(SSD1306_I2C_H_ADDRESS,tx_buffer,2,0,0);
	LDI  R30,LOW(60)
	ST   -Y,R30
	LDI  R30,LOW(_tx_buffer)
	LDI  R31,HIGH(_tx_buffer)
	ST   -Y,R31
	ST   -Y,R30
	LDI  R30,LOW(2)
	ST   -Y,R30
	LDI  R30,LOW(0)
	LDI  R31,HIGH(0)
	ST   -Y,R31
	ST   -Y,R30
	LDI  R26,LOW(0)
	CALL _twi_master_trans
; #else
;  i2c_start();
;  i2c_write(SSD1306_I2C_ADDRESS);
;  i2c_write(ControByte);
;  i2c_write(DataByte);
;  i2c_stop();
; #endif
;}
	RJMP _0x2040007
; .FEND
;
;void LCD_Goto(unsigned char x, unsigned char y)
;{
_LCD_Goto:
; .FSTART _LCD_Goto
;
;	LCD_X = x;
	ST   -Y,R26
;	x -> Y+1
;	y -> Y+0
	LDD  R4,Y+1
;	LCD_Y = y;
	LDD  R3,Y+0
;	//    
; 	LCD_Commmand(COMAND, 0xB0 + y);//   
	LDI  R30,LOW(0)
	ST   -Y,R30
	LDD  R26,Y+1
	SUBI R26,-LOW(176)
	RCALL _LCD_Commmand
;	LCD_Commmand(COMAND,x & 0x0f );//
	LDI  R30,LOW(0)
	ST   -Y,R30
	LDD  R30,Y+2
	ANDI R30,LOW(0xF)
	MOV  R26,R30
	RCALL _LCD_Commmand
;	LCD_Commmand(COMAND,0x10 | (x >> 4));//
	LDI  R30,LOW(0)
	ST   -Y,R30
	LDD  R30,Y+2
	SWAP R30
	ANDI R30,0xF
	ORI  R30,0x10
	MOV  R26,R30
	RCALL _LCD_Commmand
;}
_0x2040007:
	ADIW R28,2
	RET
; .FEND
;
;void LCD_Contrast(char set_contrast)
;{
_LCD_Contrast:
; .FSTART _LCD_Contrast
;  LCD_Commmand(COMAND, SSD1306_SETCONTRAST);
	ST   -Y,R26
;	set_contrast -> Y+0
	LDI  R30,LOW(0)
	ST   -Y,R30
	LDI  R26,LOW(129)
	RCALL _LCD_Commmand
;  LCD_Commmand(COMAND, set_contrast);
	LDI  R30,LOW(0)
	ST   -Y,R30
	LDD  R26,Y+1
	RCALL _LCD_Commmand
;}
	ADIW R28,1
	RET
; .FEND
;
;void LCD_DrawImage(flash unsigned char *image)//if (0) - clear screen
;{
_LCD_DrawImage:
; .FSTART _LCD_DrawImage
; unsigned int x;
; unsigned char tmp;
; for(tmp=0;tmp<8;tmp++)
	ST   -Y,R27
	ST   -Y,R26
	CALL __SAVELOCR4
;	*image -> Y+4
;	x -> R16,R17
;	tmp -> R19
	LDI  R19,LOW(0)
_0x4:
	CPI  R19,8
	BRSH _0x5
; {
;  LCD_Commmand(COMAND, 0xB0 + tmp);//   
	LDI  R30,LOW(0)
	ST   -Y,R30
	MOV  R26,R19
	SUBI R26,-LOW(176)
	RCALL _LCD_Commmand
;
;  #ifdef I2C_hard
;  tx_buffer[0]=0b01000000;
	LDI  R30,LOW(64)
	STS  _tx_buffer,R30
;  for (x=0; x<128; x++)
	__GETWRN 16,17,0
_0x7:
	__CPWRN 16,17,128
	BRSH _0x8
;  {
;   if(image==0)//clear
	LDD  R30,Y+4
	LDD  R31,Y+4+1
	SBIW R30,0
	BRNE _0x9
;    tx_buffer[x+1]=0;
	MOVW R30,R16
	__ADDW1MN _tx_buffer,1
	LDI  R26,LOW(0)
	STD  Z+0,R26
;   else
	RJMP _0xA
_0x9:
;    tx_buffer[x+1]=image[tmp*128+x];
	MOVW R30,R16
	__ADDW1MN _tx_buffer,1
	MOVW R22,R30
	LDI  R30,LOW(128)
	MUL  R30,R19
	MOVW R30,R0
	ADD  R30,R16
	ADC  R31,R17
	LDD  R26,Y+4
	LDD  R27,Y+4+1
	ADD  R30,R26
	ADC  R31,R27
	LPM  R30,Z
	MOVW R26,R22
	ST   X,R30
;  }
_0xA:
	__ADDWRN 16,17,1
	RJMP _0x7
_0x8:
;  twi_master_trans(SSD1306_I2C_H_ADDRESS,tx_buffer,129,0,0);
	LDI  R30,LOW(60)
	ST   -Y,R30
	LDI  R30,LOW(_tx_buffer)
	LDI  R31,HIGH(_tx_buffer)
	ST   -Y,R31
	ST   -Y,R30
	LDI  R30,LOW(129)
	ST   -Y,R30
	LDI  R30,LOW(0)
	LDI  R31,HIGH(0)
	ST   -Y,R31
	ST   -Y,R30
	LDI  R26,LOW(0)
	CALL _twi_master_trans
;  #else
;   i2c_start();
;   i2c_write(SSD1306_I2C_ADDRESS);
;   i2c_write(0b01000000);
;   for (x=tmp*128; x<((tmp+1)*128); x++)
;   {
;    if(image==0)//clear
;     i2c_write(0);
;    else
;     i2c_write(image[x]);
;   }
;   i2c_stop();
;  #endif
; }
	SUBI R19,-1
	RJMP _0x4
_0x5:
;}
	CALL __LOADLOCR4
	ADIW R28,6
	RET
; .FEND
;
;void LCD_Char(unsigned char c,unsigned char doublewidth)
;{
_LCD_Char:
; .FSTART _LCD_Char
;  unsigned char x = 0,ch;
;
; #ifdef I2C_hard
;  tx_buffer[0]=DATA;
	ST   -Y,R26
	ST   -Y,R17
	ST   -Y,R16
;	c -> Y+3
;	doublewidth -> Y+2
;	x -> R17
;	ch -> R16
	LDI  R17,0
	LDI  R30,LOW(64)
	STS  _tx_buffer,R30
;  if(doublewidth==0)
	LDD  R30,Y+2
	CPI  R30,0
	BRNE _0xB
;  {
;   for (x=0; x<5; x++)
	LDI  R17,LOW(0)
_0xD:
	CPI  R17,5
	BRSH _0xE
;   {
;    tx_buffer[x+1]=LCD_Buffer[c*5+x];
	MOV  R30,R17
	LDI  R31,0
	__ADDW1MN _tx_buffer,1
	MOVW R22,R30
	LDD  R26,Y+3
	LDI  R30,LOW(5)
	MUL  R30,R26
	MOVW R30,R0
	MOVW R26,R30
	MOV  R30,R17
	LDI  R31,0
	ADD  R30,R26
	ADC  R31,R27
	SUBI R30,LOW(-_LCD_Buffer*2)
	SBCI R31,HIGH(-_LCD_Buffer*2)
	LPM  R30,Z
	MOVW R26,R22
	ST   X,R30
;   }
	SUBI R17,-1
	RJMP _0xD
_0xE:
;  }
;  else
	RJMP _0xF
_0xB:
;  {
;    for (x=0; x<10; x++)
	LDI  R17,LOW(0)
_0x11:
	CPI  R17,10
	BRSH _0x12
;   {
;    tx_buffer[x+1]=LCD_Buffer[c*5+x/2];
	MOV  R30,R17
	LDI  R31,0
	__ADDW1MN _tx_buffer,1
	PUSH R31
	PUSH R30
	LDD  R26,Y+3
	LDI  R30,LOW(5)
	MUL  R30,R26
	MOVW R22,R0
	MOV  R26,R17
	LDI  R27,0
	LDI  R30,LOW(2)
	LDI  R31,HIGH(2)
	CALL __DIVW21
	ADD  R30,R22
	ADC  R31,R23
	SUBI R30,LOW(-_LCD_Buffer*2)
	SBCI R31,HIGH(-_LCD_Buffer*2)
	LPM  R30,Z
	POP  R26
	POP  R27
	ST   X,R30
;   }
	SUBI R17,-1
	RJMP _0x11
_0x12:
;  }
_0xF:
;  tx_buffer[x+1]=0;
	MOV  R30,R17
	LDI  R31,0
	__ADDW1MN _tx_buffer,1
	LDI  R26,LOW(0)
	STD  Z+0,R26
;  twi_master_trans(SSD1306_I2C_H_ADDRESS,tx_buffer,7+doublewidth*5,0,0);
	LDI  R30,LOW(60)
	ST   -Y,R30
	LDI  R30,LOW(_tx_buffer)
	LDI  R31,HIGH(_tx_buffer)
	ST   -Y,R31
	ST   -Y,R30
	LDD  R30,Y+5
	LDI  R26,LOW(5)
	MULS R30,R26
	MOVW R30,R0
	SUBI R30,-LOW(7)
	ST   -Y,R30
	LDI  R30,LOW(0)
	LDI  R31,HIGH(0)
	ST   -Y,R31
	ST   -Y,R30
	LDI  R26,LOW(0)
	CALL _twi_master_trans
; #else
;  i2c_start();
;  i2c_write(SSD1306_I2C_ADDRESS);
;  i2c_write(DATA);//data mode
;  for (x=0; x<5; x++)
;	{
;     ch=LCD_Buffer[c*5+x];
;     i2c_write(ch);
;     if(doublewidth==1) i2c_write(ch);
;    }
;  i2c_write(0x00);
;  i2c_stop();
; #endif
; if(doublewidth==1)
	LDD  R26,Y+2
	CPI  R26,LOW(0x1)
	BRNE _0x13
;  LCD_X += 11;
	LDI  R30,LOW(11)
	RJMP _0x120
; else
_0x13:
;  LCD_X += 8;
	LDI  R30,LOW(8)
_0x120:
	ADD  R4,R30
;}
	LDD  R17,Y+1
	LDD  R16,Y+0
	RJMP _0x2040006
; .FEND
;
;
;
;
;
;void LCD_BigNum(unsigned char num)
;{
_LCD_BigNum:
; .FSTART _LCD_BigNum
;  unsigned char x = 0;
;  unsigned char z = 0;
;
;  unsigned char y_s = LCD_Y;
;
;  if(num!=46&&num!=32&&num!=32&&num!=67){num = num - 48;}
	ST   -Y,R26
	CALL __SAVELOCR4
;	num -> Y+4
;	x -> R17
;	z -> R16
;	y_s -> R19
	LDI  R17,0
	LDI  R16,0
	MOV  R19,R3
	LDD  R26,Y+4
	CPI  R26,LOW(0x2E)
	BREQ _0x16
	CPI  R26,LOW(0x20)
	BREQ _0x16
	CPI  R26,LOW(0x20)
	BREQ _0x16
	CPI  R26,LOW(0x43)
	BRNE _0x17
_0x16:
	RJMP _0x15
_0x17:
	LDD  R30,Y+4
	SUBI R30,LOW(48)
	RJMP _0x121
;  else
_0x15:
;   {
;   if(num==46){ num = 11; }  // .
	LDD  R26,Y+4
	CPI  R26,LOW(0x2E)
	BRNE _0x19
	LDI  R30,LOW(11)
	STD  Y+4,R30
;   if(num==32){ num = 12; }  // space
_0x19:
	LDD  R26,Y+4
	CPI  R26,LOW(0x20)
	BRNE _0x1A
	LDI  R30,LOW(12)
	STD  Y+4,R30
;   if(num==67){ num = 13; }  // 
_0x1A:
	LDD  R26,Y+4
	CPI  R26,LOW(0x43)
	BRNE _0x1B
	LDI  R30,LOW(13)
_0x121:
	STD  Y+4,R30
;   }
_0x1B:
;
; #ifdef I2C_hard
;  for (z=0; z<4; z++)
	LDI  R16,LOW(0)
_0x1D:
	CPI  R16,4
	BRSH _0x1E
;  {
;   tx_buffer[0]=DATA;
	LDI  R30,LOW(64)
	STS  _tx_buffer,R30
;   for (x=0; x<24; x++)
	LDI  R17,LOW(0)
_0x20:
	CPI  R17,24
	BRSH _0x21
;   {
;    tx_buffer[x+1]=BigNum[num][z*24+x];
	MOV  R30,R17
	LDI  R31,0
	__ADDW1MN _tx_buffer,1
	MOVW R24,R30
	LDD  R30,Y+4
	LDI  R26,LOW(96)
	MUL  R30,R26
	MOVW R30,R0
	SUBI R30,LOW(-_BigNum*2)
	SBCI R31,HIGH(-_BigNum*2)
	MOVW R22,R30
	LDI  R30,LOW(24)
	MUL  R30,R16
	MOVW R30,R0
	MOVW R26,R30
	MOV  R30,R17
	LDI  R31,0
	ADD  R30,R26
	ADC  R31,R27
	ADD  R30,R22
	ADC  R31,R23
	LPM  R30,Z
	MOVW R26,R24
	ST   X,R30
;   }
	SUBI R17,-1
	RJMP _0x20
_0x21:
;   twi_master_trans(SSD1306_I2C_H_ADDRESS,tx_buffer,25,0,0);
	LDI  R30,LOW(60)
	ST   -Y,R30
	LDI  R30,LOW(_tx_buffer)
	LDI  R31,HIGH(_tx_buffer)
	ST   -Y,R31
	ST   -Y,R30
	LDI  R30,LOW(25)
	ST   -Y,R30
	LDI  R30,LOW(0)
	LDI  R31,HIGH(0)
	ST   -Y,R31
	ST   -Y,R30
	LDI  R26,LOW(0)
	CALL _twi_master_trans
;   LCD_Goto(LCD_X,LCD_Y+1);
	ST   -Y,R4
	MOV  R26,R3
	SUBI R26,-LOW(1)
	RCALL _LCD_Goto
;  }
	SUBI R16,-1
	RJMP _0x1D
_0x1E:
; #else
;  for (z=0; z<4; z++)
;  {
;   i2c_start();
;   i2c_write(SSD1306_I2C_ADDRESS);
;   i2c_write(DATA);//data mode
;   for (x=0; x<24; x++)
;   {
;    i2c_write(BigNum[num][z*24+x]);
;   }
;  i2c_stop();    // stop transmitting
;  LCD_Goto(LCD_X,LCD_Y+1);
;  }
; #endif
;  LCD_X +=23;
	LDI  R30,LOW(23)
	ADD  R4,R30
;  LCD_Goto(LCD_X,y_s);
	ST   -Y,R4
	MOV  R26,R19
	RCALL _LCD_Goto
;}
	CALL __LOADLOCR4
	ADIW R28,5
	RET
; .FEND
;
;void LCD_Printf(unsigned char* buf, unsigned char size) //   
;{
_LCD_Printf:
; .FSTART _LCD_Printf
;
;	while (*buf!=0)
	ST   -Y,R26
;	*buf -> Y+1
;	size -> Y+0
_0x22:
	LDD  R26,Y+1
	LDD  R27,Y+1+1
	LD   R30,X
	CPI  R30,0
	BREQ _0x24
;	{
;       if(size==0)
	LD   R30,Y
	CPI  R30,0
	BRNE _0x25
;       {
;		LCD_Char(*buf++,0);
	LD   R30,X+
	STD  Y+1,R26
	STD  Y+1+1,R27
	ST   -Y,R30
	LDI  R26,LOW(0)
	RCALL _LCD_Char
;       }
;       if(size==1)
_0x25:
	LD   R26,Y
	CPI  R26,LOW(0x1)
	BRNE _0x26
;       {
;        LCD_Char(*buf++,1);
	LDD  R26,Y+1
	LDD  R27,Y+1+1
	LD   R30,X+
	STD  Y+1,R26
	STD  Y+1+1,R27
	ST   -Y,R30
	LDI  R26,LOW(1)
	RCALL _LCD_Char
;       }
;       if(size==2)
_0x26:
	LD   R26,Y
	CPI  R26,LOW(0x2)
	BRNE _0x27
;       {
;        LCD_BigNum(*buf++);
	LDD  R26,Y+1
	LDD  R27,Y+1+1
	LD   R30,X+
	STD  Y+1,R26
	STD  Y+1+1,R27
	MOV  R26,R30
	RCALL _LCD_BigNum
;       }
;	}
_0x27:
	RJMP _0x22
_0x24:
;}
	ADIW R28,3
	RET
; .FEND
;
;void LCD_DrawArrow(unsigned char del)
;{
;  unsigned char x;
;  #ifdef I2C_hard
;  tx_buffer[0]=0b01000000;
;	del -> Y+1
;	x -> R17
;   for (x=0; x<10; x++)
;   {
;    if(del==0)
;     tx_buffer[x+1]=arrow[x];
;    else
;     tx_buffer[x+1]=0;
;   }
;   twi_master_trans(SSD1306_I2C_H_ADDRESS,tx_buffer,11,0,0);
;  #else
;  i2c_start();
;  i2c_write(SSD1306_I2C_ADDRESS);
;  i2c_write(0b01000000);
;  for (x=0; x<10; x++)
;  {
;   if(del==0)
;    i2c_write(arrow[x]);
;   else
;    i2c_write(0);
;  }
;  i2c_stop();
;  #endif
;}
;
;
;
;
;
;
;
;//#include <demo_WIFI.c> included later after variables.......
;
;#define RGBPIN PORTA.7 //rgb led
;
;#define WIFIOFF DDRD.4 //open drain 1-off 0-on
;#define WIFIRES DDRD.5 //open drain 1-res 0-norm working
;#define WiFi_reset_time 2000 //1000seconds after any activity
;
;#define WiFi_ON
;//#define WiFi_UART0_OUT
;
;void uCsetup(void);
;void UART_setup(unsigned char UART_N,unsigned char baud_N);//baud_N=0 - 9600 baud_N=1 - 115200
;void putchar0(char c);//jdy-40
;void putchar1(char c);//Wifi
;void putstr(char com_n,const char* S);
;void IntToStr(char* st,int n);//16 bit int to str char
;//OLED and encoder interrupts
;interrupt [PC_INT0] void pin_change_isr0(void);
;interrupt [PC_INT1] void pin_change_isr1(void);
;void Led(char R, char G, char B);
;void hue_to_rgb(unsigned char hue);
;void T3_delay(unsigned char d);//1-255 * 23.7ms
;void T3_timeout(unsigned char d);//1-255 * 23.7ms
;//Encoder
;unsigned char PB4_B=1,PB5_B=1,ENC_counter=0;
;//Encoder
;
;unsigned char T3_ready=0;
;
;unsigned char GLOBAL_GRB[3]={0,0,0};
;unsigned char OLED_text[30]="  ...";

	.DSEG
;unsigned char Ledon=0;
;
;#include <demo_WIFI.c>
;//WiFi     2560
;//ESP-12f      115200
;
;void WiFi_main_processing(void);
;void WiFi_send_command(unsigned char id, unsigned char Connection, unsigned int Send_N);
;
;unsigned char WiFi_Current_Connection;//connection number 0-4
;//unsigned int WiFi_Send_N;//symbols number 2048 max
;//unsigned char WiFi_Error=0;
;unsigned char WiFi_what_to_read=0,WiFi_buf[5],WiFi_answer_ID=0,WiFi_symbol_counter=0;
;unsigned char WiFi_Busy=0;
;unsigned char WiFi_reset_no_activity_counter=16;//if no activity - reset and reinit wifi (initial 8s)
;unsigned char HTML_info_N=0;
;
;//what each connection wants 0-nothing
;//1-request known proceed to process value
;//.....
;//100-request unknown just close the connection
;unsigned char WiFi_Connection_Request[5]={0,0,0,0,0};
;unsigned char WiFi_Request_Value[5][30];
;unsigned char WiFi_Connection_CommandID[5];
;unsigned int WiFi_reset_flag=0;
;
;
;
;
;
;//now the code is in RAM, if code is more than 4k turn it into const(flash) ram is not enough !!!!!!!!!!!!!!!!!!!
;char HTML_main_code[246+63+17+17+16+60+113+75+1]=
;//246
;"<head><link rel='icon'href='data:image/bmp;base64,Qk1+AAAAAAAAAD4AAAAoAAAAEAAAABAAAAABAAEAAAAAAEAAAAB0EgAAdBIAAAAAAAAAA ...
;//63
;"<style>h1,h2,h3,input,i,select{font-size:40px}h1{color:#0000f0}"
;//17   HTML_main_code[246+63+10]= er color[0] (00a000)
;"h2{color:#a0a000}"
;//17   HTML_main_code[246+63+17+10]= color[0]
;"h3{color:#f0f000}"
;//16
;"i{color:#990073}"
;//60
;"input,select{color:#009999}</style><h1>2560MODULE  </h1>"
;//113
;"<form><i>Text to OLED display:</i><input name='T'size='20'maxlength='20'><input type='submit'value='SEND'></form>"
;//75
;"<form><i>RGB LED ON/OFF:</i><input type='submit'name='L'value='LED'></form>";
;
;char HTML_info_code[7][34+1]=
;{
;"<h3>TEXT SHOULD GO TO OLED   </h3>",
;"<h3>UNBELIEVABLE  SUCCESS !!!</h3>",
;"<h3> YET ANOTHER SUCCESS!    </h3>",
;"<h3>WOW! SO MUCH SUCCESS...  </h3>",
;"<h3>REALLY? AREN'T YOU TIRED?</h3>",
;"<h3>YOU ARE THE LED RULER!!! </h3>",
;"<h3>STILL FUN, HA?           </h3>"
;};
;
;
;
;
;//change parameters and colors in HTML_main_code according to the actual
;void Edit_HTML(void)
; 0000 0040 {

	.CSEG
_Edit_HTML:
; .FSTART _Edit_HTML
; //set info text color
; HTML_main_code[246+63+17+10]='0';//R
	LDI  R30,LOW(48)
	__PUTB1MN _HTML_main_code,336
; HTML_main_code[246+63+17+10+2]='0';//G
	__PUTB1MN _HTML_main_code,338
; HTML_main_code[246+63+17+10+4]='0';//B
	__PUTB1MN _HTML_main_code,340
; switch(HTML_info_N)
	LDS  R30,_HTML_info_N
	LDI  R31,0
; {
;  case 0:
	SBIW R30,0
	BREQ _0x122
;  HTML_main_code[246+63+17+10+4]='f';
;  break;
;  case 5:
	CPI  R30,LOW(0x5)
	LDI  R26,HIGH(0x5)
	CPC  R31,R26
	BREQ _0x36
;  case 1:
	CPI  R30,LOW(0x1)
	LDI  R26,HIGH(0x1)
	CPC  R31,R26
	BRNE _0x37
_0x36:
;  HTML_main_code[246+63+17+10+2]='f';
	LDI  R30,LOW(102)
	__PUTB1MN _HTML_main_code,338
;  break;
	RJMP _0x33
;  case 6:
_0x37:
	CPI  R30,LOW(0x6)
	LDI  R26,HIGH(0x6)
	CPC  R31,R26
	BREQ _0x39
;  case 2:
	CPI  R30,LOW(0x2)
	LDI  R26,HIGH(0x2)
	CPC  R31,R26
	BRNE _0x3A
_0x39:
;  HTML_main_code[246+63+17+10]='f';
	LDI  R30,LOW(102)
	__PUTB1MN _HTML_main_code,336
;  break;
	RJMP _0x33
;  case 3:
_0x3A:
	CPI  R30,LOW(0x3)
	LDI  R26,HIGH(0x3)
	CPC  R31,R26
	BRNE _0x3B
;  HTML_main_code[246+63+17+10]='f';
	LDI  R30,LOW(102)
	__PUTB1MN _HTML_main_code,336
;  HTML_main_code[246+63+17+10+2]='f';
	__PUTB1MN _HTML_main_code,338
;  break;
	RJMP _0x33
;  case 4:
_0x3B:
	CPI  R30,LOW(0x4)
	LDI  R26,HIGH(0x4)
	CPC  R31,R26
	BRNE _0x33
;  HTML_main_code[246+63+17+10+2]='f';
	LDI  R30,LOW(102)
	__PUTB1MN _HTML_main_code,338
;  HTML_main_code[246+63+17+10+4]='f';
_0x122:
	LDI  R30,LOW(102)
	__PUTB1MN _HTML_main_code,340
;  break;
; }
_0x33:
;}
	RET
; .FEND
;
;
;void WiFi_processing_clear(void)
;{
; char tmp;
; WiFi_answer_ID=0;
;	tmp -> R17
; WiFi_what_to_read=1;
; for(tmp=0;tmp<5;tmp++) WiFi_Connection_Request[tmp]=0;
;
;void WiFi_main_processing(void)
;{
_WiFi_main_processing:
; .FSTART _WiFi_main_processing
; char tmp,tmp2,tmp_flag;
;        for(tmp=0;tmp<5;tmp++)//if there is any request
	CALL __SAVELOCR4
;	tmp -> R17
;	tmp2 -> R16
;	tmp_flag -> R19
	LDI  R17,LOW(0)
_0x41:
	CPI  R17,5
	BRLO PC+2
	RJMP _0x42
;        {
;         if(WiFi_Connection_Request[tmp]>0)
	MOV  R30,R17
	LDI  R31,0
	SUBI R30,LOW(-_WiFi_Connection_Request)
	SBCI R31,HIGH(-_WiFi_Connection_Request)
	LD   R26,Z
	CPI  R26,LOW(0x1)
	BRSH PC+2
	RJMP _0x43
;         {
;          WiFi_reset_no_activity_counter=WiFi_reset_time;
	LDI  R30,LOW(208)
	STS  _WiFi_reset_no_activity_counter,R30
;          if(WiFi_Connection_CommandID[tmp]>0)//known command (should send data)
	MOV  R30,R17
	LDI  R31,0
	SUBI R30,LOW(-_WiFi_Connection_CommandID)
	SBCI R31,HIGH(-_WiFi_Connection_CommandID)
	LD   R26,Z
	CPI  R26,LOW(0x1)
	BRSH PC+2
	RJMP _0x44
;          {
;           T3_timeout(42);//42=1s
	LDI  R26,LOW(42)
	CALL _T3_timeout
;           if(WiFi_Connection_CommandID[tmp]==6)//text to oled
	MOV  R30,R17
	LDI  R31,0
	SUBI R30,LOW(-_WiFi_Connection_CommandID)
	SBCI R31,HIGH(-_WiFi_Connection_CommandID)
	LD   R26,Z
	CPI  R26,LOW(0x6)
	BREQ PC+2
	RJMP _0x45
;           {
;            tmp_flag=0;
	LDI  R19,LOW(0)
;            for(tmp2=0;tmp2<20;tmp2++)
	LDI  R16,LOW(0)
_0x47:
	CPI  R16,20
	BRLO PC+2
	RJMP _0x48
;            {
;             if(WiFi_Request_Value[tmp][tmp2]==0)tmp_flag=1;//if shorter than 20 letters put ' '
	LDI  R26,LOW(30)
	MUL  R17,R26
	MOVW R30,R0
	SUBI R30,LOW(-_WiFi_Request_Value)
	SBCI R31,HIGH(-_WiFi_Request_Value)
	MOVW R26,R30
	CLR  R30
	ADD  R26,R16
	ADC  R27,R30
	LD   R30,X
	CPI  R30,0
	BRNE _0x49
	LDI  R19,LOW(1)
;             if(WiFi_Request_Value[tmp][tmp2]=='+')WiFi_Request_Value[tmp][tmp2]=' ';
_0x49:
	LDI  R26,LOW(30)
	MUL  R17,R26
	MOVW R30,R0
	SUBI R30,LOW(-_WiFi_Request_Value)
	SBCI R31,HIGH(-_WiFi_Request_Value)
	MOVW R26,R30
	CLR  R30
	ADD  R26,R16
	ADC  R27,R30
	LD   R26,X
	CPI  R26,LOW(0x2B)
	BRNE _0x4A
	LDI  R26,LOW(30)
	MUL  R17,R26
	MOVW R30,R0
	SUBI R30,LOW(-_WiFi_Request_Value)
	SBCI R31,HIGH(-_WiFi_Request_Value)
	MOVW R26,R30
	CLR  R30
	ADD  R26,R16
	ADC  R27,R30
	LDI  R30,LOW(32)
	ST   X,R30
;
;             if(tmp_flag==0)
_0x4A:
	CPI  R19,0
	BRNE _0x4B
;              OLED_text[tmp2]=WiFi_Request_Value[tmp][tmp2];
	MOV  R30,R16
	LDI  R31,0
	SUBI R30,LOW(-_OLED_text)
	SBCI R31,HIGH(-_OLED_text)
	MOVW R22,R30
	LDI  R26,LOW(30)
	MUL  R17,R26
	MOVW R30,R0
	SUBI R30,LOW(-_WiFi_Request_Value)
	SBCI R31,HIGH(-_WiFi_Request_Value)
	MOVW R26,R30
	CLR  R30
	ADD  R26,R16
	ADC  R27,R30
	LD   R30,X
	MOVW R26,R22
	ST   X,R30
;             else
	RJMP _0x4C
_0x4B:
;              OLED_text[tmp2]=' ';
	MOV  R30,R16
	LDI  R31,0
	SUBI R30,LOW(-_OLED_text)
	SBCI R31,HIGH(-_OLED_text)
	LDI  R26,LOW(32)
	STD  Z+0,R26
;            }
_0x4C:
	SUBI R16,-1
	RJMP _0x47
_0x48:
;            OLED_text[20]=0;//20 letters anyway
	LDI  R30,LOW(0)
	__PUTB1MN _OLED_text,20
;            HTML_info_N++;
	LDS  R30,_HTML_info_N
	SUBI R30,-LOW(1)
	STS  _HTML_info_N,R30
;             if(HTML_info_N>4) HTML_info_N=1;
	LDS  R26,_HTML_info_N
	CPI  R26,LOW(0x5)
	BRLO _0x4D
	LDI  R30,LOW(1)
	STS  _HTML_info_N,R30
;           }
_0x4D:
;           if(WiFi_Connection_CommandID[tmp]==7)//led on off
_0x45:
	MOV  R30,R17
	LDI  R31,0
	SUBI R30,LOW(-_WiFi_Connection_CommandID)
	SBCI R31,HIGH(-_WiFi_Connection_CommandID)
	LD   R26,Z
	CPI  R26,LOW(0x7)
	BRNE _0x4E
;           {
;            if(Ledon==0)Ledon=1;
	TST  R10
	BRNE _0x4F
	LDI  R30,LOW(1)
	MOV  R10,R30
;            else Ledon=0;
	RJMP _0x50
_0x4F:
	CLR  R10
;            if(HTML_info_N==5)HTML_info_N=6;
_0x50:
	LDS  R26,_HTML_info_N
	CPI  R26,LOW(0x5)
	BRNE _0x51
	LDI  R30,LOW(6)
	RJMP _0x123
;            else HTML_info_N=5;
_0x51:
	LDI  R30,LOW(5)
_0x123:
	STS  _HTML_info_N,R30
;           }
;           Edit_HTML();
_0x4E:
	RCALL _Edit_HTML
;           while(WiFi_Busy>0) {if(T3_ready==1) break;};
_0x53:
	LDI  R30,LOW(0)
	CP   R30,R13
	BRSH _0x55
	LDI  R30,LOW(1)
	CP   R30,R7
	BRNE _0x53
_0x55:
;           WiFi_send_command(8,tmp,(246+63+17+17+16+60+113+75) + 34);//send the main code + text
	LDI  R30,LOW(8)
	ST   -Y,R30
	ST   -Y,R17
	LDI  R26,LOW(641)
	LDI  R27,HIGH(641)
	RCALL _WiFi_send_command
;           T3_timeout(21);//42=1s
	LDI  R26,LOW(21)
	CALL _T3_timeout
;           while(WiFi_answer_ID!=3){if(T3_ready==1) break;};//invitation
_0x57:
	LDI  R30,LOW(3)
	CP   R30,R11
	BREQ _0x59
	LDI  R30,LOW(1)
	CP   R30,R7
	BRNE _0x57
_0x59:
;           putstr(1,HTML_main_code);
	LDI  R30,LOW(1)
	ST   -Y,R30
	LDI  R26,LOW(_HTML_main_code)
	LDI  R27,HIGH(_HTML_main_code)
	RCALL _putstr
;           putstr(1,HTML_info_code[HTML_info_N]);
	LDI  R30,LOW(1)
	ST   -Y,R30
	LDS  R30,_HTML_info_N
	LDI  R26,LOW(35)
	MUL  R30,R26
	MOVW R30,R0
	SUBI R30,LOW(-_HTML_info_code)
	SBCI R31,HIGH(-_HTML_info_code)
	MOVW R26,R30
	RCALL _putstr
;           T3_timeout(21);//42=1s
	LDI  R26,LOW(21)
	CALL _T3_timeout
;           while(WiFi_answer_ID!=1){if(T3_ready==1) break;};//ok
_0x5B:
	LDI  R30,LOW(1)
	CP   R30,R11
	BREQ _0x5D
	CP   R30,R7
	BRNE _0x5B
_0x5D:
;           WiFi_send_command(7,tmp,0);//close the connection
	LDI  R30,LOW(7)
	ST   -Y,R30
	ST   -Y,R17
	LDI  R26,LOW(0)
	LDI  R27,0
	RCALL _WiFi_send_command
;
;          }
;          WiFi_Connection_Request[tmp]=0;
_0x44:
	MOV  R30,R17
	LDI  R31,0
	SUBI R30,LOW(-_WiFi_Connection_Request)
	SBCI R31,HIGH(-_WiFi_Connection_Request)
	LDI  R26,LOW(0)
	STD  Z+0,R26
;          break; //only one request at a time  !!!!!!!!!!!!!!!!!!!!!!!!!!!!!!!!!!!
	RJMP _0x42
;         }
;        }
_0x43:
	SUBI R17,-1
	RJMP _0x41
_0x42:
;}
	CALL __LOADLOCR4
_0x2040006:
	ADIW R28,4
	RET
; .FEND
;
;
;
;//G_answer_ID>0 there is an answer 0-no match
;//1- OK
;//2- ERROR
;//3- >
;//4- +IPD,
;//5- GET
;//6- ?T=..... HTTP/1.1   //TEXT
;
;//30- HTTP/1.1   //http only
;//50- (13)(10)(13)(10) end of useless info    to wait or not to wait?????????????
;//60- ready(13)(10) after reset to reinitialise
;inline void WiFi_get_answer(void)
;{
; WiFi_answer_ID=0;
;
; if(WiFi_buf[2]=='O'&&WiFi_buf[3]=='K'&&WiFi_buf[4]==13)
;  {WiFi_answer_ID=1; //OK
;   return;}
;
; if(WiFi_buf[0]=='E'&&WiFi_buf[1]=='R'&&WiFi_buf[2]=='R')
;  {WiFi_answer_ID=2; //ERROR
;   return;}
;
; if(WiFi_buf[2]==10&&WiFi_buf[3]=='>'&&WiFi_buf[4]==32)
;  {WiFi_answer_ID=3; //> _//welcome to send sms
;   return;}
;
; if(WiFi_buf[0]=='I'&&WiFi_buf[1]=='P'&&WiFi_buf[2]=='D'&&WiFi_buf[3]==',')
;  {WiFi_answer_ID=4; //+IPD,   request start, WiFi_buf[4]=0...3 digit is Current_Connection
;   return;}
;
; if(WiFi_buf[0]=='G'&&WiFi_buf[1]=='E'&&WiFi_buf[2]=='T'&&WiFi_buf[3]==' '&&WiFi_buf[4]=='/')
;  {WiFi_answer_ID=5; //GET /    next will be what they want us to send
;   return;}
;
; if(WiFi_buf[2]=='?'&&WiFi_buf[4]=='=')
;  {
;   if(WiFi_buf[3]=='T'){WiFi_answer_ID=6; return;}//?T=  text
;    if(WiFi_buf[3]=='L'){WiFi_answer_ID=7; return;}//?L=  led on off
;   WiFi_answer_ID=30;//if unknown send just HTTP
;  }
;
; if(WiFi_buf[2]=='/'&&WiFi_buf[3]==' '&&WiFi_buf[4]=='H')//http only
; {WiFi_answer_ID=30; return;}
;
; if(WiFi_buf[2]==13&&WiFi_buf[3]==10&&WiFi_buf[4]==13)//end of useless info
; {WiFi_answer_ID=50;
;  return;}
;
; if(WiFi_buf[0]=='a'&&WiFi_buf[1]=='d'&&WiFi_buf[2]=='y'&&WiFi_buf[3]==13&&WiFi_buf[4]==10)//after reset
; {
;  WiFi_reset_flag=1;
; }
;}
;
;
;//USART1 Receiver interrupt
;//ESP-12F(ESP8266) module serial
;//Read sms, responses etc
;//WiFi_what_to_read=
;//1- any answer .............
;interrupt [USART1_RXC] void usart1_rx_isr(void)
;{
_usart1_rx_isr:
; .FSTART _usart1_rx_isr
	ST   -Y,R0
	ST   -Y,R1
	ST   -Y,R26
	ST   -Y,R27
	ST   -Y,R30
	ST   -Y,R31
	IN   R30,SREG
	ST   -Y,R30
; char data;
; data=UDR1;
	ST   -Y,R17
;	data -> R17
	LDS  R17,206
;
;
; #ifdef WiFi_UART0_OUT
; UDR0=data;//shitty send test
; #endif
;
; #ifdef WiFi_ON
; WiFi_buf[0]=WiFi_buf[1]; WiFi_buf[1]=WiFi_buf[2]; WiFi_buf[2]=WiFi_buf[3]; WiFi_buf[3]=WiFi_buf[4]; WiFi_buf[4]=data;// ...
	__GETB1MN _WiFi_buf,1
	STS  _WiFi_buf,R30
	__GETB1MN _WiFi_buf,2
	__PUTB1MN _WiFi_buf,1
	__GETB1MN _WiFi_buf,3
	__PUTB1MN _WiFi_buf,2
	__GETB1MN _WiFi_buf,4
	__PUTB1MN _WiFi_buf,3
	__PUTBMRN _WiFi_buf,4,17
;
; switch(WiFi_what_to_read)
	MOV  R30,R12
	LDI  R31,0
; {
;  case 0: //nothing
	SBIW R30,0
	BRNE _0x81
;  break;
	RJMP _0x80
;  case 1: //limitless wait for the answer and switch
_0x81:
	CPI  R30,LOW(0x1)
	LDI  R26,HIGH(0x1)
	CPC  R31,R26
	BREQ PC+2
	RJMP _0x82
;  //then set answerID
;   WiFi_get_answer();//if WiFi_buf contains an answer - set the answer_ID
	CLR  R11
	__GETB2MN _WiFi_buf,2
	CPI  R26,LOW(0x4F)
	BRNE _0x400C061
	__GETB2MN _WiFi_buf,3
	CPI  R26,LOW(0x4B)
	BRNE _0x400C061
	__GETB2MN _WiFi_buf,4
	CPI  R26,LOW(0xD)
	BREQ _0x400C062
_0x400C061:
	RJMP _0x400C060
_0x400C062:
	LDI  R30,LOW(1)
	RJMP _0x400C07D
_0x400C060:
	LDS  R26,_WiFi_buf
	CPI  R26,LOW(0x45)
	BRNE _0x400C064
	__GETB2MN _WiFi_buf,1
	CPI  R26,LOW(0x52)
	BRNE _0x400C064
	__GETB2MN _WiFi_buf,2
	CPI  R26,LOW(0x52)
	BREQ _0x400C065
_0x400C064:
	RJMP _0x400C063
_0x400C065:
	LDI  R30,LOW(2)
	RJMP _0x400C07D
_0x400C063:
	__GETB2MN _WiFi_buf,2
	CPI  R26,LOW(0xA)
	BRNE _0x400C067
	__GETB2MN _WiFi_buf,3
	CPI  R26,LOW(0x3E)
	BRNE _0x400C067
	__GETB2MN _WiFi_buf,4
	CPI  R26,LOW(0x20)
	BREQ _0x400C068
_0x400C067:
	RJMP _0x400C066
_0x400C068:
	LDI  R30,LOW(3)
	RJMP _0x400C07D
_0x400C066:
	LDS  R26,_WiFi_buf
	CPI  R26,LOW(0x49)
	BRNE _0x400C06A
	__GETB2MN _WiFi_buf,1
	CPI  R26,LOW(0x50)
	BRNE _0x400C06A
	__GETB2MN _WiFi_buf,2
	CPI  R26,LOW(0x44)
	BRNE _0x400C06A
	__GETB2MN _WiFi_buf,3
	CPI  R26,LOW(0x2C)
	BREQ _0x400C06B
_0x400C06A:
	RJMP _0x400C069
_0x400C06B:
	LDI  R30,LOW(4)
	RJMP _0x400C07D
_0x400C069:
	LDS  R26,_WiFi_buf
	CPI  R26,LOW(0x47)
	BRNE _0x400C06D
	__GETB2MN _WiFi_buf,1
	CPI  R26,LOW(0x45)
	BRNE _0x400C06D
	__GETB2MN _WiFi_buf,2
	CPI  R26,LOW(0x54)
	BRNE _0x400C06D
	__GETB2MN _WiFi_buf,3
	CPI  R26,LOW(0x20)
	BRNE _0x400C06D
	__GETB2MN _WiFi_buf,4
	CPI  R26,LOW(0x2F)
	BREQ _0x400C06E
_0x400C06D:
	RJMP _0x400C06C
_0x400C06E:
	LDI  R30,LOW(5)
	RJMP _0x400C07D
_0x400C06C:
	__GETB2MN _WiFi_buf,2
	CPI  R26,LOW(0x3F)
	BRNE _0x400C070
	__GETB2MN _WiFi_buf,4
	CPI  R26,LOW(0x3D)
	BREQ _0x400C071
_0x400C070:
	RJMP _0x400C06F
_0x400C071:
	__GETB2MN _WiFi_buf,3
	CPI  R26,LOW(0x54)
	BRNE _0x400C072
	LDI  R30,LOW(6)
	RJMP _0x400C07D
_0x400C072:
	__GETB2MN _WiFi_buf,3
	CPI  R26,LOW(0x4C)
	BRNE _0x400C073
	LDI  R30,LOW(7)
	RJMP _0x400C07D
_0x400C073:
	LDI  R30,LOW(30)
	MOV  R11,R30
_0x400C06F:
	__GETB2MN _WiFi_buf,2
	CPI  R26,LOW(0x2F)
	BRNE _0x400C075
	__GETB2MN _WiFi_buf,3
	CPI  R26,LOW(0x20)
	BRNE _0x400C075
	__GETB2MN _WiFi_buf,4
	CPI  R26,LOW(0x48)
	BREQ _0x400C076
_0x400C075:
	RJMP _0x400C074
_0x400C076:
	LDI  R30,LOW(30)
	RJMP _0x400C07D
_0x400C074:
	__GETB2MN _WiFi_buf,2
	CPI  R26,LOW(0xD)
	BRNE _0x400C078
	__GETB2MN _WiFi_buf,3
	CPI  R26,LOW(0xA)
	BRNE _0x400C078
	__GETB2MN _WiFi_buf,4
	CPI  R26,LOW(0xD)
	BREQ _0x400C079
_0x400C078:
	RJMP _0x400C077
_0x400C079:
	LDI  R30,LOW(50)
_0x400C07D:
	MOV  R11,R30
	RJMP _0x400C05F
_0x400C077:
	LDS  R26,_WiFi_buf
	CPI  R26,LOW(0x61)
	BRNE _0x400C07B
	__GETB2MN _WiFi_buf,1
	CPI  R26,LOW(0x64)
	BRNE _0x400C07B
	__GETB2MN _WiFi_buf,2
	CPI  R26,LOW(0x79)
	BRNE _0x400C07B
	__GETB2MN _WiFi_buf,3
	CPI  R26,LOW(0xD)
	BRNE _0x400C07B
	__GETB2MN _WiFi_buf,4
	CPI  R26,LOW(0xA)
	BREQ _0x400C07C
_0x400C07B:
	RJMP _0x400C07A
_0x400C07C:
	LDI  R30,LOW(1)
	LDI  R31,HIGH(1)
	STS  _WiFi_reset_flag,R30
	STS  _WiFi_reset_flag+1,R31
_0x400C07A:
_0x400C05F:
;   if(WiFi_answer_ID>0)
	LDI  R30,LOW(0)
	CP   R30,R11
	BRSH _0x83
;   {
;     switch(WiFi_answer_ID)
	MOV  R30,R11
	LDI  R31,0
;     {
;      case 4: //incoming +IPD, request start, WiFi_buf[4]=0...4 digit is Current_Connection
	CPI  R30,LOW(0x4)
	LDI  R26,HIGH(0x4)
	CPC  R31,R26
	BRNE _0x86
;      // WiFi_Test++;
;       WiFi_Busy=1;
	LDI  R30,LOW(1)
	MOV  R13,R30
;       WiFi_Current_Connection=WiFi_buf[4]-'0'; //0 -4
	__GETB1MN _WiFi_buf,4
	SUBI R30,LOW(48)
	MOV  R9,R30
;       if(WiFi_Current_Connection>4) break; //search no more
	LDI  R30,LOW(4)
	CP   R30,R9
	BRLO _0x86
;       WiFi_symbol_counter=0;//?????
	CLR  R14
;       WiFi_what_to_read=2; //next step
	LDI  R30,LOW(2)
	MOV  R12,R30
;      return;
	RJMP _0x12C
;     }
_0x86:
;   }
;  break;
_0x83:
	RJMP _0x80
;  case 2: //waiting for get
_0x82:
	CPI  R30,LOW(0x2)
	LDI  R26,HIGH(0x2)
	CPC  R31,R26
	BREQ PC+2
	RJMP _0x89
;   if(WiFi_symbol_counter<13)//limit 13 symb
	LDI  R30,LOW(13)
	CP   R14,R30
	BRLO PC+2
	RJMP _0x8A
;   {
;    WiFi_symbol_counter++;
	INC  R14
;    WiFi_get_answer();
	CLR  R11
	__GETB2MN _WiFi_buf,2
	CPI  R26,LOW(0x4F)
	BRNE _0x800C061
	__GETB2MN _WiFi_buf,3
	CPI  R26,LOW(0x4B)
	BRNE _0x800C061
	__GETB2MN _WiFi_buf,4
	CPI  R26,LOW(0xD)
	BREQ _0x800C062
_0x800C061:
	RJMP _0x800C060
_0x800C062:
	LDI  R30,LOW(1)
	RJMP _0x800C07D
_0x800C060:
	LDS  R26,_WiFi_buf
	CPI  R26,LOW(0x45)
	BRNE _0x800C064
	__GETB2MN _WiFi_buf,1
	CPI  R26,LOW(0x52)
	BRNE _0x800C064
	__GETB2MN _WiFi_buf,2
	CPI  R26,LOW(0x52)
	BREQ _0x800C065
_0x800C064:
	RJMP _0x800C063
_0x800C065:
	LDI  R30,LOW(2)
	RJMP _0x800C07D
_0x800C063:
	__GETB2MN _WiFi_buf,2
	CPI  R26,LOW(0xA)
	BRNE _0x800C067
	__GETB2MN _WiFi_buf,3
	CPI  R26,LOW(0x3E)
	BRNE _0x800C067
	__GETB2MN _WiFi_buf,4
	CPI  R26,LOW(0x20)
	BREQ _0x800C068
_0x800C067:
	RJMP _0x800C066
_0x800C068:
	LDI  R30,LOW(3)
	RJMP _0x800C07D
_0x800C066:
	LDS  R26,_WiFi_buf
	CPI  R26,LOW(0x49)
	BRNE _0x800C06A
	__GETB2MN _WiFi_buf,1
	CPI  R26,LOW(0x50)
	BRNE _0x800C06A
	__GETB2MN _WiFi_buf,2
	CPI  R26,LOW(0x44)
	BRNE _0x800C06A
	__GETB2MN _WiFi_buf,3
	CPI  R26,LOW(0x2C)
	BREQ _0x800C06B
_0x800C06A:
	RJMP _0x800C069
_0x800C06B:
	LDI  R30,LOW(4)
	RJMP _0x800C07D
_0x800C069:
	LDS  R26,_WiFi_buf
	CPI  R26,LOW(0x47)
	BRNE _0x800C06D
	__GETB2MN _WiFi_buf,1
	CPI  R26,LOW(0x45)
	BRNE _0x800C06D
	__GETB2MN _WiFi_buf,2
	CPI  R26,LOW(0x54)
	BRNE _0x800C06D
	__GETB2MN _WiFi_buf,3
	CPI  R26,LOW(0x20)
	BRNE _0x800C06D
	__GETB2MN _WiFi_buf,4
	CPI  R26,LOW(0x2F)
	BREQ _0x800C06E
_0x800C06D:
	RJMP _0x800C06C
_0x800C06E:
	LDI  R30,LOW(5)
	RJMP _0x800C07D
_0x800C06C:
	__GETB2MN _WiFi_buf,2
	CPI  R26,LOW(0x3F)
	BRNE _0x800C070
	__GETB2MN _WiFi_buf,4
	CPI  R26,LOW(0x3D)
	BREQ _0x800C071
_0x800C070:
	RJMP _0x800C06F
_0x800C071:
	__GETB2MN _WiFi_buf,3
	CPI  R26,LOW(0x54)
	BRNE _0x800C072
	LDI  R30,LOW(6)
	RJMP _0x800C07D
_0x800C072:
	__GETB2MN _WiFi_buf,3
	CPI  R26,LOW(0x4C)
	BRNE _0x800C073
	LDI  R30,LOW(7)
	RJMP _0x800C07D
_0x800C073:
	LDI  R30,LOW(30)
	MOV  R11,R30
_0x800C06F:
	__GETB2MN _WiFi_buf,2
	CPI  R26,LOW(0x2F)
	BRNE _0x800C075
	__GETB2MN _WiFi_buf,3
	CPI  R26,LOW(0x20)
	BRNE _0x800C075
	__GETB2MN _WiFi_buf,4
	CPI  R26,LOW(0x48)
	BREQ _0x800C076
_0x800C075:
	RJMP _0x800C074
_0x800C076:
	LDI  R30,LOW(30)
	RJMP _0x800C07D
_0x800C074:
	__GETB2MN _WiFi_buf,2
	CPI  R26,LOW(0xD)
	BRNE _0x800C078
	__GETB2MN _WiFi_buf,3
	CPI  R26,LOW(0xA)
	BRNE _0x800C078
	__GETB2MN _WiFi_buf,4
	CPI  R26,LOW(0xD)
	BREQ _0x800C079
_0x800C078:
	RJMP _0x800C077
_0x800C079:
	LDI  R30,LOW(50)
_0x800C07D:
	MOV  R11,R30
	RJMP _0x800C05F
_0x800C077:
	LDS  R26,_WiFi_buf
	CPI  R26,LOW(0x61)
	BRNE _0x800C07B
	__GETB2MN _WiFi_buf,1
	CPI  R26,LOW(0x64)
	BRNE _0x800C07B
	__GETB2MN _WiFi_buf,2
	CPI  R26,LOW(0x79)
	BRNE _0x800C07B
	__GETB2MN _WiFi_buf,3
	CPI  R26,LOW(0xD)
	BRNE _0x800C07B
	__GETB2MN _WiFi_buf,4
	CPI  R26,LOW(0xA)
	BREQ _0x800C07C
_0x800C07B:
	RJMP _0x800C07A
_0x800C07C:
	LDI  R30,LOW(1)
	LDI  R31,HIGH(1)
	STS  _WiFi_reset_flag,R30
	STS  _WiFi_reset_flag+1,R31
_0x800C07A:
_0x800C05F:
;    if(WiFi_answer_ID==5)
	LDI  R30,LOW(5)
	CP   R30,R11
	BRNE _0x8B
;    {
;     //WiFi_Test++;
;     WiFi_what_to_read=3;//next step
	LDI  R30,LOW(3)
	MOV  R12,R30
;     WiFi_symbol_counter=0;
	CLR  R14
;     //WiFi_Connection_Request[WiFi_Current_Connection]=1;//!!!!!!!!!!!!!!!!!!!!!!!!!!!!!!!!!!!!!!
;     WiFi_Connection_CommandID[WiFi_Current_Connection]=0;//unknown for now
	MOV  R30,R9
	LDI  R31,0
	SUBI R30,LOW(-_WiFi_Connection_CommandID)
	SBCI R31,HIGH(-_WiFi_Connection_CommandID)
	LDI  R26,LOW(0)
	STD  Z+0,R26
;    }
;    return;//next step
_0x8B:
	RJMP _0x12C
;   }
;   WiFi_what_to_read=5;//next step
_0x8A:
	LDI  R30,LOW(5)
	MOV  R12,R30
;  return;
	RJMP _0x12C
;  case 3: //waiting for request
_0x89:
	CPI  R30,LOW(0x3)
	LDI  R26,HIGH(0x3)
	CPC  R31,R26
	BREQ PC+2
	RJMP _0x8C
;  if(WiFi_symbol_counter<6)//limit 6 symb
	LDI  R30,LOW(6)
	CP   R14,R30
	BRLO PC+2
	RJMP _0x8D
;   {
;    WiFi_symbol_counter++;
	INC  R14
;    WiFi_get_answer();
	CLR  R11
	__GETB2MN _WiFi_buf,2
	CPI  R26,LOW(0x4F)
	BRNE _0xC00C061
	__GETB2MN _WiFi_buf,3
	CPI  R26,LOW(0x4B)
	BRNE _0xC00C061
	__GETB2MN _WiFi_buf,4
	CPI  R26,LOW(0xD)
	BREQ _0xC00C062
_0xC00C061:
	RJMP _0xC00C060
_0xC00C062:
	LDI  R30,LOW(1)
	RJMP _0xC00C07D
_0xC00C060:
	LDS  R26,_WiFi_buf
	CPI  R26,LOW(0x45)
	BRNE _0xC00C064
	__GETB2MN _WiFi_buf,1
	CPI  R26,LOW(0x52)
	BRNE _0xC00C064
	__GETB2MN _WiFi_buf,2
	CPI  R26,LOW(0x52)
	BREQ _0xC00C065
_0xC00C064:
	RJMP _0xC00C063
_0xC00C065:
	LDI  R30,LOW(2)
	RJMP _0xC00C07D
_0xC00C063:
	__GETB2MN _WiFi_buf,2
	CPI  R26,LOW(0xA)
	BRNE _0xC00C067
	__GETB2MN _WiFi_buf,3
	CPI  R26,LOW(0x3E)
	BRNE _0xC00C067
	__GETB2MN _WiFi_buf,4
	CPI  R26,LOW(0x20)
	BREQ _0xC00C068
_0xC00C067:
	RJMP _0xC00C066
_0xC00C068:
	LDI  R30,LOW(3)
	RJMP _0xC00C07D
_0xC00C066:
	LDS  R26,_WiFi_buf
	CPI  R26,LOW(0x49)
	BRNE _0xC00C06A
	__GETB2MN _WiFi_buf,1
	CPI  R26,LOW(0x50)
	BRNE _0xC00C06A
	__GETB2MN _WiFi_buf,2
	CPI  R26,LOW(0x44)
	BRNE _0xC00C06A
	__GETB2MN _WiFi_buf,3
	CPI  R26,LOW(0x2C)
	BREQ _0xC00C06B
_0xC00C06A:
	RJMP _0xC00C069
_0xC00C06B:
	LDI  R30,LOW(4)
	RJMP _0xC00C07D
_0xC00C069:
	LDS  R26,_WiFi_buf
	CPI  R26,LOW(0x47)
	BRNE _0xC00C06D
	__GETB2MN _WiFi_buf,1
	CPI  R26,LOW(0x45)
	BRNE _0xC00C06D
	__GETB2MN _WiFi_buf,2
	CPI  R26,LOW(0x54)
	BRNE _0xC00C06D
	__GETB2MN _WiFi_buf,3
	CPI  R26,LOW(0x20)
	BRNE _0xC00C06D
	__GETB2MN _WiFi_buf,4
	CPI  R26,LOW(0x2F)
	BREQ _0xC00C06E
_0xC00C06D:
	RJMP _0xC00C06C
_0xC00C06E:
	LDI  R30,LOW(5)
	RJMP _0xC00C07D
_0xC00C06C:
	__GETB2MN _WiFi_buf,2
	CPI  R26,LOW(0x3F)
	BRNE _0xC00C070
	__GETB2MN _WiFi_buf,4
	CPI  R26,LOW(0x3D)
	BREQ _0xC00C071
_0xC00C070:
	RJMP _0xC00C06F
_0xC00C071:
	__GETB2MN _WiFi_buf,3
	CPI  R26,LOW(0x54)
	BRNE _0xC00C072
	LDI  R30,LOW(6)
	RJMP _0xC00C07D
_0xC00C072:
	__GETB2MN _WiFi_buf,3
	CPI  R26,LOW(0x4C)
	BRNE _0xC00C073
	LDI  R30,LOW(7)
	RJMP _0xC00C07D
_0xC00C073:
	LDI  R30,LOW(30)
	MOV  R11,R30
_0xC00C06F:
	__GETB2MN _WiFi_buf,2
	CPI  R26,LOW(0x2F)
	BRNE _0xC00C075
	__GETB2MN _WiFi_buf,3
	CPI  R26,LOW(0x20)
	BRNE _0xC00C075
	__GETB2MN _WiFi_buf,4
	CPI  R26,LOW(0x48)
	BREQ _0xC00C076
_0xC00C075:
	RJMP _0xC00C074
_0xC00C076:
	LDI  R30,LOW(30)
	RJMP _0xC00C07D
_0xC00C074:
	__GETB2MN _WiFi_buf,2
	CPI  R26,LOW(0xD)
	BRNE _0xC00C078
	__GETB2MN _WiFi_buf,3
	CPI  R26,LOW(0xA)
	BRNE _0xC00C078
	__GETB2MN _WiFi_buf,4
	CPI  R26,LOW(0xD)
	BREQ _0xC00C079
_0xC00C078:
	RJMP _0xC00C077
_0xC00C079:
	LDI  R30,LOW(50)
_0xC00C07D:
	MOV  R11,R30
	RJMP _0xC00C05F
_0xC00C077:
	LDS  R26,_WiFi_buf
	CPI  R26,LOW(0x61)
	BRNE _0xC00C07B
	__GETB2MN _WiFi_buf,1
	CPI  R26,LOW(0x64)
	BRNE _0xC00C07B
	__GETB2MN _WiFi_buf,2
	CPI  R26,LOW(0x79)
	BRNE _0xC00C07B
	__GETB2MN _WiFi_buf,3
	CPI  R26,LOW(0xD)
	BRNE _0xC00C07B
	__GETB2MN _WiFi_buf,4
	CPI  R26,LOW(0xA)
	BREQ _0xC00C07C
_0xC00C07B:
	RJMP _0xC00C07A
_0xC00C07C:
	LDI  R30,LOW(1)
	LDI  R31,HIGH(1)
	STS  _WiFi_reset_flag,R30
	STS  _WiFi_reset_flag+1,R31
_0xC00C07A:
_0xC00C05F:
;    if(WiFi_answer_ID==30)//html or button
	LDI  R30,LOW(30)
	CP   R30,R11
	BRNE _0x8E
;    {
;     //do smth in main
;     WiFi_Connection_CommandID[WiFi_Current_Connection]=WiFi_answer_ID;
	MOV  R30,R9
	LDI  R31,0
	SUBI R30,LOW(-_WiFi_Connection_CommandID)
	SBCI R31,HIGH(-_WiFi_Connection_CommandID)
	ST   Z,R11
;     WiFi_Connection_Request[WiFi_Current_Connection]=1;
	MOV  R30,R9
	LDI  R31,0
	SUBI R30,LOW(-_WiFi_Connection_Request)
	SBCI R31,HIGH(-_WiFi_Connection_Request)
	LDI  R26,LOW(1)
	STD  Z+0,R26
;     WiFi_what_to_read=5;//next step(getting value)
	LDI  R30,LOW(5)
	MOV  R12,R30
;     return;
	RJMP _0x12C
;    }
;    if(WiFi_answer_ID>=6&&WiFi_answer_ID<=12)//parameters set
_0x8E:
	LDI  R30,LOW(6)
	CP   R11,R30
	BRLO _0x90
	LDI  R30,LOW(12)
	CP   R30,R11
	BRSH _0x91
_0x90:
	RJMP _0x8F
_0x91:
;    {
;     WiFi_what_to_read=4;//next step(getting value)
	LDI  R30,LOW(4)
	MOV  R12,R30
;     WiFi_symbol_counter=0;
	CLR  R14
;     WiFi_Connection_CommandID[WiFi_Current_Connection]=WiFi_answer_ID;
	MOV  R30,R9
	LDI  R31,0
	SUBI R30,LOW(-_WiFi_Connection_CommandID)
	SBCI R31,HIGH(-_WiFi_Connection_CommandID)
	ST   Z,R11
;    }
;    return;//continue
_0x8F:
	RJMP _0x12C
;   }
;  WiFi_Connection_Request[WiFi_Current_Connection]=1;//unknown at all but should be closed in main
_0x8D:
	MOV  R30,R9
	LDI  R31,0
	SUBI R30,LOW(-_WiFi_Connection_Request)
	SBCI R31,HIGH(-_WiFi_Connection_Request)
	LDI  R26,LOW(1)
	STD  Z+0,R26
;  break;
	RJMP _0x80
;  case 4: //waiting for request value
_0x8C:
	CPI  R30,LOW(0x4)
	LDI  R26,HIGH(0x4)
	CPC  R31,R26
	BRNE _0x92
;   if(WiFi_symbol_counter<30)//limit 30 symb
	LDI  R30,LOW(30)
	CP   R14,R30
	BRSH _0x93
;   {
;    if(data==' ')//' '
	CPI  R17,32
	BRNE _0x94
;    {
;     WiFi_Request_Value[WiFi_Current_Connection][WiFi_symbol_counter]=0;//close char string
	MOV  R30,R9
	LDI  R26,LOW(30)
	MUL  R30,R26
	MOVW R30,R0
	SUBI R30,LOW(-_WiFi_Request_Value)
	SBCI R31,HIGH(-_WiFi_Request_Value)
	MOVW R26,R30
	CLR  R30
	ADD  R26,R14
	ADC  R27,R30
	ST   X,R30
;     WiFi_Connection_Request[WiFi_Current_Connection]=1;
	MOV  R30,R9
	LDI  R31,0
	SUBI R30,LOW(-_WiFi_Connection_Request)
	SBCI R31,HIGH(-_WiFi_Connection_Request)
	LDI  R26,LOW(1)
	STD  Z+0,R26
;     //set par and do anything in main
;     WiFi_what_to_read=5;//next step(getting value)
	LDI  R30,LOW(5)
	MOV  R12,R30
;     return;
	RJMP _0x12C
;    }
;    else
_0x94:
;    {
;     WiFi_Request_Value[WiFi_Current_Connection][WiFi_symbol_counter]=data;
	MOV  R30,R9
	LDI  R26,LOW(30)
	MUL  R30,R26
	MOVW R30,R0
	SUBI R30,LOW(-_WiFi_Request_Value)
	SBCI R31,HIGH(-_WiFi_Request_Value)
	MOVW R26,R30
	MOV  R30,R14
	LDI  R31,0
	ADD  R30,R26
	ADC  R31,R27
	ST   Z,R17
;    }
;    WiFi_symbol_counter++;
	INC  R14
;    return;//further
	RJMP _0x12C
;   }
;   WiFi_Connection_Request[WiFi_Current_Connection]=1;
_0x93:
	MOV  R30,R9
	LDI  R31,0
	SUBI R30,LOW(-_WiFi_Connection_Request)
	SBCI R31,HIGH(-_WiFi_Connection_Request)
	LDI  R26,LOW(1)
	STD  Z+0,R26
;   WiFi_Request_Value[WiFi_Current_Connection][WiFi_symbol_counter]=0;
	MOV  R30,R9
	LDI  R26,LOW(30)
	MUL  R30,R26
	MOVW R30,R0
	SUBI R30,LOW(-_WiFi_Request_Value)
	SBCI R31,HIGH(-_WiFi_Request_Value)
	MOVW R26,R30
	CLR  R30
	ADD  R26,R14
	ADC  R27,R30
	ST   X,R30
;   WiFi_what_to_read=5;//next step
	LDI  R30,LOW(5)
	MOV  R12,R30
;   return;
	RJMP _0x12C
;  case 5: //waiting for the end of semiuseless crap
_0x92:
	CPI  R30,LOW(0x5)
	LDI  R26,HIGH(0x5)
	CPC  R31,R26
	BREQ PC+2
	RJMP _0x80
;   WiFi_get_answer();//if WiFi_buf contains an answer then set the answer_ID
	CLR  R11
	__GETB2MN _WiFi_buf,2
	CPI  R26,LOW(0x4F)
	BRNE _0x1000C061
	__GETB2MN _WiFi_buf,3
	CPI  R26,LOW(0x4B)
	BRNE _0x1000C061
	__GETB2MN _WiFi_buf,4
	CPI  R26,LOW(0xD)
	BREQ _0x1000C062
_0x1000C061:
	RJMP _0x1000C060
_0x1000C062:
	LDI  R30,LOW(1)
	RJMP _0x1000C07D
_0x1000C060:
	LDS  R26,_WiFi_buf
	CPI  R26,LOW(0x45)
	BRNE _0x1000C064
	__GETB2MN _WiFi_buf,1
	CPI  R26,LOW(0x52)
	BRNE _0x1000C064
	__GETB2MN _WiFi_buf,2
	CPI  R26,LOW(0x52)
	BREQ _0x1000C065
_0x1000C064:
	RJMP _0x1000C063
_0x1000C065:
	LDI  R30,LOW(2)
	RJMP _0x1000C07D
_0x1000C063:
	__GETB2MN _WiFi_buf,2
	CPI  R26,LOW(0xA)
	BRNE _0x1000C067
	__GETB2MN _WiFi_buf,3
	CPI  R26,LOW(0x3E)
	BRNE _0x1000C067
	__GETB2MN _WiFi_buf,4
	CPI  R26,LOW(0x20)
	BREQ _0x1000C068
_0x1000C067:
	RJMP _0x1000C066
_0x1000C068:
	LDI  R30,LOW(3)
	RJMP _0x1000C07D
_0x1000C066:
	LDS  R26,_WiFi_buf
	CPI  R26,LOW(0x49)
	BRNE _0x1000C06A
	__GETB2MN _WiFi_buf,1
	CPI  R26,LOW(0x50)
	BRNE _0x1000C06A
	__GETB2MN _WiFi_buf,2
	CPI  R26,LOW(0x44)
	BRNE _0x1000C06A
	__GETB2MN _WiFi_buf,3
	CPI  R26,LOW(0x2C)
	BREQ _0x1000C06B
_0x1000C06A:
	RJMP _0x1000C069
_0x1000C06B:
	LDI  R30,LOW(4)
	RJMP _0x1000C07D
_0x1000C069:
	LDS  R26,_WiFi_buf
	CPI  R26,LOW(0x47)
	BRNE _0x1000C06D
	__GETB2MN _WiFi_buf,1
	CPI  R26,LOW(0x45)
	BRNE _0x1000C06D
	__GETB2MN _WiFi_buf,2
	CPI  R26,LOW(0x54)
	BRNE _0x1000C06D
	__GETB2MN _WiFi_buf,3
	CPI  R26,LOW(0x20)
	BRNE _0x1000C06D
	__GETB2MN _WiFi_buf,4
	CPI  R26,LOW(0x2F)
	BREQ _0x1000C06E
_0x1000C06D:
	RJMP _0x1000C06C
_0x1000C06E:
	LDI  R30,LOW(5)
	RJMP _0x1000C07D
_0x1000C06C:
	__GETB2MN _WiFi_buf,2
	CPI  R26,LOW(0x3F)
	BRNE _0x1000C070
	__GETB2MN _WiFi_buf,4
	CPI  R26,LOW(0x3D)
	BREQ _0x1000C071
_0x1000C070:
	RJMP _0x1000C06F
_0x1000C071:
	__GETB2MN _WiFi_buf,3
	CPI  R26,LOW(0x54)
	BRNE _0x1000C072
	LDI  R30,LOW(6)
	RJMP _0x1000C07D
_0x1000C072:
	__GETB2MN _WiFi_buf,3
	CPI  R26,LOW(0x4C)
	BRNE _0x1000C073
	LDI  R30,LOW(7)
	RJMP _0x1000C07D
_0x1000C073:
	LDI  R30,LOW(30)
	MOV  R11,R30
_0x1000C06F:
	__GETB2MN _WiFi_buf,2
	CPI  R26,LOW(0x2F)
	BRNE _0x1000C075
	__GETB2MN _WiFi_buf,3
	CPI  R26,LOW(0x20)
	BRNE _0x1000C075
	__GETB2MN _WiFi_buf,4
	CPI  R26,LOW(0x48)
	BREQ _0x1000C076
_0x1000C075:
	RJMP _0x1000C074
_0x1000C076:
	LDI  R30,LOW(30)
	RJMP _0x1000C07D
_0x1000C074:
	__GETB2MN _WiFi_buf,2
	CPI  R26,LOW(0xD)
	BRNE _0x1000C078
	__GETB2MN _WiFi_buf,3
	CPI  R26,LOW(0xA)
	BRNE _0x1000C078
	__GETB2MN _WiFi_buf,4
	CPI  R26,LOW(0xD)
	BREQ _0x1000C079
_0x1000C078:
	RJMP _0x1000C077
_0x1000C079:
	LDI  R30,LOW(50)
_0x1000C07D:
	MOV  R11,R30
	RJMP _0x1000C05F
_0x1000C077:
	LDS  R26,_WiFi_buf
	CPI  R26,LOW(0x61)
	BRNE _0x1000C07B
	__GETB2MN _WiFi_buf,1
	CPI  R26,LOW(0x64)
	BRNE _0x1000C07B
	__GETB2MN _WiFi_buf,2
	CPI  R26,LOW(0x79)
	BRNE _0x1000C07B
	__GETB2MN _WiFi_buf,3
	CPI  R26,LOW(0xD)
	BRNE _0x1000C07B
	__GETB2MN _WiFi_buf,4
	CPI  R26,LOW(0xA)
	BREQ _0x1000C07C
_0x1000C07B:
	RJMP _0x1000C07A
_0x1000C07C:
	LDI  R30,LOW(1)
	LDI  R31,HIGH(1)
	STS  _WiFi_reset_flag,R30
	STS  _WiFi_reset_flag+1,R31
_0x1000C07A:
_0x1000C05F:
;   if(WiFi_answer_ID==50)
	LDI  R30,LOW(50)
	CP   R30,R11
	BRNE _0x97
;   {
;     WiFi_Busy=0;
	CLR  R13
;     break;
	RJMP _0x80
;   }
;   return;
_0x97:
	RJMP _0x12C
; }
_0x80:
; WiFi_what_to_read=1;//always waiting!!!!
	LDI  R30,LOW(1)
	MOV  R12,R30
; WiFi_symbol_counter=0;
	CLR  R14
; #endif
;}
_0x12C:
	LD   R17,Y+
	LD   R30,Y+
	OUT  SREG,R30
	LD   R31,Y+
	LD   R30,Y+
	LD   R27,Y+
	LD   R26,Y+
	LD   R1,Y+
	LD   R0,Y+
	RETI
; .FEND
;
;
;//WiFi---------------------------------------------------------------------------------------------------------
;void WiFi_send_command(unsigned char id, unsigned char Connection, unsigned int Send_N)
;{
_WiFi_send_command:
; .FSTART _WiFi_send_command
; char str[11];
; switch(id)
	ST   -Y,R27
	ST   -Y,R26
	SBIW R28,11
;	id -> Y+14
;	Connection -> Y+13
;	Send_N -> Y+11
;	str -> Y+0
	LDD  R30,Y+14
	LDI  R31,0
; {
;  case 0: //reset
	SBIW R30,0
	BRNE _0x9B
;  putstr(1,"AT+RST");
	LDI  R30,LOW(1)
	ST   -Y,R30
	__POINTW2MN _0x9C,0
	RCALL _putstr
;  break;
	RJMP _0x9A
;  case 1: //echo off
_0x9B:
	CPI  R30,LOW(0x1)
	LDI  R26,HIGH(0x1)
	CPC  R31,R26
	BRNE _0x9D
;  putstr(1,"ATE0");
	LDI  R30,LOW(1)
	ST   -Y,R30
	__POINTW2MN _0x9C,7
	RCALL _putstr
;  break;
	RJMP _0x9A
;  case 2: //set current softAP ip addr
_0x9D:
	CPI  R30,LOW(0x2)
	LDI  R26,HIGH(0x2)
	CPC  R31,R26
	BRNE _0x9E
;  putstr(1,"AT+CIPAP_CUR=\"192.168.0.100\"");
	LDI  R30,LOW(1)
	ST   -Y,R30
	__POINTW2MN _0x9C,12
	RCALL _putstr
;  break;
	RJMP _0x9A
;  case 3: //wifi name and password(none for now)
_0x9E:
	CPI  R30,LOW(0x3)
	LDI  R26,HIGH(0x3)
	CPC  R31,R26
	BRNE _0x9F
;  putstr(1,"AT+CWSAP_CUR=\"2560DEMO\",\"\",1,0,1,0");
	LDI  R30,LOW(1)
	ST   -Y,R30
	__POINTW2MN _0x9C,41
	RCALL _putstr
;  break;
	RJMP _0x9A
;  case 4: //mode 2 softAP
_0x9F:
	CPI  R30,LOW(0x4)
	LDI  R26,HIGH(0x4)
	CPC  R31,R26
	BRNE _0xA0
;  putstr(1,"AT+CWMODE=2");
	LDI  R30,LOW(1)
	ST   -Y,R30
	__POINTW2MN _0x9C,76
	RCALL _putstr
;  break;
	RJMP _0x9A
;  case 5: //multi access(have to be for a server}
_0xA0:
	CPI  R30,LOW(0x5)
	LDI  R26,HIGH(0x5)
	CPC  R31,R26
	BRNE _0xA1
;  putstr(1,"AT+CIPMUX=1");
	LDI  R30,LOW(1)
	ST   -Y,R30
	__POINTW2MN _0x9C,88
	RCALL _putstr
;  break;
	RJMP _0x9A
;  case 6: //server start
_0xA1:
	CPI  R30,LOW(0x6)
	LDI  R26,HIGH(0x6)
	CPC  R31,R26
	BRNE _0xA2
;  putstr(1,"AT+CIPSERVER=1,80");
	LDI  R30,LOW(1)
	ST   -Y,R30
	__POINTW2MN _0x9C,100
	RCALL _putstr
;  break;
	RJMP _0x9A
;  case 7: //close an ip connection IPC_N 0-4
_0xA2:
	CPI  R30,LOW(0x7)
	LDI  R26,HIGH(0x7)
	CPC  R31,R26
	BRNE _0xA3
;  putstr(1,"AT+CIPCLOSE=");
	LDI  R30,LOW(1)
	ST   -Y,R30
	__POINTW2MN _0x9C,118
	RCALL _putstr
;  putchar1(Connection+48);//ascii or IPC_N+48
	LDD  R26,Y+13
	SUBI R26,-LOW(48)
	RCALL _putchar1
;  break;
	RJMP _0x9A
;  case 8: //send to WiFi_Con_N , WiFi_Send_N symbols
_0xA3:
	CPI  R30,LOW(0x8)
	LDI  R26,HIGH(0x8)
	CPC  R31,R26
	BRNE _0xA4
;  putstr(1,"AT+CIPSEND=");
	LDI  R30,LOW(1)
	ST   -Y,R30
	__POINTW2MN _0x9C,131
	RCALL _putstr
;  putchar1(Connection+48);
	LDD  R26,Y+13
	SUBI R26,-LOW(48)
	RCALL _putchar1
;  putchar1(',');
	LDI  R26,LOW(44)
	RCALL _putchar1
;  IntToStr(str,Send_N);
	MOVW R30,R28
	ST   -Y,R31
	ST   -Y,R30
	LDD  R26,Y+13
	LDD  R27,Y+13+1
	RCALL _IntToStr
;  putstr(1,str);
	LDI  R30,LOW(1)
	ST   -Y,R30
	MOVW R26,R28
	ADIW R26,1
	RCALL _putstr
;  break;
	RJMP _0x9A
;  case 9: //baudrate CURRENT not saved in eeprom
_0xA4:
	CPI  R30,LOW(0x9)
	LDI  R26,HIGH(0x9)
	CPC  R31,R26
	BRNE _0xA5
;  putstr(1,"AT+UART_CUR=9600,8,1,0,0");
	LDI  R30,LOW(1)
	ST   -Y,R30
	__POINTW2MN _0x9C,143
	RCALL _putstr
;  break;
	RJMP _0x9A
;  case 10:
_0xA5:
	CPI  R30,LOW(0xA)
	LDI  R26,HIGH(0xA)
	CPC  R31,R26
	BRNE _0xA7
;  putstr(1,"AT+UART_CUR=115200,8,1,0,0");
	LDI  R30,LOW(1)
	ST   -Y,R30
	__POINTW2MN _0x9C,168
	RCALL _putstr
;  break;
	RJMP _0x9A
;  default: return;
_0xA7:
	RJMP _0x2040005
; }
_0x9A:
; putchar1(13);
	LDI  R26,LOW(13)
	RCALL _putchar1
; putchar1(10);
	LDI  R26,LOW(10)
	RCALL _putchar1
;}
_0x2040005:
	ADIW R28,15
	RET
; .FEND

	.DSEG
_0x9C:
	.BYTE 0xC3
;
;
;void WiFi_setup(void)
;{

	.CSEG
_WiFi_setup:
; .FSTART _WiFi_setup
; UART_setup(1,1);
	LDI  R30,LOW(1)
	ST   -Y,R30
	LDI  R26,LOW(1)
	RCALL _UART_setup
; T3_delay(1);//0.02s
	LDI  R26,LOW(1)
	CALL _T3_delay
;// WiFi_send_command(9,0,0);//9600
;// T3_delay(4);
;// UART_setup(1,0);
;// T3_delay(4);//0.1s
; WiFi_send_command(1,0,0);//echo off
	LDI  R30,LOW(1)
	ST   -Y,R30
	LDI  R30,LOW(0)
	ST   -Y,R30
	LDI  R26,LOW(0)
	LDI  R27,0
	RCALL _WiFi_send_command
; T3_delay(4);//0.1s
	LDI  R26,LOW(4)
	CALL _T3_delay
; WiFi_send_command(2,0,0);
	LDI  R30,LOW(2)
	ST   -Y,R30
	LDI  R30,LOW(0)
	ST   -Y,R30
	LDI  R26,LOW(0)
	LDI  R27,0
	RCALL _WiFi_send_command
; T3_delay(4);//0.1s
	LDI  R26,LOW(4)
	CALL _T3_delay
; WiFi_send_command(3,0,0);
	LDI  R30,LOW(3)
	ST   -Y,R30
	LDI  R30,LOW(0)
	ST   -Y,R30
	LDI  R26,LOW(0)
	LDI  R27,0
	RCALL _WiFi_send_command
; T3_delay(4);//0.1s
	LDI  R26,LOW(4)
	CALL _T3_delay
; WiFi_send_command(4,0,0);
	LDI  R30,LOW(4)
	ST   -Y,R30
	LDI  R30,LOW(0)
	ST   -Y,R30
	LDI  R26,LOW(0)
	LDI  R27,0
	RCALL _WiFi_send_command
; T3_delay(4);//0.1s
	LDI  R26,LOW(4)
	CALL _T3_delay
; WiFi_send_command(5,0,0);
	LDI  R30,LOW(5)
	ST   -Y,R30
	LDI  R30,LOW(0)
	ST   -Y,R30
	LDI  R26,LOW(0)
	LDI  R27,0
	RCALL _WiFi_send_command
; T3_delay(4);//0.1s
	LDI  R26,LOW(4)
	CALL _T3_delay
; WiFi_send_command(6,0,0);
	LDI  R30,LOW(6)
	ST   -Y,R30
	LDI  R30,LOW(0)
	ST   -Y,R30
	LDI  R26,LOW(0)
	LDI  R27,0
	RCALL _WiFi_send_command
;}
	RET
; .FEND
;
;/*
;    esp-12
;
;    
;
;all command should ends with (13)(10)!!!!!!!
;AT+UART_DEF=9600,8,1,0,0                    //
;                                                                                       //answer
;AT_RST                                                                                 //ready
;ATE0                                                                                   //OK
;AT+CWSAP_CUR="LIGHTHOUSE L200N1","",1,0,1(or 4),0 //    
;AT+CIPAP_CUR="192.168.0.100"    //IP to enter in browser                               //OK
;AT+CWMODE=2 //mode 2 softAP                                                            //OK
;AT+CIPMUX=1 //multi                                                                    //OK
;AT+CIPSERVER=1,80 //server start                                                       //OK, ERROR, no change
;
;when client connects to wifi enter in browser 192.168.0.100 and there is connection to module
;
;0,CONNECT
;
;
;1,CONNECT
;2,CONNECT
;1,CLOSED
;etc.... maybe have to set matrix CONNECTED[4]={1,0,0,0} // connected/not connected
;
;+IPD,0,653:GET / HTTP/1.1    //CONNECTION 0 wants HTTP
;Host: 192.168.0.100
;+a lot of other useless crap..........
;the end of crap is (13)(10)(13)(10)
;
;//controller should sent html file here using commands:
;
;AT+CIPSEND=0,66     //send to 0, 66 symbols                //"> "(13)(10)
;send 66 bytes                                              //"Recv 66 bytes"
;
;//then close connection
;AT+CIPCLOSE=0   //0-N of connection
;
;//then comp/mobile send another GET like
;
;+IPD,0,411:GET /favicon.ico HTTP/1.1  //0 wants an icon
;//Just close it(AT+CIPCLOSE=0) cause you don't have any
;//it can be a couple of times...
;
;//then if user press a button or submit a form or anythuing
;+IPD,1,687:GET /ON HTTP/1.1//
;//here you have to send another piece of html.... and so on...
;
;//when you submit:
;+IPD,1,694:GET /?B=5 HTTP/1.1     //form name B and M from simple.html
;
;
;AT+CIPSERVER=0 //stop server     //maybe to change the name or something else
;
;
;//Parameters change requests examples
;+IPD,0,694:GET /?N=LH200A HTTP/1.1
;+IPD,0,691:GET /?B=100 HTTP/1.1
;+IPD,0,691:GET /?M=8 HTTP/1.1
;+IPD,1,686:GET /?I= HTTP/1.1
;+IPD,1,702:GET /?E=%2B79514338436 HTTP/1.1
;+IPD,1,702:GET /?R=%2B79513053591 HTTP/1.1
;
;
;
;
;//   (5)
;<meta http-equiv="refresh" content="5">
;*/
;
;
;interrupt [USART0_RXC] void usart0_rx_isr(void)
; 0000 0044 {
_usart0_rx_isr:
; .FSTART _usart0_rx_isr
; 0000 0045 char status,data;
; 0000 0046 status=UCSR0A;
	ST   -Y,R17
	ST   -Y,R16
;	status -> R17
;	data -> R16
	LDS  R17,192
; 0000 0047 data=UDR0;
	LDS  R16,198
; 0000 0048 }
	LD   R16,Y+
	LD   R17,Y+
	RETI
; .FEND
;
;// Timer1 overflow interrupt service routine 0.5s
;interrupt [TIM1_OVF] void timer1_ovf_isr(void)
; 0000 004C {
_timer1_ovf_isr:
; .FSTART _timer1_ovf_isr
	ST   -Y,R26
	ST   -Y,R30
	IN   R30,SREG
	ST   -Y,R30
; 0000 004D // Reinitialize Timer1 value
; 0000 004E TCNT1H=0xABA0 >> 8;
	LDI  R30,LOW(171)
	STS  133,R30
; 0000 004F TCNT1L=0xABA0 & 0xff;
	LDI  R30,LOW(160)
	STS  132,R30
; 0000 0050 
; 0000 0051 if(WiFi_reset_no_activity_counter>0) WiFi_reset_no_activity_counter--;
	LDS  R26,_WiFi_reset_no_activity_counter
	CPI  R26,LOW(0x1)
	BRLO _0xA8
	LDS  R30,_WiFi_reset_no_activity_counter
	SUBI R30,LOW(1)
	STS  _WiFi_reset_no_activity_counter,R30
; 0000 0052 
; 0000 0053 }
_0xA8:
	LD   R30,Y+
	OUT  SREG,R30
	LD   R30,Y+
	LD   R26,Y+
	RETI
; .FEND
;
;
;void main(void)
; 0000 0057 {
_main:
; .FSTART _main
; 0000 0058 unsigned char tmp,counter=0;
; 0000 0059 char str[20];
; 0000 005A 
; 0000 005B uCsetup();
	SBIW R28,20
;	tmp -> R17
;	counter -> R16
;	str -> Y+0
	LDI  R16,0
	RCALL _uCsetup
; 0000 005C WIFIOFF=0;
	CBI  0xA,4
; 0000 005D 
; 0000 005E  delay_ms(100);
	LDI  R26,LOW(100)
	LDI  R27,0
	CALL _delay_ms
; 0000 005F  LCD_init();
	RCALL _LCD_init
; 0000 0060  delay_ms(1);
	LDI  R26,LOW(1)
	LDI  R27,0
	CALL _delay_ms
; 0000 0061  UART_setup(0,0);
	LDI  R30,LOW(0)
	ST   -Y,R30
	LDI  R26,LOW(0)
	RCALL _UART_setup
; 0000 0062  #asm("sei")
	sei
; 0000 0063 
; 0000 0064  for(tmp=0;tmp<3;tmp++)// 
	LDI  R17,LOW(0)
_0xAC:
	CPI  R17,3
	BRSH _0xAD
; 0000 0065   {
; 0000 0066     LCD_DrawImage(dog0);
	LDI  R26,LOW(_dog0*2)
	LDI  R27,HIGH(_dog0*2)
	RCALL _LCD_DrawImage
; 0000 0067     LCD_DrawImage(dog1);
	LDI  R26,LOW(_dog1*2)
	LDI  R27,HIGH(_dog1*2)
	RCALL _LCD_DrawImage
; 0000 0068     LCD_DrawImage(dog2);
	LDI  R26,LOW(_dog2*2)
	LDI  R27,HIGH(_dog2*2)
	RCALL _LCD_DrawImage
; 0000 0069     LCD_DrawImage(dog3);
	LDI  R26,LOW(_dog3*2)
	LDI  R27,HIGH(_dog3*2)
	RCALL _LCD_DrawImage
; 0000 006A     LCD_DrawImage(dog4);
	LDI  R26,LOW(_dog4*2)
	LDI  R27,HIGH(_dog4*2)
	RCALL _LCD_DrawImage
; 0000 006B     LCD_DrawImage(dog5);
	LDI  R26,LOW(_dog5*2)
	LDI  R27,HIGH(_dog5*2)
	RCALL _LCD_DrawImage
; 0000 006C     LCD_DrawImage(dog6);
	LDI  R26,LOW(_dog6*2)
	LDI  R27,HIGH(_dog6*2)
	RCALL _LCD_DrawImage
; 0000 006D   }
	SUBI R17,-1
	RJMP _0xAC
_0xAD:
; 0000 006E 
; 0000 006F    LCD_Commmand(COMAND, SSD1306_INVERTDISPLAY);
	LDI  R30,LOW(0)
	ST   -Y,R30
	LDI  R26,LOW(167)
	RCALL _LCD_Commmand
; 0000 0070    LCD_DrawImage(mishaniya);
	LDI  R26,LOW(_mishaniya*2)
	LDI  R27,HIGH(_mishaniya*2)
	RCALL _LCD_DrawImage
; 0000 0071    delay_ms(5000);
	LDI  R26,LOW(5000)
	LDI  R27,HIGH(5000)
	CALL _delay_ms
; 0000 0072    LCD_Commmand(COMAND, SSD1306_NORMALDISPLAY);
	LDI  R30,LOW(0)
	ST   -Y,R30
	LDI  R26,LOW(166)
	RCALL _LCD_Commmand
; 0000 0073    LCD_DrawImage(0);//CLEAR
	LDI  R26,LOW(0)
	LDI  R27,0
	RCALL _LCD_DrawImage
; 0000 0074 
; 0000 0075    LCD_Goto(0,1);
	LDI  R30,LOW(0)
	ST   -Y,R30
	LDI  R26,LOW(1)
	RCALL _LCD_Goto
; 0000 0076    LCD_Printf("WiFi :",1);  //    
	__POINTW1MN _0xAE,0
	ST   -Y,R31
	ST   -Y,R30
	LDI  R26,LOW(1)
	RCALL _LCD_Printf
; 0000 0077    LCD_Goto(0,5);
	LDI  R30,LOW(0)
	ST   -Y,R30
	LDI  R26,LOW(5)
	RCALL _LCD_Goto
; 0000 0078    LCD_Printf("E",1);  //    
	__POINTW1MN _0xAE,12
	ST   -Y,R31
	ST   -Y,R30
	LDI  R26,LOW(1)
	RCALL _LCD_Printf
; 0000 0079    LCD_Goto(0,6);
	LDI  R30,LOW(0)
	ST   -Y,R30
	LDI  R26,LOW(6)
	RCALL _LCD_Goto
; 0000 007A    LCD_Printf("N",1);  //    
	__POINTW1MN _0xAE,14
	ST   -Y,R31
	ST   -Y,R30
	LDI  R26,LOW(1)
	RCALL _LCD_Printf
; 0000 007B    LCD_Goto(0,7);
	LDI  R30,LOW(0)
	ST   -Y,R30
	LDI  R26,LOW(7)
	RCALL _LCD_Goto
; 0000 007C    LCD_Printf("C",1);  //    
	__POINTW1MN _0xAE,16
	ST   -Y,R31
	ST   -Y,R30
	LDI  R26,LOW(1)
	RCALL _LCD_Printf
; 0000 007D    LCD_Goto(116,5);
	LDI  R30,LOW(116)
	ST   -Y,R30
	LDI  R26,LOW(5)
	RCALL _LCD_Goto
; 0000 007E    LCD_Printf("E",1);  //    
	__POINTW1MN _0xAE,18
	ST   -Y,R31
	ST   -Y,R30
	LDI  R26,LOW(1)
	RCALL _LCD_Printf
; 0000 007F    LCD_Goto(116,6);
	LDI  R30,LOW(116)
	ST   -Y,R30
	LDI  R26,LOW(6)
	RCALL _LCD_Goto
; 0000 0080    LCD_Printf("N",1);  //    
	__POINTW1MN _0xAE,20
	ST   -Y,R31
	ST   -Y,R30
	LDI  R26,LOW(1)
	RCALL _LCD_Printf
; 0000 0081    LCD_Goto(116,7);
	LDI  R30,LOW(116)
	ST   -Y,R30
	LDI  R26,LOW(7)
	RCALL _LCD_Goto
; 0000 0082    LCD_Printf("C",1);  //    
	__POINTW1MN _0xAE,22
	ST   -Y,R31
	ST   -Y,R30
	LDI  R26,LOW(1)
	RCALL _LCD_Printf
; 0000 0083    LCD_Goto(0,3);
	LDI  R30,LOW(0)
	ST   -Y,R30
	LDI  R26,LOW(3)
	RCALL _LCD_Goto
; 0000 0084    LCD_Printf(OLED_text,0);  //    
	LDI  R30,LOW(_OLED_text)
	LDI  R31,HIGH(_OLED_text)
	ST   -Y,R31
	ST   -Y,R30
	LDI  R26,LOW(0)
	RCALL _LCD_Printf
; 0000 0085     #ifdef WiFi_ON
; 0000 0086    WiFi_setup();//!!!!!!!!!!!!!!!!!!!
	RCALL _WiFi_setup
; 0000 0087     #endif
; 0000 0088  while (1)
_0xAF:
; 0000 0089   {
; 0000 008A    LCD_Goto(27,4);
	LDI  R30,LOW(27)
	ST   -Y,R30
	LDI  R26,LOW(4)
	RCALL _LCD_Goto
; 0000 008B    counter=ENC_counter;
	MOV  R16,R8
; 0000 008C    IntToStr(str,counter);
	MOVW R30,R28
	ST   -Y,R31
	ST   -Y,R30
	MOV  R26,R16
	CLR  R27
	RCALL _IntToStr
; 0000 008D    if(counter<100)LCD_BigNum(' ');
	CPI  R16,100
	BRSH _0xB2
	LDI  R26,LOW(32)
	RCALL _LCD_BigNum
; 0000 008E    if(counter<10)LCD_BigNum(' ');
_0xB2:
	CPI  R16,10
	BRSH _0xB3
	LDI  R26,LOW(32)
	RCALL _LCD_BigNum
; 0000 008F    LCD_Printf(str,2);  //    
_0xB3:
	MOVW R30,R28
	ST   -Y,R31
	ST   -Y,R30
	LDI  R26,LOW(2)
	RCALL _LCD_Printf
; 0000 0090    putchar0('A');//Jdy-40 out
	LDI  R26,LOW(65)
	RCALL _putchar0
; 0000 0091 
; 0000 0092    hue_to_rgb(counter<<3);
	MOV  R30,R16
	LSL  R30
	LSL  R30
	LSL  R30
	MOV  R26,R30
	CALL _hue_to_rgb
; 0000 0093    if(Ledon>0)
	LDI  R30,LOW(0)
	CP   R30,R10
	BRSH _0xB4
; 0000 0094     {Led(GLOBAL_GRB[1], GLOBAL_GRB[0], GLOBAL_GRB[2]);}
	__GETB1MN _GLOBAL_GRB,1
	ST   -Y,R30
	LDS  R30,_GLOBAL_GRB
	ST   -Y,R30
	__GETB2MN _GLOBAL_GRB,2
	RJMP _0x124
; 0000 0095    else
_0xB4:
; 0000 0096     {Led(GLOBAL_GRB[1]>>5, GLOBAL_GRB[0]>>5, GLOBAL_GRB[2]>>5);}
	__GETB1MN _GLOBAL_GRB,1
	SWAP R30
	ANDI R30,0xF
	LSR  R30
	ST   -Y,R30
	LDS  R30,_GLOBAL_GRB
	SWAP R30
	ANDI R30,0xF
	LSR  R30
	ST   -Y,R30
	__GETB1MN _GLOBAL_GRB,2
	SWAP R30
	ANDI R30,0xF
	LSR  R30
	MOV  R26,R30
_0x124:
	RCALL _Led
; 0000 0097 
; 0000 0098    #ifdef WiFi_ON
; 0000 0099    WiFi_main_processing();//!!!!!!!!!!!!!
	RCALL _WiFi_main_processing
; 0000 009A    LCD_Goto(0,3);
	LDI  R30,LOW(0)
	ST   -Y,R30
	LDI  R26,LOW(3)
	CALL _LCD_Goto
; 0000 009B    LCD_Printf(OLED_text,0);  //    
	LDI  R30,LOW(_OLED_text)
	LDI  R31,HIGH(_OLED_text)
	ST   -Y,R31
	ST   -Y,R30
	LDI  R26,LOW(0)
	RCALL _LCD_Printf
; 0000 009C 
; 0000 009D 
; 0000 009E //        if(WiFi_reset_no_activity_counter==0)
; 0000 009F //        {
; 0000 00A0 //         WiFi_reset_no_activity_counter=WiFi_reset_time;
; 0000 00A1 //         WiFi_processing_clear();
; 0000 00A2 //         WIFIRES=1;// res
; 0000 00A3 //         T3_delay(4);//0.1S
; 0000 00A4 //         WIFIRES=0;//NO res
; 0000 00A5 //        }
; 0000 00A6 //        else
; 0000 00A7 //        {
; 0000 00A8 //         if(WiFi_reset_flag==1)//reset detected
; 0000 00A9 //         {
; 0000 00AA //          WiFi_reset_flag=0;
; 0000 00AB //          WiFi_processing_clear();
; 0000 00AC //          WiFi_setup();
; 0000 00AD //         }
; 0000 00AE //         else
; 0000 00AF //         {WiFi_main_processing();}//WiFi processing
; 0000 00B0 //        }
; 0000 00B1         #endif
; 0000 00B2   }
	RJMP _0xAF
; 0000 00B3 }
_0xB6:
	RJMP _0xB6
; .FEND

	.DSEG
_0xAE:
	.BYTE 0x18
;
;
;
;void uCsetup(void)
; 0000 00B8 {

	.CSEG
_uCsetup:
; .FSTART _uCsetup
; 0000 00B9  // Crystal Oscillator division factor: 1
; 0000 00BA     #pragma optsize-
; 0000 00BB     CLKPR=(1<<CLKPCE);
	LDI  R30,LOW(128)
	STS  97,R30
; 0000 00BC     CLKPR=(0<<CLKPCE) | (0<<CLKPS3) | (0<<CLKPS2) | (0<<CLKPS1) | (0<<CLKPS0);
	LDI  R30,LOW(0)
	STS  97,R30
; 0000 00BD     #ifdef _OPTIMIZE_SIZE_
; 0000 00BE     #pragma optsize+
; 0000 00BF     #endif
; 0000 00C0 
; 0000 00C1     //I2C 
; 0000 00C2     DDRD.0=0;//SCL
	CBI  0xA,0
; 0000 00C3     DDRD.1=0;//SDA
	CBI  0xA,1
; 0000 00C4     PORTD.0=1;//pull-up
	SBI  0xB,0
; 0000 00C5     PORTD.1=1;//pull-up
	SBI  0xB,1
; 0000 00C6 
; 0000 00C7     DDRF.0=1;//mic5219(wifi and jdy-40) enable
	SBI  0x10,0
; 0000 00C8     PORTF.0=1;//mic5219(wifi and jdy-40) enable
	SBI  0x11,0
; 0000 00C9     DDRA.7=1;//led
	SBI  0x1,7
; 0000 00CA 
; 0000 00CB 
; 0000 00CC     // PCINT4 interrupt: On
; 0000 00CD     // PCINT5 interrupt: On
; 0000 00CE     // PCINT12 interrupt: On
; 0000 00CF     PCMSK0=(0<<PCINT7) | (0<<PCINT6) | (1<<PCINT5) | (1<<PCINT4) | (0<<PCINT3) | (0<<PCINT2) | (0<<PCINT1) | (0<<PCINT0) ...
	LDI  R30,LOW(48)
	STS  107,R30
; 0000 00D0     PCMSK1=(0<<PCINT15) | (0<<PCINT14) | (0<<PCINT13) | (1<<PCINT12) | (0<<PCINT11) | (0<<PCINT10) | (0<<PCINT9) | (0<<P ...
	LDI  R30,LOW(16)
	STS  108,R30
; 0000 00D1     PCICR=(0<<PCIE2) | (1<<PCIE1) | (1<<PCIE0);
	LDI  R30,LOW(3)
	STS  104,R30
; 0000 00D2 
; 0000 00D3 
; 0000 00D4     // Timer/Counter 3 initialization
; 0000 00D5     // Clock value: 10,800 kHz
; 0000 00D6     // Mode: Normal top=0xFFFF
; 0000 00D7     // Timer3 Overflow Interrupt: Off, (turned On when the function T3_delay() is called)!!!!!!!!!!!!!!!!!!!
; 0000 00D8     TCCR3A=(0<<COM3A1) | (0<<COM3A0) | (0<<COM3B1) | (0<<COM3B0) | (0<<COM3C1) | (0<<COM3C0) | (0<<WGM31) | (0<<WGM30);
	LDI  R30,LOW(0)
	STS  144,R30
; 0000 00D9     TCCR3B=0;
	STS  145,R30
; 0000 00DA     TCCR3B=0;
	STS  145,R30
; 0000 00DB     TCNT3H=0x00;
	STS  149,R30
; 0000 00DC     TCNT3L=0x00;
	STS  148,R30
; 0000 00DD 
; 0000 00DE     // Timer/Counter 3 Interrupt(s) initialization
; 0000 00DF     TIMSK3=(0<<ICIE3) | (0<<OCIE3C) | (0<<OCIE3B) | (0<<OCIE3A) | (1<<TOIE3);
	LDI  R30,LOW(1)
	STS  113,R30
; 0000 00E0 
; 0000 00E1     // Timer/Counter 1 initialization
; 0000 00E2     // Clock value: 43,200 kHz
; 0000 00E3     // Mode: Normal top=0xFFFF
; 0000 00E4     // Timer Period: 0,5 s
; 0000 00E5     // Timer1 Overflow Interrupt: On
; 0000 00E6     TCCR1B=(0<<ICNC1) | (0<<ICES1) | (0<<WGM13) | (0<<WGM12) | (1<<CS12) | (0<<CS11) | (0<<CS10);
	LDI  R30,LOW(4)
	STS  129,R30
; 0000 00E7     TCNT1H=0xAB;
	LDI  R30,LOW(171)
	STS  133,R30
; 0000 00E8     TCNT1L=0xA0;
	LDI  R30,LOW(160)
	STS  132,R30
; 0000 00E9 
; 0000 00EA     // Timer/Counter 1 Interrupt(s) initialization
; 0000 00EB     TIMSK1=(0<<ICIE1) | (0<<OCIE1C) | (0<<OCIE1B) | (0<<OCIE1A) | (1<<TOIE1);
	LDI  R30,LOW(1)
	STS  111,R30
; 0000 00EC 
; 0000 00ED      // TWI initialization
; 0000 00EE      // Mode: TWI Master
; 0000 00EF      // Bit Rate: 100 kHz
; 0000 00F0      twi_master_init(100);
	LDI  R26,LOW(100)
	LDI  R27,0
	CALL _twi_master_init
; 0000 00F1 }
	RET
; .FEND
;
;void UART_setup(unsigned char UART_N,unsigned char baud_N)//baud_N=0 - 9600 baud_N=1 - 115200
; 0000 00F4 {
_UART_setup:
; .FSTART _UART_setup
; 0000 00F5   switch(UART_N)
	ST   -Y,R26
;	UART_N -> Y+1
;	baud_N -> Y+0
	LDD  R30,Y+1
	LDI  R31,0
; 0000 00F6   {
; 0000 00F7    case 0:
	SBIW R30,0
	BRNE _0xC8
; 0000 00F8     //USART0 Baud Rate: 115200
; 0000 00F9     UCSR0A=(0<<RXC0) | (0<<TXC0) | (0<<UDRE0) | (0<<FE0) | (0<<DOR0) | (0<<UPE0) | (0<<U2X0) | (0<<MPCM0);
	LDI  R30,LOW(0)
	STS  192,R30
; 0000 00FA     UCSR0B=(1<<RXCIE0) | (0<<TXCIE0) | (0<<UDRIE0) | (1<<RXEN0) | (1<<TXEN0) | (0<<UCSZ02) | (0<<RXB80) | (0<<TXB80);
	LDI  R30,LOW(152)
	STS  193,R30
; 0000 00FB     UCSR0C=(0<<UMSEL01) | (0<<UMSEL00) | (0<<UPM01) | (0<<UPM00) | (0<<USBS0) | (1<<UCSZ01) | (1<<UCSZ00) | (0<<UCPOL0);
	LDI  R30,LOW(6)
	STS  194,R30
; 0000 00FC     UBRR0H=0x00;
	LDI  R30,LOW(0)
	STS  197,R30
; 0000 00FD     if(baud_N==0) UBRR0L=0x47;
	LD   R30,Y
	CPI  R30,0
	BRNE _0xC9
	LDI  R30,LOW(71)
	RJMP _0x125
; 0000 00FE     else UBRR0L=0x05;
_0xC9:
	LDI  R30,LOW(5)
_0x125:
	STS  196,R30
; 0000 00FF    break;
	RJMP _0xC7
; 0000 0100    case 1:
_0xC8:
	CPI  R30,LOW(0x1)
	LDI  R26,HIGH(0x1)
	CPC  R31,R26
	BRNE _0xCB
; 0000 0101     //USART1 Baud Rate: 115200
; 0000 0102     UCSR1A=(0<<RXC1) | (0<<TXC1) | (0<<UDRE1) | (0<<FE1) | (0<<DOR1) | (0<<UPE1) | (0<<U2X1) | (0<<MPCM1);
	LDI  R30,LOW(0)
	STS  200,R30
; 0000 0103     UCSR1B=(1<<RXCIE1) | (0<<TXCIE1) | (0<<UDRIE1) | (1<<RXEN1) | (1<<TXEN1) | (0<<UCSZ12) | (0<<RXB81) | (0<<TXB81);
	LDI  R30,LOW(152)
	STS  201,R30
; 0000 0104     UCSR1C=(0<<UMSEL11) | (0<<UMSEL10) | (0<<UPM11) | (0<<UPM10) | (0<<USBS1) | (1<<UCSZ11) | (1<<UCSZ10) | (0<<UCPOL1);
	LDI  R30,LOW(6)
	STS  202,R30
; 0000 0105     UBRR1H=0x00;
	LDI  R30,LOW(0)
	STS  205,R30
; 0000 0106     if(baud_N==0) UBRR1L=0x47;
	LD   R30,Y
	CPI  R30,0
	BRNE _0xCC
	LDI  R30,LOW(71)
	RJMP _0x126
; 0000 0107     else UBRR1L=0x05;
_0xCC:
	LDI  R30,LOW(5)
_0x126:
	STS  204,R30
; 0000 0108    break;
	RJMP _0xC7
; 0000 0109    case 2:
_0xCB:
	CPI  R30,LOW(0x2)
	LDI  R26,HIGH(0x2)
	CPC  R31,R26
	BRNE _0xCE
; 0000 010A     //USART2 Baud Rate: 115200
; 0000 010B     UCSR2A=(0<<RXC2) | (0<<TXC2) | (0<<UDRE2) | (0<<FE2) | (0<<DOR2) | (0<<UPE2) | (0<<U2X2) | (0<<MPCM2);
	LDI  R30,LOW(0)
	STS  208,R30
; 0000 010C     UCSR2B=(1<<RXCIE2) | (0<<TXCIE2) | (0<<UDRIE2) | (1<<RXEN2) | (1<<TXEN2) | (0<<UCSZ22) | (0<<RXB82) | (0<<TXB82);
	LDI  R30,LOW(152)
	STS  209,R30
; 0000 010D     UCSR2C=(0<<UMSEL21) | (0<<UMSEL20) | (0<<UPM21) | (0<<UPM20) | (0<<USBS2) | (1<<UCSZ21) | (1<<UCSZ20) | (0<<UCPOL2);
	LDI  R30,LOW(6)
	STS  210,R30
; 0000 010E     UBRR2H=0x00;
	LDI  R30,LOW(0)
	STS  213,R30
; 0000 010F     if(baud_N==0) UBRR2L=0x47;
	LD   R30,Y
	CPI  R30,0
	BRNE _0xCF
	LDI  R30,LOW(71)
	RJMP _0x127
; 0000 0110     else UBRR2L=0x05;
_0xCF:
	LDI  R30,LOW(5)
_0x127:
	STS  212,R30
; 0000 0111    break;
	RJMP _0xC7
; 0000 0112    case 3:
_0xCE:
	CPI  R30,LOW(0x3)
	LDI  R26,HIGH(0x3)
	CPC  R31,R26
	BRNE _0xC7
; 0000 0113     //USART3 Baud Rate: 115200
; 0000 0114     UCSR3A=(0<<RXC3) | (0<<TXC3) | (0<<UDRE3) | (0<<FE3) | (0<<DOR3) | (0<<UPE3) | (0<<U2X3) | (0<<MPCM3);
	LDI  R30,LOW(0)
	STS  304,R30
; 0000 0115     UCSR3B=(1<<RXCIE3) | (0<<TXCIE3) | (0<<UDRIE3) | (1<<RXEN3) | (1<<TXEN3) | (0<<UCSZ32) | (0<<RXB83) | (0<<TXB83);
	LDI  R30,LOW(152)
	STS  305,R30
; 0000 0116     UCSR3C=(0<<UMSEL31) | (0<<UMSEL30) | (0<<UPM31) | (0<<UPM30) | (0<<USBS3) | (1<<UCSZ31) | (1<<UCSZ30) | (0<<UCPOL3);
	LDI  R30,LOW(6)
	STS  306,R30
; 0000 0117     UBRR3H=0x00;
	LDI  R30,LOW(0)
	STS  309,R30
; 0000 0118     if(baud_N==0) UBRR3L=0x47;
	LD   R30,Y
	CPI  R30,0
	BRNE _0xD2
	LDI  R30,LOW(71)
	RJMP _0x128
; 0000 0119     else UBRR3L=0x05;
_0xD2:
	LDI  R30,LOW(5)
_0x128:
	STS  308,R30
; 0000 011A   }
_0xC7:
; 0000 011B }
	ADIW R28,2
	RET
; .FEND
;
;
;void putchar0(char c)
; 0000 011F {
_putchar0:
; .FSTART _putchar0
; 0000 0120 while ( !( UCSR0A & (1<<5)) ){} //UDRE0
	ST   -Y,R26
;	c -> Y+0
_0xD4:
	LDS  R30,192
	ANDI R30,LOW(0x20)
	BREQ _0xD4
; 0000 0121  UDR0=c;
	LD   R30,Y
	STS  198,R30
; 0000 0122 }
	JMP  _0x2040003
; .FEND
;
;
;void putchar1(char c)//Wifi
; 0000 0126 {
_putchar1:
; .FSTART _putchar1
; 0000 0127 while ( !( UCSR1A & (1<<5)) ){}
	ST   -Y,R26
;	c -> Y+0
_0xD7:
	LDS  R30,200
	ANDI R30,LOW(0x20)
	BREQ _0xD7
; 0000 0128  UDR1=c;
	LD   R30,Y
	STS  206,R30
; 0000 0129  //UDR0=c;//shitty send test
; 0000 012A }
	JMP  _0x2040003
; .FEND
;
;void putstr(char com_n,const char* S)
; 0000 012D {
_putstr:
; .FSTART _putstr
; 0000 012E  unsigned int tmp=0;
; 0000 012F  while(S[tmp]!=0)
	ST   -Y,R27
	ST   -Y,R26
	ST   -Y,R17
	ST   -Y,R16
;	com_n -> Y+4
;	*S -> Y+2
;	tmp -> R16,R17
	__GETWRN 16,17,0
_0xDA:
	MOVW R30,R16
	LDD  R26,Y+2
	LDD  R27,Y+2+1
	ADD  R26,R30
	ADC  R27,R31
	LD   R30,X
	CPI  R30,0
	BREQ _0xDC
; 0000 0130  {
; 0000 0131   switch(com_n)
	LDD  R30,Y+4
	LDI  R31,0
; 0000 0132   {
; 0000 0133    case 0:
	SBIW R30,0
	BRNE _0xE0
; 0000 0134    putchar0(S[tmp]);
	MOVW R30,R16
	LDD  R26,Y+2
	LDD  R27,Y+2+1
	ADD  R26,R30
	ADC  R27,R31
	LD   R26,X
	RCALL _putchar0
; 0000 0135    break;
	RJMP _0xDF
; 0000 0136    case 1:
_0xE0:
	CPI  R30,LOW(0x1)
	LDI  R26,HIGH(0x1)
	CPC  R31,R26
	BRNE _0xDF
; 0000 0137    putchar1(S[tmp]);
	MOVW R30,R16
	LDD  R26,Y+2
	LDD  R27,Y+2+1
	ADD  R26,R30
	ADC  R27,R31
	LD   R26,X
	RCALL _putchar1
; 0000 0138    break;
; 0000 0139  //  case 2:
; 0000 013A //   putchar2(S[tmp]);
; 0000 013B //   break;
; 0000 013C //   case 3:
; 0000 013D  //  putchar3(S[tmp]);
; 0000 013E   }
_0xDF:
; 0000 013F   tmp++;
	__ADDWRN 16,17,1
; 0000 0140  }
	RJMP _0xDA
_0xDC:
; 0000 0141 }
	LDD  R17,Y+1
	LDD  R16,Y+0
	ADIW R28,5
	RET
; .FEND
;
;void IntToStr(char* st,int n)//16 bit int to str char
; 0000 0144 {
_IntToStr:
; .FSTART _IntToStr
; 0000 0145  unsigned char tmp2;
; 0000 0146  unsigned int tmp=10000,tmpn,ind=0;
; 0000 0147  if(n<0)
	ST   -Y,R27
	ST   -Y,R26
	SBIW R28,2
	LDI  R30,LOW(0)
	ST   Y,R30
	STD  Y+1,R30
	CALL __SAVELOCR6
;	*st -> Y+10
;	n -> Y+8
;	tmp2 -> R17
;	tmp -> R18,R19
;	tmpn -> R20,R21
;	ind -> Y+6
	__GETWRN 18,19,10000
	LDD  R26,Y+9
	TST  R26
	BRPL _0xE2
; 0000 0148  {n=-n;
	LDD  R30,Y+8
	LDD  R31,Y+8+1
	CALL __ANEGW1
	STD  Y+8,R30
	STD  Y+8+1,R31
; 0000 0149   st[ind]='-';
	LDD  R30,Y+6
	LDD  R31,Y+6+1
	LDD  R26,Y+10
	LDD  R27,Y+10+1
	ADD  R26,R30
	ADC  R27,R31
	LDI  R30,LOW(45)
	ST   X,R30
; 0000 014A   ind++;}
	LDD  R30,Y+6
	LDD  R31,Y+6+1
	ADIW R30,1
	STD  Y+6,R30
	STD  Y+6+1,R31
; 0000 014B 
; 0000 014C  tmpn=n;
_0xE2:
	__GETWRS 20,21,8
; 0000 014D 
; 0000 014E  if(n==0)
	LDD  R30,Y+8
	LDD  R31,Y+8+1
	SBIW R30,0
	BRNE _0xE3
; 0000 014F  {
; 0000 0150   st[0]=0+48;
	LDD  R26,Y+10
	LDD  R27,Y+10+1
	LDI  R30,LOW(48)
	ST   X,R30
; 0000 0151   st[1]=0;
	ADIW R26,1
	RJMP _0x2040004
; 0000 0152   return;
; 0000 0153  }
; 0000 0154 
; 0000 0155  while(tmp>0)
_0xE3:
_0xE4:
	CLR  R0
	CP   R0,R18
	CPC  R0,R19
	BRSH _0xE6
; 0000 0156  {
; 0000 0157   if(tmp<=n)
	LDD  R30,Y+8
	LDD  R31,Y+8+1
	CP   R30,R18
	CPC  R31,R19
	BRLO _0xE7
; 0000 0158   {
; 0000 0159    tmp2=tmpn/tmp;
	MOVW R30,R18
	MOVW R26,R20
	CALL __DIVW21U
	MOV  R17,R30
; 0000 015A    st[ind]=tmp2+48;
	LDD  R30,Y+6
	LDD  R31,Y+6+1
	LDD  R26,Y+10
	LDD  R27,Y+10+1
	ADD  R26,R30
	ADC  R27,R31
	MOV  R30,R17
	SUBI R30,-LOW(48)
	ST   X,R30
; 0000 015B    tmpn=tmpn-tmp2*tmp;
	MOV  R26,R17
	LDI  R27,0
	MOVW R30,R18
	CALL __MULW12U
	__SUBWRR 20,21,30,31
; 0000 015C    ind++;
	LDD  R30,Y+6
	LDD  R31,Y+6+1
	ADIW R30,1
	STD  Y+6,R30
	STD  Y+6+1,R31
; 0000 015D   }
; 0000 015E   tmp=tmp/10;
_0xE7:
	MOVW R26,R18
	LDI  R30,LOW(10)
	LDI  R31,HIGH(10)
	CALL __DIVW21U
	MOVW R18,R30
; 0000 015F  }
	RJMP _0xE4
_0xE6:
; 0000 0160  st[ind]=0;
	LDD  R30,Y+6
	LDD  R31,Y+6+1
	LDD  R26,Y+10
	LDD  R27,Y+10+1
	ADD  R26,R30
	ADC  R27,R31
_0x2040004:
	LDI  R30,LOW(0)
	ST   X,R30
; 0000 0161 }
	CALL __LOADLOCR6
	ADIW R28,12
	RET
; .FEND
;
;// Pin change 0-7 interrupt service routine
;interrupt [PC_INT0] void pin_change_isr0(void)
; 0000 0165 {
_pin_change_isr0:
; .FSTART _pin_change_isr0
	ST   -Y,R30
	IN   R30,SREG
	ST   -Y,R30
; 0000 0166 // Place your code here
; 0000 0167 if(PINB.4==0)
	SBIC 0x3,4
	RJMP _0xE8
; 0000 0168  {
; 0000 0169   if(PINB.5==1&&PB5_B==1){ENC_counter--;}
	SBIS 0x3,5
	RJMP _0xEA
	LDI  R30,LOW(1)
	CP   R30,R5
	BREQ _0xEB
_0xEA:
	RJMP _0xE9
_0xEB:
	DEC  R8
; 0000 016A  }
_0xE9:
; 0000 016B  else
	RJMP _0xEC
_0xE8:
; 0000 016C  {
; 0000 016D   if(PINB.5==0&&PB4_B==1){ENC_counter++;}
	SBIC 0x3,5
	RJMP _0xEE
	LDI  R30,LOW(1)
	CP   R30,R6
	BREQ _0xEF
_0xEE:
	RJMP _0xED
_0xEF:
	INC  R8
; 0000 016E  }
_0xED:
_0xEC:
; 0000 016F  PB4_B=PINB.4;
	LDI  R30,0
	SBIC 0x3,4
	LDI  R30,1
	MOV  R6,R30
; 0000 0170  PB5_B=PINB.5;
	LDI  R30,0
	SBIC 0x3,5
	LDI  R30,1
	MOV  R5,R30
; 0000 0171 }
	LD   R30,Y+
	OUT  SREG,R30
	LD   R30,Y+
	RETI
; .FEND
;
;// Pin change 8-15 interrupt service routine
;interrupt [PC_INT1] void pin_change_isr1(void)
; 0000 0175 {
_pin_change_isr1:
; .FSTART _pin_change_isr1
	ST   -Y,R30
	IN   R30,SREG
	ST   -Y,R30
; 0000 0176  if((PINJ&(0b00001000))>0)
	LDS  R30,259
	ANDI R30,LOW(0x8)
	CPI  R30,LOW(0x1)
	BRLO _0xF0
; 0000 0177  {
; 0000 0178   if(Ledon>0)
	LDI  R30,LOW(0)
	CP   R30,R10
	BRSH _0xF1
; 0000 0179    Ledon=0;
	CLR  R10
; 0000 017A   else
	RJMP _0xF2
_0xF1:
; 0000 017B    Ledon=1;
	LDI  R30,LOW(1)
	MOV  R10,R30
; 0000 017C  }
_0xF2:
; 0000 017D }
_0xF0:
	LD   R30,Y+
	OUT  SREG,R30
	LD   R30,Y+
	RETI
; .FEND
;
;
;void Led(char R, char G, char B)// RGB   11.0592 MHz
; 0000 0181 {
_Led:
; .FSTART _Led
; 0000 0182     unsigned char i;
; 0000 0183     for(i = 0b10000000; i >= 0b00000001; i = i >> 1)//Green
	ST   -Y,R26
	ST   -Y,R17
;	R -> Y+3
;	G -> Y+2
;	B -> Y+1
;	i -> R17
	LDI  R17,LOW(128)
_0xF4:
	CPI  R17,1
	BRLO _0xF5
; 0000 0184     {
; 0000 0185         if((G & i) > 0)
	MOV  R30,R17
	LDD  R26,Y+2
	AND  R30,R26
	CPI  R30,LOW(0x1)
	BRLO _0xF6
; 0000 0186         {RGBPIN=1;//should be 0.9us
	SBI  0x2,7
; 0000 0187          #asm("nop");#asm("nop");#asm("nop");#asm("nop");#asm("nop");#asm("nop");#asm("nop");
	nop
	nop
	nop
	nop
	nop
	nop
	nop
; 0000 0188          RGBPIN=0;}//should be 0.35us but ??1.35us also works ok// now it's dick knows
	RJMP _0x129
; 0000 0189         else
_0xF6:
; 0000 018A         {RGBPIN=1; //should be 0.35us but 0.4
	SBI  0x2,7
; 0000 018B          #asm("nop");
	nop
; 0000 018C          RGBPIN=0;} //should be 0.9us but 1.35us also works ok
_0x129:
	CBI  0x2,7
; 0000 018D     }
	LSR  R17
	RJMP _0xF4
_0xF5:
; 0000 018E     for(i = 0b10000000; i >= 0b00000001; i = i >> 1)//Red
	LDI  R17,LOW(128)
_0x101:
	CPI  R17,1
	BRLO _0x102
; 0000 018F     {
; 0000 0190         if((R & i) > 0)
	MOV  R30,R17
	LDD  R26,Y+3
	AND  R30,R26
	CPI  R30,LOW(0x1)
	BRLO _0x103
; 0000 0191         {RGBPIN=1;//should be 0.9us
	SBI  0x2,7
; 0000 0192          #asm("nop");#asm("nop");#asm("nop");#asm("nop");#asm("nop");#asm("nop");#asm("nop");
	nop
	nop
	nop
	nop
	nop
	nop
	nop
; 0000 0193          RGBPIN=0;}//should be 0.35us but 1.35us also works ok
	RJMP _0x12A
; 0000 0194 
; 0000 0195         else
_0x103:
; 0000 0196         {RGBPIN=1; //should be 0.35us but 0.4
	SBI  0x2,7
; 0000 0197          #asm("nop");
	nop
; 0000 0198          RGBPIN=0;} //should be 0.9us but 1.35us also works ok
_0x12A:
	CBI  0x2,7
; 0000 0199     }
	LSR  R17
	RJMP _0x101
_0x102:
; 0000 019A     for(i = 0b10000000; i >= 0b00000001; i = i >> 1)//Blue
	LDI  R17,LOW(128)
_0x10E:
	CPI  R17,1
	BRLO _0x10F
; 0000 019B     {
; 0000 019C         if((B & i) > 0)
	MOV  R30,R17
	LDD  R26,Y+1
	AND  R30,R26
	CPI  R30,LOW(0x1)
	BRLO _0x110
; 0000 019D         {RGBPIN=1;//should be 0.9us
	SBI  0x2,7
; 0000 019E          #asm("nop");#asm("nop");#asm("nop");#asm("nop");#asm("nop");#asm("nop");#asm("nop");
	nop
	nop
	nop
	nop
	nop
	nop
	nop
; 0000 019F          RGBPIN=0;}//should be 0.35us but 1.35us also works ok
	RJMP _0x12B
; 0000 01A0         else
_0x110:
; 0000 01A1         {RGBPIN=1; //should be 0.35us but 0.4
	SBI  0x2,7
; 0000 01A2          #asm("nop");
	nop
; 0000 01A3          RGBPIN=0;} //should be 0.9us but 1.35us also works ok
_0x12B:
	CBI  0x2,7
; 0000 01A4     }
	LSR  R17
	RJMP _0x10E
_0x10F:
; 0000 01A5 }
	LDD  R17,Y+0
	ADIW R28,4
	RET
; .FEND
;
;void hue_to_rgb(unsigned char hue)
; 0000 01A8 {
_hue_to_rgb:
; .FSTART _hue_to_rgb
; 0000 01A9  if(hue<=85)
	ST   -Y,R26
;	hue -> Y+0
	LD   R26,Y
	CPI  R26,LOW(0x56)
	BRSH _0x11A
; 0000 01AA  {
; 0000 01AB   GLOBAL_GRB[2]=(85-hue)*3;        // GLOBAL_GRB[0]RB[2]
	LDI  R30,LOW(85)
	SUB  R30,R26
	LDI  R26,LOW(3)
	MULS R30,R26
	MOVW R30,R0
	__PUTB1MN _GLOBAL_GRB,2
; 0000 01AC   GLOBAL_GRB[1]=hue*3;
	LD   R30,Y
	MULS R30,R26
	MOVW R30,R0
	__PUTB1MN _GLOBAL_GRB,1
; 0000 01AD   GLOBAL_GRB[0]=0;
	LDI  R30,LOW(0)
	STS  _GLOBAL_GRB,R30
; 0000 01AE   return;
	RJMP _0x2040003
; 0000 01AF  }
; 0000 01B0   if(hue>170)
_0x11A:
	LD   R26,Y
	CPI  R26,LOW(0xAB)
	BRLO _0x11B
; 0000 01B1  {
; 0000 01B2   GLOBAL_GRB[2]=(hue-171)*3;
	LD   R30,Y
	SUBI R30,LOW(171)
	LDI  R26,LOW(3)
	MULS R30,R26
	MOVW R30,R0
	__PUTB1MN _GLOBAL_GRB,2
; 0000 01B3   GLOBAL_GRB[1]=0;
	LDI  R30,LOW(0)
	__PUTB1MN _GLOBAL_GRB,1
; 0000 01B4   GLOBAL_GRB[0]=(255-hue)*3;
	LD   R26,Y
	LDI  R30,LOW(255)
	SUB  R30,R26
	LDI  R26,LOW(3)
	MULS R30,R26
	MOVW R30,R0
	STS  _GLOBAL_GRB,R30
; 0000 01B5   return;
	RJMP _0x2040003
; 0000 01B6  }
; 0000 01B7  else
_0x11B:
; 0000 01B8  {
; 0000 01B9   GLOBAL_GRB[2]=0;
	LDI  R30,LOW(0)
	__PUTB1MN _GLOBAL_GRB,2
; 0000 01BA   GLOBAL_GRB[1]=(171-hue)*3;
	LD   R26,Y
	LDI  R30,LOW(171)
	SUB  R30,R26
	LDI  R26,LOW(3)
	MULS R30,R26
	MOVW R30,R0
	__PUTB1MN _GLOBAL_GRB,1
; 0000 01BB   GLOBAL_GRB[0]=(hue-86)*3;
	LD   R30,Y
	SUBI R30,LOW(86)
	MULS R30,R26
	MOVW R30,R0
	STS  _GLOBAL_GRB,R30
; 0000 01BC   return;
	RJMP _0x2040003
; 0000 01BD  }
; 0000 01BE }
; .FEND
;
;//Timer3 DELAY TIMEOUT-------------------------------------------------------------
;// Timer3 overflow interrupt
;//General purpose timer (delays timeouts etc)
;//max P=6s (10800Hz  65535)
;interrupt [TIM3_OVF] void timer3_ovf_isr(void)
; 0000 01C5 {
_timer3_ovf_isr:
; .FSTART _timer3_ovf_isr
	ST   -Y,R30
; 0000 01C6  TCCR3B=0;//t3 off
	LDI  R30,LOW(0)
	STS  145,R30
; 0000 01C7  T3_ready=1;
	LDI  R30,LOW(1)
	MOV  R7,R30
; 0000 01C8 }
	LD   R30,Y+
	RETI
; .FEND
;
;void T3_delay(unsigned char d)//1-255 * 23.7ms
; 0000 01CB {
_T3_delay:
; .FSTART _T3_delay
; 0000 01CC  T3_ready=0;
	ST   -Y,R26
;	d -> Y+0
	CLR  R7
; 0000 01CD  TCNT3H=(255-d)+1;
	LD   R26,Y
	LDI  R30,LOW(255)
	SUB  R30,R26
	SUBI R30,-LOW(1)
	STS  149,R30
; 0000 01CE  TCNT3L=0;
	LDI  R30,LOW(0)
	STS  148,R30
; 0000 01CF  TCCR3B=5;//T3 on 10800Hz
	LDI  R30,LOW(5)
	STS  145,R30
; 0000 01D0  while(T3_ready==0){};
_0x11D:
	TST  R7
	BREQ _0x11D
; 0000 01D1 }
	RJMP _0x2040003
; .FEND
;
;
;//start timeout (do smth until overflow interrupt set T3_ready=1)
;void T3_timeout(unsigned char d)//1-255 * 23.7ms
; 0000 01D6 {
_T3_timeout:
; .FSTART _T3_timeout
; 0000 01D7  T3_ready=0;
	ST   -Y,R26
;	d -> Y+0
	CLR  R7
; 0000 01D8  TCNT3H=(255-d)+1;
	LD   R26,Y
	LDI  R30,LOW(255)
	SUB  R30,R26
	SUBI R30,-LOW(1)
	STS  149,R30
; 0000 01D9  TCNT3L=0;
	LDI  R30,LOW(0)
	STS  148,R30
; 0000 01DA  TCCR3B=5;//T3 on 10800Hz
	LDI  R30,LOW(5)
	STS  145,R30
; 0000 01DB }
_0x2040003:
	ADIW R28,1
	RET
; .FEND
;//Timer3 DELAY-------------------------------------------------------------
	#ifndef __SLEEP_DEFINED__
	#define __SLEEP_DEFINED__
	.EQU __se_bit=0x01
	.EQU __sm_mask=0x0E
	.EQU __sm_powerdown=0x04
	.EQU __sm_powersave=0x06
	.EQU __sm_standby=0x0C
	.EQU __sm_ext_standby=0x0E
	.EQU __sm_adc_noise_red=0x02
	.SET power_ctrl_reg=smcr
	#endif

	.DSEG

	.CSEG
_twi_master_init:
; .FSTART _twi_master_init
	ST   -Y,R27
	ST   -Y,R26
	ST   -Y,R17
	SBI  0x1E,1
	LDI  R30,LOW(7)
	STS  _twi_result,R30
	LDI  R30,LOW(0)
	STS  _twi_slave_rx_handler_G100,R30
	STS  _twi_slave_rx_handler_G100+1,R30
	STS  _twi_slave_tx_handler_G100,R30
	STS  _twi_slave_tx_handler_G100+1,R30
	SBI  0xB,1
	SBI  0xB,0
	STS  188,R30
	LDS  R30,185
	ANDI R30,LOW(0xFC)
	STS  185,R30
	LDD  R30,Y+1
	LDD  R31,Y+1+1
	LDI  R26,LOW(5529)
	LDI  R27,HIGH(5529)
	CALL __DIVW21U
	MOV  R17,R30
	CPI  R17,8
	BRLO _0x2000006
	SUBI R17,LOW(8)
_0x2000006:
	STS  184,R17
	LDS  R30,188
	ANDI R30,LOW(0x80)
	ORI  R30,LOW(0x45)
	STS  188,R30
	LDD  R17,Y+0
	ADIW R28,3
	RET
; .FEND
_twi_master_trans:
; .FSTART _twi_master_trans
	ST   -Y,R26
	SBIW R28,4
	SBIS 0x1E,1
	RJMP _0x2000007
	LDD  R30,Y+10
	LSL  R30
	STS  _slave_address_G100,R30
	LDD  R30,Y+8
	LDD  R31,Y+8+1
	STS  _twi_tx_buffer_G100,R30
	STS  _twi_tx_buffer_G100+1,R31
	LDI  R30,LOW(0)
	STS  _twi_tx_index,R30
	LDD  R30,Y+7
	STS  _bytes_to_tx_G100,R30
	LDD  R30,Y+5
	LDD  R31,Y+5+1
	STS  _twi_rx_buffer_G100,R30
	STS  _twi_rx_buffer_G100+1,R31
	LDI  R30,LOW(0)
	STS  _twi_rx_index,R30
	LDD  R30,Y+4
	STS  _bytes_to_rx_G100,R30
	LDI  R30,LOW(6)
	STS  _twi_result,R30
	sei
	LDD  R30,Y+7
	CPI  R30,0
	BREQ _0x2000008
	LDD  R30,Y+8
	LDD  R31,Y+8+1
	SBIW R30,0
	BRNE _0x2000009
	RJMP _0x2040002
_0x2000009:
	LDD  R30,Y+4
	CPI  R30,0
	BREQ _0x200000B
	LDD  R26,Y+5
	LDD  R27,Y+5+1
	SBIW R26,0
	BREQ _0x200000C
_0x200000B:
	RJMP _0x200000A
_0x200000C:
	RJMP _0x2040002
_0x200000A:
	SBI  0x1E,0
	RJMP _0x200000F
_0x2000008:
	LDD  R30,Y+4
	CPI  R30,0
	BREQ _0x2000010
	LDD  R30,Y+5
	LDD  R31,Y+5+1
	SBIW R30,0
	BREQ _0x2040002
	LDS  R30,_slave_address_G100
	ORI  R30,1
	STS  _slave_address_G100,R30
	CBI  0x1E,0
_0x200000F:
	CBI  0x1E,1
	LDS  R30,188
	ANDI R30,LOW(0xF)
	ORI  R30,LOW(0xA0)
	STS  188,R30
	__GETD1N 0x7A120
	CALL __PUTD1S0
_0x2000016:
	SBIC 0x1E,1
	RJMP _0x2000018
	CALL __GETD1S0
	SBIW R30,1
	SBCI R22,0
	SBCI R23,0
	CALL __PUTD1S0
	BRNE _0x2000019
	LDI  R30,LOW(5)
	STS  _twi_result,R30
	SBI  0x1E,1
	RJMP _0x2040002
_0x2000019:
	RJMP _0x2000016
_0x2000018:
_0x2000010:
	LDS  R26,_twi_result
	LDI  R30,LOW(0)
	CALL __EQB12
	RJMP _0x2040001
_0x2000007:
_0x2040002:
	LDI  R30,LOW(0)
_0x2040001:
	ADIW R28,11
	RET
; .FEND
_twi_int_handler:
; .FSTART _twi_int_handler
	ST   -Y,R0
	ST   -Y,R1
	ST   -Y,R15
	ST   -Y,R22
	ST   -Y,R23
	ST   -Y,R24
	ST   -Y,R25
	ST   -Y,R26
	ST   -Y,R27
	ST   -Y,R30
	ST   -Y,R31
	IN   R30,SREG
	ST   -Y,R30
	CALL __SAVELOCR6
	LDS  R17,_twi_rx_index
	LDS  R16,_twi_tx_index
	LDS  R19,_bytes_to_tx_G100
	LDS  R18,_twi_result
	MOV  R30,R17
	LDS  R26,_twi_rx_buffer_G100
	LDS  R27,_twi_rx_buffer_G100+1
	LDI  R31,0
	ADD  R30,R26
	ADC  R31,R27
	MOVW R20,R30
	LDS  R30,185
	ANDI R30,LOW(0xF8)
	CPI  R30,LOW(0x8)
	BRNE _0x2000023
	LDI  R18,LOW(0)
	RJMP _0x2000024
_0x2000023:
	CPI  R30,LOW(0x10)
	BRNE _0x2000025
_0x2000024:
	LDS  R30,_slave_address_G100
	RJMP _0x2000080
_0x2000025:
	CPI  R30,LOW(0x18)
	BREQ _0x2000029
	CPI  R30,LOW(0x28)
	BRNE _0x200002A
_0x2000029:
	CP   R16,R19
	BRSH _0x200002B
	MOV  R30,R16
	SUBI R16,-1
	LDS  R26,_twi_tx_buffer_G100
	LDS  R27,_twi_tx_buffer_G100+1
	LDI  R31,0
	ADD  R26,R30
	ADC  R27,R31
	LD   R30,X
_0x2000080:
	STS  187,R30
	LDS  R30,188
	ANDI R30,LOW(0xF)
	ORI  R30,0x80
	STS  188,R30
	RJMP _0x200002C
_0x200002B:
	LDS  R30,_bytes_to_rx_G100
	CP   R17,R30
	BRSH _0x200002D
	LDS  R30,_slave_address_G100
	ORI  R30,1
	STS  _slave_address_G100,R30
	CBI  0x1E,0
	LDS  R30,188
	ANDI R30,LOW(0xF)
	ORI  R30,LOW(0xA0)
	STS  188,R30
	RJMP _0x2000022
_0x200002D:
	RJMP _0x2000030
_0x200002C:
	RJMP _0x2000022
_0x200002A:
	CPI  R30,LOW(0x50)
	BRNE _0x2000031
	LDS  R30,187
	MOVW R26,R20
	ST   X,R30
	SUBI R17,-LOW(1)
	RJMP _0x2000032
_0x2000031:
	CPI  R30,LOW(0x40)
	BRNE _0x2000033
_0x2000032:
	LDS  R30,_bytes_to_rx_G100
	SUBI R30,LOW(1)
	CP   R17,R30
	BRLO _0x2000034
	LDS  R30,188
	ANDI R30,LOW(0xF)
	ORI  R30,0x80
	RJMP _0x2000081
_0x2000034:
	LDS  R30,188
	ANDI R30,LOW(0xF)
	ORI  R30,LOW(0xC0)
_0x2000081:
	STS  188,R30
	RJMP _0x2000022
_0x2000033:
	CPI  R30,LOW(0x58)
	BRNE _0x2000036
	LDS  R30,187
	MOVW R26,R20
	ST   X,R30
	SUBI R17,-LOW(1)
	RJMP _0x2000037
_0x2000036:
	CPI  R30,LOW(0x20)
	BRNE _0x2000038
_0x2000037:
	RJMP _0x2000039
_0x2000038:
	CPI  R30,LOW(0x30)
	BRNE _0x200003A
_0x2000039:
	RJMP _0x200003B
_0x200003A:
	CPI  R30,LOW(0x48)
	BRNE _0x200003C
_0x200003B:
	CPI  R18,0
	BRNE _0x200003D
	SBIS 0x1E,0
	RJMP _0x200003E
	CP   R16,R19
	BRLO _0x2000040
	RJMP _0x2000041
_0x200003E:
	LDS  R30,_bytes_to_rx_G100
	CP   R17,R30
	BRSH _0x2000042
_0x2000040:
	LDI  R18,LOW(4)
_0x2000042:
_0x2000041:
_0x200003D:
_0x2000030:
	RJMP _0x2000082
_0x200003C:
	CPI  R30,LOW(0x38)
	BRNE _0x2000045
	LDI  R18,LOW(2)
	LDS  R30,188
	ANDI R30,LOW(0xF)
	ORI  R30,0x80
	RJMP _0x2000083
_0x2000045:
	CPI  R30,LOW(0x68)
	BREQ _0x2000048
	CPI  R30,LOW(0x78)
	BRNE _0x2000049
_0x2000048:
	LDI  R18,LOW(2)
	RJMP _0x200004A
_0x2000049:
	CPI  R30,LOW(0x60)
	BREQ _0x200004D
	CPI  R30,LOW(0x70)
	BRNE _0x200004E
_0x200004D:
	LDI  R18,LOW(0)
_0x200004A:
	LDI  R17,LOW(0)
	CBI  0x1E,0
	LDS  R30,_twi_rx_buffer_size_G100
	CPI  R30,0
	BRNE _0x2000051
	LDI  R18,LOW(1)
	LDS  R30,188
	ANDI R30,LOW(0xF)
	ORI  R30,0x80
	RJMP _0x2000084
_0x2000051:
	LDS  R30,188
	ANDI R30,LOW(0xF)
	ORI  R30,LOW(0xC0)
_0x2000084:
	STS  188,R30
	RJMP _0x2000022
_0x200004E:
	CPI  R30,LOW(0x80)
	BREQ _0x2000054
	CPI  R30,LOW(0x90)
	BRNE _0x2000055
_0x2000054:
	SBIS 0x1E,0
	RJMP _0x2000056
	LDI  R18,LOW(1)
	RJMP _0x2000057
_0x2000056:
	LDS  R30,187
	MOVW R26,R20
	ST   X,R30
	SUBI R17,-LOW(1)
	LDS  R30,_twi_rx_buffer_size_G100
	CP   R17,R30
	BRSH _0x2000058
	LDS  R30,_twi_slave_rx_handler_G100
	LDS  R31,_twi_slave_rx_handler_G100+1
	SBIW R30,0
	BRNE _0x2000059
	LDI  R18,LOW(6)
	RJMP _0x2000057
_0x2000059:
	LDI  R26,LOW(0)
	__CALL1MN _twi_slave_rx_handler_G100,0
	CPI  R30,0
	BREQ _0x200005A
	LDS  R30,188
	ANDI R30,LOW(0xF)
	ORI  R30,LOW(0xC0)
	STS  188,R30
	RJMP _0x2000022
_0x200005A:
	RJMP _0x200005B
_0x2000058:
	SBI  0x1E,0
_0x200005B:
	RJMP _0x200005E
_0x2000055:
	CPI  R30,LOW(0x88)
	BRNE _0x200005F
_0x200005E:
	RJMP _0x2000060
_0x200005F:
	CPI  R30,LOW(0x98)
	BRNE _0x2000061
_0x2000060:
	LDS  R30,188
	ANDI R30,LOW(0xF)
	ORI  R30,0x80
	STS  188,R30
	RJMP _0x2000022
_0x2000061:
	CPI  R30,LOW(0xA0)
	BRNE _0x2000062
	LDS  R30,188
	ANDI R30,LOW(0xF)
	ORI  R30,LOW(0xC0)
	STS  188,R30
	SBI  0x1E,1
	LDS  R30,_twi_slave_rx_handler_G100
	LDS  R31,_twi_slave_rx_handler_G100+1
	SBIW R30,0
	BREQ _0x2000065
	LDI  R26,LOW(1)
	__CALL1MN _twi_slave_rx_handler_G100,0
	RJMP _0x2000066
_0x2000065:
	LDI  R18,LOW(6)
_0x2000066:
	RJMP _0x2000022
_0x2000062:
	CPI  R30,LOW(0xB0)
	BRNE _0x2000067
	LDI  R18,LOW(2)
	RJMP _0x2000068
_0x2000067:
	CPI  R30,LOW(0xA8)
	BRNE _0x2000069
_0x2000068:
	LDS  R30,_twi_slave_tx_handler_G100
	LDS  R31,_twi_slave_tx_handler_G100+1
	SBIW R30,0
	BREQ _0x200006A
	LDI  R26,LOW(0)
	__CALL1MN _twi_slave_tx_handler_G100,0
	MOV  R19,R30
	CPI  R30,0
	BREQ _0x200006C
	LDI  R18,LOW(0)
	RJMP _0x200006D
_0x200006A:
_0x200006C:
	LDI  R18,LOW(6)
	RJMP _0x2000057
_0x200006D:
	LDI  R16,LOW(0)
	CBI  0x1E,0
	RJMP _0x2000070
_0x2000069:
	CPI  R30,LOW(0xB8)
	BRNE _0x2000071
_0x2000070:
	SBIS 0x1E,0
	RJMP _0x2000072
	LDI  R18,LOW(1)
	RJMP _0x2000057
_0x2000072:
	MOV  R30,R16
	SUBI R16,-1
	LDS  R26,_twi_tx_buffer_G100
	LDS  R27,_twi_tx_buffer_G100+1
	LDI  R31,0
	ADD  R26,R30
	ADC  R27,R31
	LD   R30,X
	STS  187,R30
	CP   R16,R19
	BRSH _0x2000073
	LDS  R30,188
	ANDI R30,LOW(0xF)
	ORI  R30,LOW(0xC0)
	RJMP _0x2000085
_0x2000073:
	SBI  0x1E,0
	LDS  R30,188
	ANDI R30,LOW(0xF)
	ORI  R30,0x80
_0x2000085:
	STS  188,R30
	RJMP _0x2000022
_0x2000071:
	CPI  R30,LOW(0xC0)
	BREQ _0x2000078
	CPI  R30,LOW(0xC8)
	BRNE _0x2000079
_0x2000078:
	LDS  R30,188
	ANDI R30,LOW(0xF)
	ORI  R30,LOW(0xC0)
	STS  188,R30
	LDS  R30,_twi_slave_tx_handler_G100
	LDS  R31,_twi_slave_tx_handler_G100+1
	SBIW R30,0
	BREQ _0x200007A
	LDI  R26,LOW(1)
	__CALL1MN _twi_slave_tx_handler_G100,0
_0x200007A:
	RJMP _0x2000043
_0x2000079:
	CPI  R30,0
	BRNE _0x2000022
	LDI  R18,LOW(3)
_0x2000057:
_0x2000082:
	LDS  R30,188
	ANDI R30,LOW(0xF)
	ORI  R30,LOW(0xD0)
_0x2000083:
	STS  188,R30
_0x2000043:
	SBI  0x1E,1
_0x2000022:
	STS  _twi_rx_index,R17
	STS  _twi_tx_index,R16
	STS  _twi_result,R18
	STS  _bytes_to_tx_G100,R19
	CALL __LOADLOCR6
	ADIW R28,6
	LD   R30,Y+
	OUT  SREG,R30
	LD   R31,Y+
	LD   R30,Y+
	LD   R27,Y+
	LD   R26,Y+
	LD   R25,Y+
	LD   R24,Y+
	LD   R23,Y+
	LD   R22,Y+
	LD   R15,Y+
	LD   R1,Y+
	LD   R0,Y+
	RETI
; .FEND

	.CSEG

	.DSEG
_twi_tx_index:
	.BYTE 0x1
_twi_rx_index:
	.BYTE 0x1
_twi_result:
	.BYTE 0x1
_tx_buffer:
	.BYTE 0x81
_GLOBAL_GRB:
	.BYTE 0x3
_OLED_text:
	.BYTE 0x1E
_WiFi_buf:
	.BYTE 0x5
_WiFi_reset_no_activity_counter:
	.BYTE 0x1
_HTML_info_N:
	.BYTE 0x1
_WiFi_Connection_Request:
	.BYTE 0x5
_WiFi_Request_Value:
	.BYTE 0x96
_WiFi_Connection_CommandID:
	.BYTE 0x5
_WiFi_reset_flag:
	.BYTE 0x2
_HTML_main_code:
	.BYTE 0x260
_HTML_info_code:
	.BYTE 0xF5
_slave_address_G100:
	.BYTE 0x1
_twi_tx_buffer_G100:
	.BYTE 0x2
_bytes_to_tx_G100:
	.BYTE 0x1
_twi_rx_buffer_G100:
	.BYTE 0x2
_bytes_to_rx_G100:
	.BYTE 0x1
_twi_rx_buffer_size_G100:
	.BYTE 0x1
_twi_slave_rx_handler_G100:
	.BYTE 0x2
_twi_slave_tx_handler_G100:
	.BYTE 0x2

	.CSEG

	.CSEG
_delay_ms:
	adiw r26,0
	breq __delay_ms1
__delay_ms0:
	__DELAY_USW 0xACD
	wdr
	sbiw r26,1
	brne __delay_ms0
__delay_ms1:
	ret

__ANEGW1:
	NEG  R31
	NEG  R30
	SBCI R31,0
	RET

__EQB12:
	CP   R30,R26
	LDI  R30,1
	BREQ __EQB12T
	CLR  R30
__EQB12T:
	RET

__MULW12U:
	MUL  R31,R26
	MOV  R31,R0
	MUL  R30,R27
	ADD  R31,R0
	MUL  R30,R26
	MOV  R30,R0
	ADD  R31,R1
	RET

__DIVW21U:
	CLR  R0
	CLR  R1
	LDI  R25,16
__DIVW21U1:
	LSL  R26
	ROL  R27
	ROL  R0
	ROL  R1
	SUB  R0,R30
	SBC  R1,R31
	BRCC __DIVW21U2
	ADD  R0,R30
	ADC  R1,R31
	RJMP __DIVW21U3
__DIVW21U2:
	SBR  R26,1
__DIVW21U3:
	DEC  R25
	BRNE __DIVW21U1
	MOVW R30,R26
	MOVW R26,R0
	RET

__DIVW21:
	RCALL __CHKSIGNW
	RCALL __DIVW21U
	BRTC __DIVW211
	RCALL __ANEGW1
__DIVW211:
	RET

__CHKSIGNW:
	CLT
	SBRS R31,7
	RJMP __CHKSW1
	RCALL __ANEGW1
	SET
__CHKSW1:
	SBRS R27,7
	RJMP __CHKSW2
	COM  R26
	COM  R27
	ADIW R26,1
	BLD  R0,0
	INC  R0
	BST  R0,0
__CHKSW2:
	RET

__GETD1S0:
	LD   R30,Y
	LDD  R31,Y+1
	LDD  R22,Y+2
	LDD  R23,Y+3
	RET

__PUTD1S0:
	ST   Y,R30
	STD  Y+1,R31
	STD  Y+2,R22
	STD  Y+3,R23
	RET

__SAVELOCR6:
	ST   -Y,R21
__SAVELOCR5:
	ST   -Y,R20
__SAVELOCR4:
	ST   -Y,R19
__SAVELOCR3:
	ST   -Y,R18
__SAVELOCR2:
	ST   -Y,R17
	ST   -Y,R16
	RET

__LOADLOCR6:
	LDD  R21,Y+5
__LOADLOCR5:
	LDD  R20,Y+4
__LOADLOCR4:
	LDD  R19,Y+3
__LOADLOCR3:
	LDD  R18,Y+2
__LOADLOCR2:
	LDD  R17,Y+1
	LD   R16,Y
	RET

;END OF CODE MARKER
__END_OF_CODE:
