
AVRASM ver. 2.1.30  C:\Documents and Settings\pav\Рабочий стол\Рабочая_папка\ПРОЕКТЫ\200W_fonarik\MYMODULE2560_DEMO\Debug\List\MY2560_DEMO.asm Mon Jul 27 18:05:11 2020

C:\Documents and Settings\pav\Рабочий стол\Рабочая_папка\ПРОЕКТЫ\200W_fonarik\MYMODULE2560_DEMO\Debug\List\MY2560_DEMO.asm(1094): warning: Register r4 already defined by the .DEF directive
C:\Documents and Settings\pav\Рабочий стол\Рабочая_папка\ПРОЕКТЫ\200W_fonarik\MYMODULE2560_DEMO\Debug\List\MY2560_DEMO.asm(1095): warning: Register r3 already defined by the .DEF directive
C:\Documents and Settings\pav\Рабочий стол\Рабочая_папка\ПРОЕКТЫ\200W_fonarik\MYMODULE2560_DEMO\Debug\List\MY2560_DEMO.asm(1096): warning: Register r6 already defined by the .DEF directive
C:\Documents and Settings\pav\Рабочий стол\Рабочая_папка\ПРОЕКТЫ\200W_fonarik\MYMODULE2560_DEMO\Debug\List\MY2560_DEMO.asm(1097): warning: Register r5 already defined by the .DEF directive
C:\Documents and Settings\pav\Рабочий стол\Рабочая_папка\ПРОЕКТЫ\200W_fonarik\MYMODULE2560_DEMO\Debug\List\MY2560_DEMO.asm(1098): warning: Register r8 already defined by the .DEF directive
C:\Documents and Settings\pav\Рабочий стол\Рабочая_папка\ПРОЕКТЫ\200W_fonarik\MYMODULE2560_DEMO\Debug\List\MY2560_DEMO.asm(1099): warning: Register r7 already defined by the .DEF directive
C:\Documents and Settings\pav\Рабочий стол\Рабочая_папка\ПРОЕКТЫ\200W_fonarik\MYMODULE2560_DEMO\Debug\List\MY2560_DEMO.asm(1100): warning: Register r10 already defined by the .DEF directive
C:\Documents and Settings\pav\Рабочий стол\Рабочая_папка\ПРОЕКТЫ\200W_fonarik\MYMODULE2560_DEMO\Debug\List\MY2560_DEMO.asm(1101): warning: Register r9 already defined by the .DEF directive
C:\Documents and Settings\pav\Рабочий стол\Рабочая_папка\ПРОЕКТЫ\200W_fonarik\MYMODULE2560_DEMO\Debug\List\MY2560_DEMO.asm(1102): warning: Register r12 already defined by the .DEF directive
C:\Documents and Settings\pav\Рабочий стол\Рабочая_папка\ПРОЕКТЫ\200W_fonarik\MYMODULE2560_DEMO\Debug\List\MY2560_DEMO.asm(1103): warning: Register r11 already defined by the .DEF directive
C:\Documents and Settings\pav\Рабочий стол\Рабочая_папка\ПРОЕКТЫ\200W_fonarik\MYMODULE2560_DEMO\Debug\List\MY2560_DEMO.asm(1104): warning: Register r14 already defined by the .DEF directive
C:\Documents and Settings\pav\Рабочий стол\Рабочая_папка\ПРОЕКТЫ\200W_fonarik\MYMODULE2560_DEMO\Debug\List\MY2560_DEMO.asm(1105): warning: Register r13 already defined by the .DEF directive
                 
                 
                 ;CodeVisionAVR C Compiler V3.12 Advanced
                 ;(C) Copyright 1998-2014 Pavel Haiduc, HP InfoTech s.r.l.
                 ;http://www.hpinfotech.com
                 
                 ;Build configuration    : Debug
                 ;Chip type              : ATmega2560
                 ;Program type           : Application
                 ;Clock frequency        : 11,059200 MHz
                 ;Memory model           : Small
                 ;Optimize for           : Speed
                 ;(s)printf features     : int, width
                 ;(s)scanf features      : int, width
                 ;External RAM size      : 0
                 ;Data Stack size        : 2048 byte(s)
                 ;Heap size              : 0 byte(s)
                 ;Promote 'char' to 'int': Yes
                 ;'char' is unsigned     : Yes
                 ;8 bit enums            : Yes
                 ;Global 'const' stored in FLASH: Yes
                 ;Enhanced function parameter passing: Yes
                 ;Enhanced core instructions: On
                 ;Automatic register allocation for global variables: On
                 ;Smart register allocation: On
                 
                 	#define _MODEL_SMALL_
                 
                 	#pragma AVRPART ADMIN PART_NAME ATmega2560
                 	#pragma AVRPART MEMORY PROG_FLASH 262144
                 	#pragma AVRPART MEMORY EEPROM 4096
                 	#pragma AVRPART MEMORY INT_SRAM SIZE 8192
                 	#pragma AVRPART MEMORY INT_SRAM START_ADDR 0x200
                 
                 	#define CALL_SUPPORTED 1
                 
                 	.LISTMAC
                 	.EQU EERE=0x0
                 	.EQU EEWE=0x1
                 	.EQU EEMWE=0x2
                 	.EQU UDRE=0x5
                 	.EQU RXC=0x7
                 	.EQU EECR=0x1F
                 	.EQU EEDR=0x20
                 	.EQU EEARL=0x21
                 	.EQU EEARH=0x22
                 	.EQU SPSR=0x2D
                 	.EQU SPDR=0x2E
                 	.EQU SMCR=0x33
                 	.EQU MCUSR=0x34
                 	.EQU MCUCR=0x35
                 	.EQU WDTCSR=0x60
                 	.EQU UCSR0A=0xC0
                 	.EQU UDR0=0xC6
                 	.EQU RAMPZ=0x3B
                 	.EQU EIND=0x3C
                 	.EQU SPL=0x3D
                 	.EQU SPH=0x3E
                 	.EQU SREG=0x3F
                 	.EQU XMCRA=0x74
                 	.EQU XMCRB=0x75
                 	.EQU GPIOR0=0x1E
                 
                 	.DEF R0X0=R0
                 	.DEF R0X1=R1
                 	.DEF R0X2=R2
                 	.DEF R0X3=R3
                 	.DEF R0X4=R4
                 	.DEF R0X5=R5
                 	.DEF R0X6=R6
                 	.DEF R0X7=R7
                 	.DEF R0X8=R8
                 	.DEF R0X9=R9
                 	.DEF R0XA=R10
                 	.DEF R0XB=R11
                 	.DEF R0XC=R12
                 	.DEF R0XD=R13
                 	.DEF R0XE=R14
                 	.DEF R0XF=R15
                 	.DEF R0X10=R16
                 	.DEF R0X11=R17
                 	.DEF R0X12=R18
                 	.DEF R0X13=R19
                 	.DEF R0X14=R20
                 	.DEF R0X15=R21
                 	.DEF R0X16=R22
                 	.DEF R0X17=R23
                 	.DEF R0X18=R24
                 	.DEF R0X19=R25
                 	.DEF R0X1A=R26
                 	.DEF R0X1B=R27
                 	.DEF R0X1C=R28
                 	.DEF R0X1D=R29
                 	.DEF R0X1E=R30
                 	.DEF R0X1F=R31
                 
                 	.EQU __SRAM_START=0x0200
                 	.EQU __SRAM_END=0x21FF
                 	.EQU __DSTACK_SIZE=0x0800
                 	.EQU __HEAP_SIZE=0x0000
                 	.EQU __CLEAR_SRAM_SIZE=__SRAM_END-__SRAM_START+1
                 
                 	.MACRO __CPD1N
                 	CPI  R30,LOW(@0)
                 	LDI  R26,HIGH(@0)
                 	CPC  R31,R26
                 	LDI  R26,BYTE3(@0)
                 	CPC  R22,R26
                 	LDI  R26,BYTE4(@0)
                 	CPC  R23,R26
                 	.ENDM
                 
                 	.MACRO __CPD2N
                 	CPI  R26,LOW(@0)
                 	LDI  R30,HIGH(@0)
                 	CPC  R27,R30
                 	LDI  R30,BYTE3(@0)
                 	CPC  R24,R30
                 	LDI  R30,BYTE4(@0)
                 	CPC  R25,R30
                 	.ENDM
                 
                 	.MACRO __CPWRR
                 	CP   R@0,R@2
                 	CPC  R@1,R@3
                 	.ENDM
                 
                 	.MACRO __CPWRN
                 	CPI  R@0,LOW(@2)
                 	LDI  R30,HIGH(@2)
                 	CPC  R@1,R30
                 	.ENDM
                 
                 	.MACRO __ADDB1MN
                 	SUBI R30,LOW(-@0-(@1))
                 	.ENDM
                 
                 	.MACRO __ADDB2MN
                 	SUBI R26,LOW(-@0-(@1))
                 	.ENDM
                 
                 	.MACRO __ADDW1MN
                 	SUBI R30,LOW(-@0-(@1))
                 	SBCI R31,HIGH(-@0-(@1))
                 	.ENDM
                 
                 	.MACRO __ADDW2MN
                 	SUBI R26,LOW(-@0-(@1))
                 	SBCI R27,HIGH(-@0-(@1))
                 	.ENDM
                 
                 	.MACRO __ADDW1FN
                 	SUBI R30,LOW(-2*@0-(@1))
                 	SBCI R31,HIGH(-2*@0-(@1))
                 	.ENDM
                 
                 	.MACRO __ADDD1FN
                 	SUBI R30,LOW(-2*@0-(@1))
                 	SBCI R31,HIGH(-2*@0-(@1))
                 	SBCI R22,BYTE3(-2*@0-(@1))
                 	.ENDM
                 
                 	.MACRO __ADDD1N
                 	SUBI R30,LOW(-@0)
                 	SBCI R31,HIGH(-@0)
                 	SBCI R22,BYTE3(-@0)
                 	SBCI R23,BYTE4(-@0)
                 	.ENDM
                 
                 	.MACRO __ADDD2N
                 	SUBI R26,LOW(-@0)
                 	SBCI R27,HIGH(-@0)
                 	SBCI R24,BYTE3(-@0)
                 	SBCI R25,BYTE4(-@0)
                 	.ENDM
                 
                 	.MACRO __SUBD1N
                 	SUBI R30,LOW(@0)
                 	SBCI R31,HIGH(@0)
                 	SBCI R22,BYTE3(@0)
                 	SBCI R23,BYTE4(@0)
                 	.ENDM
                 
                 	.MACRO __SUBD2N
                 	SUBI R26,LOW(@0)
                 	SBCI R27,HIGH(@0)
                 	SBCI R24,BYTE3(@0)
                 	SBCI R25,BYTE4(@0)
                 	.ENDM
                 
                 	.MACRO __ANDBMNN
                 	LDS  R30,@0+(@1)
                 	ANDI R30,LOW(@2)
                 	STS  @0+(@1),R30
                 	.ENDM
                 
                 	.MACRO __ANDWMNN
                 	LDS  R30,@0+(@1)
                 	ANDI R30,LOW(@2)
                 	STS  @0+(@1),R30
                 	LDS  R30,@0+(@1)+1
                 	ANDI R30,HIGH(@2)
                 	STS  @0+(@1)+1,R30
                 	.ENDM
                 
                 	.MACRO __ANDD1N
                 	ANDI R30,LOW(@0)
                 	ANDI R31,HIGH(@0)
                 	ANDI R22,BYTE3(@0)
                 	ANDI R23,BYTE4(@0)
                 	.ENDM
                 
                 	.MACRO __ANDD2N
                 	ANDI R26,LOW(@0)
                 	ANDI R27,HIGH(@0)
                 	ANDI R24,BYTE3(@0)
                 	ANDI R25,BYTE4(@0)
                 	.ENDM
                 
                 	.MACRO __ORBMNN
                 	LDS  R30,@0+(@1)
                 	ORI  R30,LOW(@2)
                 	STS  @0+(@1),R30
                 	.ENDM
                 
                 	.MACRO __ORWMNN
                 	LDS  R30,@0+(@1)
                 	ORI  R30,LOW(@2)
                 	STS  @0+(@1),R30
                 	LDS  R30,@0+(@1)+1
                 	ORI  R30,HIGH(@2)
                 	STS  @0+(@1)+1,R30
                 	.ENDM
                 
                 	.MACRO __ORD1N
                 	ORI  R30,LOW(@0)
                 	ORI  R31,HIGH(@0)
                 	ORI  R22,BYTE3(@0)
                 	ORI  R23,BYTE4(@0)
                 	.ENDM
                 
                 	.MACRO __ORD2N
                 	ORI  R26,LOW(@0)
                 	ORI  R27,HIGH(@0)
                 	ORI  R24,BYTE3(@0)
                 	ORI  R25,BYTE4(@0)
                 	.ENDM
                 
                 	.MACRO __DELAY_USB
                 	LDI  R24,LOW(@0)
                 __DELAY_USB_LOOP:
                 	DEC  R24
                 	BRNE __DELAY_USB_LOOP
                 	.ENDM
                 
                 	.MACRO __DELAY_USW
                 	LDI  R24,LOW(@0)
                 	LDI  R25,HIGH(@0)
                 __DELAY_USW_LOOP:
                 	SBIW R24,1
                 	BRNE __DELAY_USW_LOOP
                 	.ENDM
                 
                 	.MACRO __GETD1S
                 	LDD  R30,Y+@0
                 	LDD  R31,Y+@0+1
                 	LDD  R22,Y+@0+2
                 	LDD  R23,Y+@0+3
                 	.ENDM
                 
                 	.MACRO __GETD2S
                 	LDD  R26,Y+@0
                 	LDD  R27,Y+@0+1
                 	LDD  R24,Y+@0+2
                 	LDD  R25,Y+@0+3
                 	.ENDM
                 
                 	.MACRO __PUTD1S
                 	STD  Y+@0,R30
                 	STD  Y+@0+1,R31
                 	STD  Y+@0+2,R22
                 	STD  Y+@0+3,R23
                 	.ENDM
                 
                 	.MACRO __PUTD2S
                 	STD  Y+@0,R26
                 	STD  Y+@0+1,R27
                 	STD  Y+@0+2,R24
                 	STD  Y+@0+3,R25
                 	.ENDM
                 
                 	.MACRO __PUTDZ2
                 	STD  Z+@0,R26
                 	STD  Z+@0+1,R27
                 	STD  Z+@0+2,R24
                 	STD  Z+@0+3,R25
                 	.ENDM
                 
                 	.MACRO __CLRD1S
                 	STD  Y+@0,R30
                 	STD  Y+@0+1,R30
                 	STD  Y+@0+2,R30
                 	STD  Y+@0+3,R30
                 	.ENDM
                 
                 	.MACRO __POINTB1MN
                 	LDI  R30,LOW(@0+(@1))
                 	.ENDM
                 
                 	.MACRO __POINTW1MN
                 	LDI  R30,LOW(@0+(@1))
                 	LDI  R31,HIGH(@0+(@1))
                 	.ENDM
                 
                 	.MACRO __POINTD1M
                 	LDI  R30,LOW(@0)
                 	LDI  R31,HIGH(@0)
                 	LDI  R22,BYTE3(@0)
                 	LDI  R23,BYTE4(@0)
                 	.ENDM
                 
                 	.MACRO __POINTW1FN
                 	LDI  R30,LOW(2*@0+(@1))
                 	LDI  R31,HIGH(2*@0+(@1))
                 	.ENDM
                 
                 	.MACRO __POINTD1FN
                 	LDI  R30,LOW(2*@0+(@1))
                 	LDI  R31,HIGH(2*@0+(@1))
                 	LDI  R22,BYTE3(2*@0+(@1))
                 	LDI  R23,BYTE4(2*@0+(@1))
                 	.ENDM
                 
                 	.MACRO __POINTB2MN
                 	LDI  R26,LOW(@0+(@1))
                 	.ENDM
                 
                 	.MACRO __POINTW2MN
                 	LDI  R26,LOW(@0+(@1))
                 	LDI  R27,HIGH(@0+(@1))
                 	.ENDM
                 
                 	.MACRO __POINTW2FN
                 	LDI  R26,LOW(2*@0+(@1))
                 	LDI  R27,HIGH(2*@0+(@1))
                 	.ENDM
                 
                 	.MACRO __POINTD2FN
                 	LDI  R26,LOW(2*@0+(@1))
                 	LDI  R27,HIGH(2*@0+(@1))
                 	LDI  R24,BYTE3(2*@0+(@1))
                 	LDI  R25,BYTE4(2*@0+(@1))
                 	.ENDM
                 
                 	.MACRO __POINTBRM
                 	LDI  R@0,LOW(@1)
                 	.ENDM
                 
                 	.MACRO __POINTWRM
                 	LDI  R@0,LOW(@2)
                 	LDI  R@1,HIGH(@2)
                 	.ENDM
                 
                 	.MACRO __POINTBRMN
                 	LDI  R@0,LOW(@1+(@2))
                 	.ENDM
                 
                 	.MACRO __POINTWRMN
                 	LDI  R@0,LOW(@2+(@3))
                 	LDI  R@1,HIGH(@2+(@3))
                 	.ENDM
                 
                 	.MACRO __POINTWRFN
                 	LDI  R@0,LOW(@2*2+(@3))
                 	LDI  R@1,HIGH(@2*2+(@3))
                 	.ENDM
                 
                 	.MACRO __GETD1N
                 	LDI  R30,LOW(@0)
                 	LDI  R31,HIGH(@0)
                 	LDI  R22,BYTE3(@0)
                 	LDI  R23,BYTE4(@0)
                 	.ENDM
                 
                 	.MACRO __GETD2N
                 	LDI  R26,LOW(@0)
                 	LDI  R27,HIGH(@0)
                 	LDI  R24,BYTE3(@0)
                 	LDI  R25,BYTE4(@0)
                 	.ENDM
                 
                 	.MACRO __GETB1MN
                 	LDS  R30,@0+(@1)
                 	.ENDM
                 
                 	.MACRO __GETB1HMN
                 	LDS  R31,@0+(@1)
                 	.ENDM
                 
                 	.MACRO __GETW1MN
                 	LDS  R30,@0+(@1)
                 	LDS  R31,@0+(@1)+1
                 	.ENDM
                 
                 	.MACRO __GETD1MN
                 	LDS  R30,@0+(@1)
                 	LDS  R31,@0+(@1)+1
                 	LDS  R22,@0+(@1)+2
                 	LDS  R23,@0+(@1)+3
                 	.ENDM
                 
                 	.MACRO __GETBRMN
                 	LDS  R@0,@1+(@2)
                 	.ENDM
                 
                 	.MACRO __GETWRMN
                 	LDS  R@0,@2+(@3)
                 	LDS  R@1,@2+(@3)+1
                 	.ENDM
                 
                 	.MACRO __GETWRZ
                 	LDD  R@0,Z+@2
                 	LDD  R@1,Z+@2+1
                 	.ENDM
                 
                 	.MACRO __GETD2Z
                 	LDD  R26,Z+@0
                 	LDD  R27,Z+@0+1
                 	LDD  R24,Z+@0+2
                 	LDD  R25,Z+@0+3
                 	.ENDM
                 
                 	.MACRO __GETB2MN
                 	LDS  R26,@0+(@1)
                 	.ENDM
                 
                 	.MACRO __GETW2MN
                 	LDS  R26,@0+(@1)
                 	LDS  R27,@0+(@1)+1
                 	.ENDM
                 
                 	.MACRO __GETD2MN
                 	LDS  R26,@0+(@1)
                 	LDS  R27,@0+(@1)+1
                 	LDS  R24,@0+(@1)+2
                 	LDS  R25,@0+(@1)+3
                 	.ENDM
                 
                 	.MACRO __PUTB1MN
                 	STS  @0+(@1),R30
                 	.ENDM
                 
                 	.MACRO __PUTW1MN
                 	STS  @0+(@1),R30
                 	STS  @0+(@1)+1,R31
                 	.ENDM
                 
                 	.MACRO __PUTD1MN
                 	STS  @0+(@1),R30
                 	STS  @0+(@1)+1,R31
                 	STS  @0+(@1)+2,R22
                 	STS  @0+(@1)+3,R23
                 	.ENDM
                 
                 	.MACRO __PUTB1EN
                 	LDI  R26,LOW(@0+(@1))
                 	LDI  R27,HIGH(@0+(@1))
                 	CALL __EEPROMWRB
                 	.ENDM
                 
                 	.MACRO __PUTW1EN
                 	LDI  R26,LOW(@0+(@1))
                 	LDI  R27,HIGH(@0+(@1))
                 	CALL __EEPROMWRW
                 	.ENDM
                 
                 	.MACRO __PUTD1EN
                 	LDI  R26,LOW(@0+(@1))
                 	LDI  R27,HIGH(@0+(@1))
                 	CALL __EEPROMWRD
                 	.ENDM
                 
                 	.MACRO __PUTBR0MN
                 	STS  @0+(@1),R0
                 	.ENDM
                 
                 	.MACRO __PUTBMRN
                 	STS  @0+(@1),R@2
                 	.ENDM
                 
                 	.MACRO __PUTWMRN
                 	STS  @0+(@1),R@2
                 	STS  @0+(@1)+1,R@3
                 	.ENDM
                 
                 	.MACRO __PUTBZR
                 	STD  Z+@1,R@0
                 	.ENDM
                 
                 	.MACRO __PUTWZR
                 	STD  Z+@2,R@0
                 	STD  Z+@2+1,R@1
                 	.ENDM
                 
                 	.MACRO __GETW1R
                 	MOV  R30,R@0
                 	MOV  R31,R@1
                 	.ENDM
                 
                 	.MACRO __GETW2R
                 	MOV  R26,R@0
                 	MOV  R27,R@1
                 	.ENDM
                 
                 	.MACRO __GETWRN
                 	LDI  R@0,LOW(@2)
                 	LDI  R@1,HIGH(@2)
                 	.ENDM
                 
                 	.MACRO __PUTW1R
                 	MOV  R@0,R30
                 	MOV  R@1,R31
                 	.ENDM
                 
                 	.MACRO __PUTW2R
                 	MOV  R@0,R26
                 	MOV  R@1,R27
                 	.ENDM
                 
                 	.MACRO __ADDWRN
                 	SUBI R@0,LOW(-@2)
                 	SBCI R@1,HIGH(-@2)
                 	.ENDM
                 
                 	.MACRO __ADDWRR
                 	ADD  R@0,R@2
                 	ADC  R@1,R@3
                 	.ENDM
                 
                 	.MACRO __SUBWRN
                 	SUBI R@0,LOW(@2)
                 	SBCI R@1,HIGH(@2)
                 	.ENDM
                 
                 	.MACRO __SUBWRR
                 	SUB  R@0,R@2
                 	SBC  R@1,R@3
                 	.ENDM
                 
                 	.MACRO __ANDWRN
                 	ANDI R@0,LOW(@2)
                 	ANDI R@1,HIGH(@2)
                 	.ENDM
                 
                 	.MACRO __ANDWRR
                 	AND  R@0,R@2
                 	AND  R@1,R@3
                 	.ENDM
                 
                 	.MACRO __ORWRN
                 	ORI  R@0,LOW(@2)
                 	ORI  R@1,HIGH(@2)
                 	.ENDM
                 
                 	.MACRO __ORWRR
                 	OR   R@0,R@2
                 	OR   R@1,R@3
                 	.ENDM
                 
                 	.MACRO __EORWRR
                 	EOR  R@0,R@2
                 	EOR  R@1,R@3
                 	.ENDM
                 
                 	.MACRO __GETWRS
                 	LDD  R@0,Y+@2
                 	LDD  R@1,Y+@2+1
                 	.ENDM
                 
                 	.MACRO __PUTBSR
                 	STD  Y+@1,R@0
                 	.ENDM
                 
                 	.MACRO __PUTWSR
                 	STD  Y+@2,R@0
                 	STD  Y+@2+1,R@1
                 	.ENDM
                 
                 	.MACRO __MOVEWRR
                 	MOV  R@0,R@2
                 	MOV  R@1,R@3
                 	.ENDM
                 
                 	.MACRO __INWR
                 	IN   R@0,@2
                 	IN   R@1,@2+1
                 	.ENDM
                 
                 	.MACRO __OUTWR
                 	OUT  @2+1,R@1
                 	OUT  @2,R@0
                 	.ENDM
                 
                 	.MACRO __CALL1MN
                 	LDS  R30,@0+(@1)
                 	LDS  R31,@0+(@1)+1
                 	ICALL
                 	.ENDM
                 
                 	.MACRO __CALL1FN
                 	LDI  R30,LOW(2*@0+(@1))
                 	LDI  R31,HIGH(2*@0+(@1))
                 	CALL __GETW1PF
                 	ICALL
                 	.ENDM
                 
                 	.MACRO __CALL2EN
                 	PUSH R26
                 	PUSH R27
                 	LDI  R26,LOW(@0+(@1))
                 	LDI  R27,HIGH(@0+(@1))
                 	CALL __EEPROMRDW
                 	POP  R27
                 	POP  R26
                 	ICALL
                 	.ENDM
                 
                 	.MACRO __CALL2EX
                 	SUBI R26,LOW(-@0)
                 	SBCI R27,HIGH(-@0)
                 	CALL __EEPROMRDD
                 	ICALL
                 	.ENDM
                 
                 	.MACRO __GETW1STACK
                 	IN   R30,SPL
                 	IN   R31,SPH
                 	ADIW R30,@0+1
                 	LD   R0,Z+
                 	LD   R31,Z
                 	MOV  R30,R0
                 	.ENDM
                 
                 	.MACRO __GETD1STACK
                 	IN   R30,SPL
                 	IN   R31,SPH
                 	ADIW R30,@0+1
                 	LD   R0,Z+
                 	LD   R1,Z+
                 	LD   R22,Z
                 	MOVW R30,R0
                 	.ENDM
                 
                 	.MACRO __NBST
                 	BST  R@0,@1
                 	IN   R30,SREG
                 	LDI  R31,0x40
                 	EOR  R30,R31
                 	OUT  SREG,R30
                 	.ENDM
                 
                 
                 	.MACRO __PUTB1SN
                 	LDD  R26,Y+@0
                 	LDD  R27,Y+@0+1
                 	SUBI R26,LOW(-@1)
                 	SBCI R27,HIGH(-@1)
                 	ST   X,R30
                 	.ENDM
                 
                 	.MACRO __PUTW1SN
                 	LDD  R26,Y+@0
                 	LDD  R27,Y+@0+1
                 	SUBI R26,LOW(-@1)
                 	SBCI R27,HIGH(-@1)
                 	ST   X+,R30
                 	ST   X,R31
                 	.ENDM
                 
                 	.MACRO __PUTD1SN
                 	LDD  R26,Y+@0
                 	LDD  R27,Y+@0+1
                 	SUBI R26,LOW(-@1)
                 	SBCI R27,HIGH(-@1)
                 	CALL __PUTDP1
                 	.ENDM
                 
                 	.MACRO __PUTB1SNS
                 	LDD  R26,Y+@0
                 	LDD  R27,Y+@0+1
                 	ADIW R26,@1
                 	ST   X,R30
                 	.ENDM
                 
                 	.MACRO __PUTW1SNS
                 	LDD  R26,Y+@0
                 	LDD  R27,Y+@0+1
                 	ADIW R26,@1
                 	ST   X+,R30
                 	ST   X,R31
                 	.ENDM
                 
                 	.MACRO __PUTD1SNS
                 	LDD  R26,Y+@0
                 	LDD  R27,Y+@0+1
                 	ADIW R26,@1
                 	CALL __PUTDP1
                 	.ENDM
                 
                 	.MACRO __PUTB1PMN
                 	LDS  R26,@0
                 	LDS  R27,@0+1
                 	SUBI R26,LOW(-@1)
                 	SBCI R27,HIGH(-@1)
                 	ST   X,R30
                 	.ENDM
                 
                 	.MACRO __PUTW1PMN
                 	LDS  R26,@0
                 	LDS  R27,@0+1
                 	SUBI R26,LOW(-@1)
                 	SBCI R27,HIGH(-@1)
                 	ST   X+,R30
                 	ST   X,R31
                 	.ENDM
                 
                 	.MACRO __PUTD1PMN
                 	LDS  R26,@0
                 	LDS  R27,@0+1
                 	SUBI R26,LOW(-@1)
                 	SBCI R27,HIGH(-@1)
                 	CALL __PUTDP1
                 	.ENDM
                 
                 	.MACRO __PUTB1PMNS
                 	LDS  R26,@0
                 	LDS  R27,@0+1
                 	ADIW R26,@1
                 	ST   X,R30
                 	.ENDM
                 
                 	.MACRO __PUTW1PMNS
                 	LDS  R26,@0
                 	LDS  R27,@0+1
                 	ADIW R26,@1
                 	ST   X+,R30
                 	ST   X,R31
                 	.ENDM
                 
                 	.MACRO __PUTD1PMNS
                 	LDS  R26,@0
                 	LDS  R27,@0+1
                 	ADIW R26,@1
                 	CALL __PUTDP1
                 	.ENDM
                 
                 	.MACRO __PUTB1RN
                 	MOVW R26,R@0
                 	SUBI R26,LOW(-@1)
                 	SBCI R27,HIGH(-@1)
                 	ST   X,R30
                 	.ENDM
                 
                 	.MACRO __PUTW1RN
                 	MOVW R26,R@0
                 	SUBI R26,LOW(-@1)
                 	SBCI R27,HIGH(-@1)
                 	ST   X+,R30
                 	ST   X,R31
                 	.ENDM
                 
                 	.MACRO __PUTD1RN
                 	MOVW R26,R@0
                 	SUBI R26,LOW(-@1)
                 	SBCI R27,HIGH(-@1)
                 	CALL __PUTDP1
                 	.ENDM
                 
                 	.MACRO __PUTB1RNS
                 	MOVW R26,R@0
                 	ADIW R26,@1
                 	ST   X,R30
                 	.ENDM
                 
                 	.MACRO __PUTW1RNS
                 	MOVW R26,R@0
                 	ADIW R26,@1
                 	ST   X+,R30
                 	ST   X,R31
                 	.ENDM
                 
                 	.MACRO __PUTD1RNS
                 	MOVW R26,R@0
                 	ADIW R26,@1
                 	CALL __PUTDP1
                 	.ENDM
                 
                 	.MACRO __PUTB1RON
                 	MOV  R26,R@0
                 	MOV  R27,R@1
                 	SUBI R26,LOW(-@2)
                 	SBCI R27,HIGH(-@2)
                 	ST   X,R30
                 	.ENDM
                 
                 	.MACRO __PUTW1RON
                 	MOV  R26,R@0
                 	MOV  R27,R@1
                 	SUBI R26,LOW(-@2)
                 	SBCI R27,HIGH(-@2)
                 	ST   X+,R30
                 	ST   X,R31
                 	.ENDM
                 
                 	.MACRO __PUTD1RON
                 	MOV  R26,R@0
                 	MOV  R27,R@1
                 	SUBI R26,LOW(-@2)
                 	SBCI R27,HIGH(-@2)
                 	CALL __PUTDP1
                 	.ENDM
                 
                 	.MACRO __PUTB1RONS
                 	MOV  R26,R@0
                 	MOV  R27,R@1
                 	ADIW R26,@2
                 	ST   X,R30
                 	.ENDM
                 
                 	.MACRO __PUTW1RONS
                 	MOV  R26,R@0
                 	MOV  R27,R@1
                 	ADIW R26,@2
                 	ST   X+,R30
                 	ST   X,R31
                 	.ENDM
                 
                 	.MACRO __PUTD1RONS
                 	MOV  R26,R@0
                 	MOV  R27,R@1
                 	ADIW R26,@2
                 	CALL __PUTDP1
                 	.ENDM
                 
                 
                 	.MACRO __GETB1SX
                 	MOVW R30,R28
                 	SUBI R30,LOW(-@0)
                 	SBCI R31,HIGH(-@0)
                 	LD   R30,Z
                 	.ENDM
                 
                 	.MACRO __GETB1HSX
                 	MOVW R30,R28
                 	SUBI R30,LOW(-@0)
                 	SBCI R31,HIGH(-@0)
                 	LD   R31,Z
                 	.ENDM
                 
                 	.MACRO __GETW1SX
                 	MOVW R30,R28
                 	SUBI R30,LOW(-@0)
                 	SBCI R31,HIGH(-@0)
                 	LD   R0,Z+
                 	LD   R31,Z
                 	MOV  R30,R0
                 	.ENDM
                 
                 	.MACRO __GETD1SX
                 	MOVW R30,R28
                 	SUBI R30,LOW(-@0)
                 	SBCI R31,HIGH(-@0)
                 	LD   R0,Z+
                 	LD   R1,Z+
                 	LD   R22,Z+
                 	LD   R23,Z
                 	MOVW R30,R0
                 	.ENDM
                 
                 	.MACRO __GETB2SX
                 	MOVW R26,R28
                 	SUBI R26,LOW(-@0)
                 	SBCI R27,HIGH(-@0)
                 	LD   R26,X
                 	.ENDM
                 
                 	.MACRO __GETW2SX
                 	MOVW R26,R28
                 	SUBI R26,LOW(-@0)
                 	SBCI R27,HIGH(-@0)
                 	LD   R0,X+
                 	LD   R27,X
                 	MOV  R26,R0
                 	.ENDM
                 
                 	.MACRO __GETD2SX
                 	MOVW R26,R28
                 	SUBI R26,LOW(-@0)
                 	SBCI R27,HIGH(-@0)
                 	LD   R0,X+
                 	LD   R1,X+
                 	LD   R24,X+
                 	LD   R25,X
                 	MOVW R26,R0
                 	.ENDM
                 
                 	.MACRO __GETBRSX
                 	MOVW R30,R28
                 	SUBI R30,LOW(-@1)
                 	SBCI R31,HIGH(-@1)
                 	LD   R@0,Z
                 	.ENDM
                 
                 	.MACRO __GETWRSX
                 	MOVW R30,R28
                 	SUBI R30,LOW(-@2)
                 	SBCI R31,HIGH(-@2)
                 	LD   R@0,Z+
                 	LD   R@1,Z
                 	.ENDM
                 
                 	.MACRO __GETBRSX2
                 	MOVW R26,R28
                 	SUBI R26,LOW(-@1)
                 	SBCI R27,HIGH(-@1)
                 	LD   R@0,X
                 	.ENDM
                 
                 	.MACRO __GETWRSX2
                 	MOVW R26,R28
                 	SUBI R26,LOW(-@2)
                 	SBCI R27,HIGH(-@2)
                 	LD   R@0,X+
                 	LD   R@1,X
                 	.ENDM
                 
                 	.MACRO __LSLW8SX
                 	MOVW R30,R28
                 	SUBI R30,LOW(-@0)
                 	SBCI R31,HIGH(-@0)
                 	LD   R31,Z
                 	CLR  R30
                 	.ENDM
                 
                 	.MACRO __PUTB1SX
                 	MOVW R26,R28
                 	SUBI R26,LOW(-@0)
                 	SBCI R27,HIGH(-@0)
                 	ST   X,R30
                 	.ENDM
                 
                 	.MACRO __PUTW1SX
                 	MOVW R26,R28
                 	SUBI R26,LOW(-@0)
                 	SBCI R27,HIGH(-@0)
                 	ST   X+,R30
                 	ST   X,R31
                 	.ENDM
                 
                 	.MACRO __PUTD1SX
                 	MOVW R26,R28
                 	SUBI R26,LOW(-@0)
                 	SBCI R27,HIGH(-@0)
                 	ST   X+,R30
                 	ST   X+,R31
                 	ST   X+,R22
                 	ST   X,R23
                 	.ENDM
                 
                 	.MACRO __CLRW1SX
                 	MOVW R26,R28
                 	SUBI R26,LOW(-@0)
                 	SBCI R27,HIGH(-@0)
                 	ST   X+,R30
                 	ST   X,R30
                 	.ENDM
                 
                 	.MACRO __CLRD1SX
                 	MOVW R26,R28
                 	SUBI R26,LOW(-@0)
                 	SBCI R27,HIGH(-@0)
                 	ST   X+,R30
                 	ST   X+,R30
                 	ST   X+,R30
                 	ST   X,R30
                 	.ENDM
                 
                 	.MACRO __PUTB2SX
                 	MOVW R30,R28
                 	SUBI R30,LOW(-@0)
                 	SBCI R31,HIGH(-@0)
                 	ST   Z,R26
                 	.ENDM
                 
                 	.MACRO __PUTW2SX
                 	MOVW R30,R28
                 	SUBI R30,LOW(-@0)
                 	SBCI R31,HIGH(-@0)
                 	ST   Z+,R26
                 	ST   Z,R27
                 	.ENDM
                 
                 	.MACRO __PUTD2SX
                 	MOVW R30,R28
                 	SUBI R30,LOW(-@0)
                 	SBCI R31,HIGH(-@0)
                 	ST   Z+,R26
                 	ST   Z+,R27
                 	ST   Z+,R24
                 	ST   Z,R25
                 	.ENDM
                 
                 	.MACRO __PUTBSRX
                 	MOVW R30,R28
                 	SUBI R30,LOW(-@1)
                 	SBCI R31,HIGH(-@1)
                 	ST   Z,R@0
                 	.ENDM
                 
                 	.MACRO __PUTWSRX
                 	MOVW R30,R28
                 	SUBI R30,LOW(-@2)
                 	SBCI R31,HIGH(-@2)
                 	ST   Z+,R@0
                 	ST   Z,R@1
                 	.ENDM
                 
                 	.MACRO __PUTB1SNX
                 	MOVW R26,R28
                 	SUBI R26,LOW(-@0)
                 	SBCI R27,HIGH(-@0)
                 	LD   R0,X+
                 	LD   R27,X
                 	MOV  R26,R0
                 	SUBI R26,LOW(-@1)
                 	SBCI R27,HIGH(-@1)
                 	ST   X,R30
                 	.ENDM
                 
                 	.MACRO __PUTW1SNX
                 	MOVW R26,R28
                 	SUBI R26,LOW(-@0)
                 	SBCI R27,HIGH(-@0)
                 	LD   R0,X+
                 	LD   R27,X
                 	MOV  R26,R0
                 	SUBI R26,LOW(-@1)
                 	SBCI R27,HIGH(-@1)
                 	ST   X+,R30
                 	ST   X,R31
                 	.ENDM
                 
                 	.MACRO __PUTD1SNX
                 	MOVW R26,R28
                 	SUBI R26,LOW(-@0)
                 	SBCI R27,HIGH(-@0)
                 	LD   R0,X+
                 	LD   R27,X
                 	MOV  R26,R0
                 	SUBI R26,LOW(-@1)
                 	SBCI R27,HIGH(-@1)
                 	ST   X+,R30
                 	ST   X+,R31
                 	ST   X+,R22
                 	ST   X,R23
                 	.ENDM
                 
                 	.MACRO __MULBRR
                 	MULS R@0,R@1
                 	MOVW R30,R0
                 	.ENDM
                 
                 	.MACRO __MULBRRU
                 	MUL  R@0,R@1
                 	MOVW R30,R0
                 	.ENDM
                 
                 	.MACRO __MULBRR0
                 	MULS R@0,R@1
                 	.ENDM
                 
                 	.MACRO __MULBRRU0
                 	MUL  R@0,R@1
                 	.ENDM
                 
                 	.MACRO __MULBNWRU
                 	LDI  R26,@2
                 	MUL  R26,R@0
                 	MOVW R30,R0
                 	MUL  R26,R@1
                 	ADD  R31,R0
                 	.ENDM
                 
                 ;NAME DEFINITIONS FOR GLOBAL VARIABLES ALLOCATED TO REGISTERS
                 	.DEF _LCD_X=R4
                 	.DEF _LCD_Y=R3
                 	.DEF _PB4_B=R6
                 	.DEF _PB5_B=R5
                 	.DEF _ENC_counter=R8
                 	.DEF _T3_ready=R7
                 	.DEF _Ledon=R10
                 	.DEF _WiFi_Current_Connection=R9
                 	.DEF _WiFi_what_to_read=R12
                 	.DEF _WiFi_answer_ID=R11
                 	.DEF _WiFi_symbol_counter=R14
                 	.DEF _WiFi_Busy=R13
                 
                 ;GPIOR0 INITIALIZATION VALUE
                 	.EQU __GPIOR0_INIT=0x00
                 
                 	.CSEG
                 	.ORG 0x00
                 
                 ;START OF CODE MARKER
                 __START_OF_CODE:
                 
                 ;INTERRUPT VECTORS
000000 940c 1836 	JMP  __RESET
000002 940c 0000 	JMP  0x00
000004 940c 0000 	JMP  0x00
000006 940c 0000 	JMP  0x00
000008 940c 0000 	JMP  0x00
00000a 940c 0000 	JMP  0x00
00000c 940c 0000 	JMP  0x00
00000e 940c 0000 	JMP  0x00
000010 940c 0000 	JMP  0x00
000012 940c 21c9 	JMP  _pin_change_isr0
000014 940c 21e9 	JMP  _pin_change_isr1
000016 940c 0000 	JMP  0x00
000018 940c 0000 	JMP  0x00
00001a 940c 0000 	JMP  0x00
00001c 940c 0000 	JMP  0x00
00001e 940c 0000 	JMP  0x00
000020 940c 0000 	JMP  0x00
000022 940c 0000 	JMP  0x00
000024 940c 0000 	JMP  0x00
000026 940c 0000 	JMP  0x00
000028 940c 1f97 	JMP  _timer1_ovf_isr
00002a 940c 0000 	JMP  0x00
00002c 940c 0000 	JMP  0x00
00002e 940c 0000 	JMP  0x00
000030 940c 0000 	JMP  0x00
000032 940c 1f8e 	JMP  _usart0_rx_isr
000034 940c 0000 	JMP  0x00
000036 940c 0000 	JMP  0x00
000038 940c 0000 	JMP  0x00
00003a 940c 0000 	JMP  0x00
00003c 940c 0000 	JMP  0x00
00003e 940c 0000 	JMP  0x00
000040 940c 0000 	JMP  0x00
000042 940c 0000 	JMP  0x00
000044 940c 0000 	JMP  0x00
000046 940c 227f 	JMP  _timer3_ovf_isr
000048 940c 1b3d 	JMP  _usart1_rx_isr
00004a 940c 0000 	JMP  0x00
00004c 940c 0000 	JMP  0x00
00004e 940c 2340 	JMP  _twi_int_handler
000050 940c 0000 	JMP  0x00
000052 940c 0000 	JMP  0x00
000054 940c 0000 	JMP  0x00
000056 940c 0000 	JMP  0x00
000058 940c 0000 	JMP  0x00
00005a 940c 0000 	JMP  0x00
00005c 940c 0000 	JMP  0x00
00005e 940c 0000 	JMP  0x00
000060 940c 0000 	JMP  0x00
000062 940c 0000 	JMP  0x00
000064 940c 0000 	JMP  0x00
000066 940c 0000 	JMP  0x00
000068 940c 0000 	JMP  0x00
00006a 940c 0000 	JMP  0x00
00006c 940c 0000 	JMP  0x00
00006e 940c 0000 	JMP  0x00
000070 940c 0000 	JMP  0x00
                 
                 _arrow:
000072 ffff
000073 7e7e
000074 3c3c
000075 1818      	.DB  0xFF,0xFF,0x7E,0x7E,0x3C,0x3C,0x18,0x18
000076 0010      	.DB  0x10,0x0
                 _LCD_Buffer:
000077 0000
000078 0000
000079 0000
00007a 5f00      	.DB  0x0,0x0,0x0,0x0,0x0,0x0,0x0,0x5F
00007b 0000
00007c 0700
00007d 0700
00007e 1400      	.DB  0x0,0x0,0x0,0x7,0x0,0x7,0x0,0x14
00007f 147f
000080 147f
000081 2a24
000082 2a7f      	.DB  0x7F,0x14,0x7F,0x14,0x24,0x2A,0x7F,0x2A
000083 2312
000084 0813
000085 6264
000086 4936      	.DB  0x12,0x23,0x13,0x8,0x64,0x62,0x36,0x49
000087 2255
000088 0050
000089 0305
00008a 0000      	.DB  0x55,0x22,0x50,0x0,0x5,0x3,0x0,0x0
00008b 1c00
00008c 4122
00008d 0000
00008e 2241      	.DB  0x0,0x1C,0x22,0x41,0x0,0x0,0x41,0x22
00008f 001c
000090 0814
000091 083e
000092 0814      	.DB  0x1C,0x0,0x14,0x8,0x3E,0x8,0x14,0x8
000093 3e08
000094 0808
000095 5000
000096 0030      	.DB  0x8,0x3E,0x8,0x8,0x0,0x50,0x30,0x0
000097 0800
000098 0808
000099 0808
00009a 6000      	.DB  0x0,0x8,0x8,0x8,0x8,0x8,0x0,0x60
00009b 0060
00009c 2000
00009d 0810
00009e 0204      	.DB  0x60,0x0,0x0,0x20,0x10,0x8,0x4,0x2
00009f 0000
0000a0 0000
0000a1 0000
0000a2 5f00      	.DB  0x0,0x0,0x0,0x0,0x0,0x0,0x0,0x5F
0000a3 0000
0000a4 0700
0000a5 0700
0000a6 1400      	.DB  0x0,0x0,0x0,0x7,0x0,0x7,0x0,0x14
0000a7 147f
0000a8 147f
0000a9 2a24
0000aa 2a7f      	.DB  0x7F,0x14,0x7F,0x14,0x24,0x2A,0x7F,0x2A
0000ab 2312
0000ac 0813
0000ad 6264
0000ae 4936      	.DB  0x12,0x23,0x13,0x8,0x64,0x62,0x36,0x49
0000af 2255
0000b0 0050
0000b1 0305
0000b2 0000      	.DB  0x55,0x22,0x50,0x0,0x5,0x3,0x0,0x0
0000b3 1c00
0000b4 4122
0000b5 0000
0000b6 2241      	.DB  0x0,0x1C,0x22,0x41,0x0,0x0,0x41,0x22
0000b7 001c
0000b8 0814
0000b9 083e
0000ba 0814      	.DB  0x1C,0x0,0x14,0x8,0x3E,0x8,0x14,0x8
0000bb 3e08
0000bc 0808
0000bd 5000
0000be 0030      	.DB  0x8,0x3E,0x8,0x8,0x0,0x50,0x30,0x0
0000bf 0800
0000c0 0808
0000c1 0808
0000c2 6000      	.DB  0x0,0x8,0x8,0x8,0x8,0x8,0x0,0x60
0000c3 0060
0000c4 2000
0000c5 0810
0000c6 0204      	.DB  0x60,0x0,0x0,0x20,0x10,0x8,0x4,0x2
0000c7 0000
0000c8 0000
0000c9 0000
0000ca 5f00      	.DB  0x0,0x0,0x0,0x0,0x0,0x0,0x0,0x5F
0000cb 0000
0000cc 0700
0000cd 0700
0000ce 1400      	.DB  0x0,0x0,0x0,0x7,0x0,0x7,0x0,0x14
0000cf 147f
0000d0 147f
0000d1 2a24
0000d2 2a7f      	.DB  0x7F,0x14,0x7F,0x14,0x24,0x2A,0x7F,0x2A
0000d3 2312
0000d4 0813
0000d5 6264
0000d6 4936      	.DB  0x12,0x23,0x13,0x8,0x64,0x62,0x36,0x49
0000d7 2255
0000d8 0050
0000d9 0305
0000da 0000      	.DB  0x55,0x22,0x50,0x0,0x5,0x3,0x0,0x0
0000db 1c00
0000dc 4122
0000dd 0000
0000de 2241      	.DB  0x0,0x1C,0x22,0x41,0x0,0x0,0x41,0x22
0000df 001c
0000e0 0814
0000e1 083e
0000e2 0814      	.DB  0x1C,0x0,0x14,0x8,0x3E,0x8,0x14,0x8
0000e3 3e08
0000e4 0808
0000e5 5000
0000e6 0030      	.DB  0x8,0x3E,0x8,0x8,0x0,0x50,0x30,0x0
0000e7 0800
0000e8 0808
0000e9 0808
0000ea 6000      	.DB  0x0,0x8,0x8,0x8,0x8,0x8,0x0,0x60
0000eb 0060
0000ec 2000
0000ed 0810
0000ee 0204      	.DB  0x60,0x0,0x0,0x20,0x10,0x8,0x4,0x2
0000ef 513e
0000f0 4549
0000f1 003e
0000f2 7f42      	.DB  0x3E,0x51,0x49,0x45,0x3E,0x0,0x42,0x7F
0000f3 0040
0000f4 6142
0000f5 4951
0000f6 2146      	.DB  0x40,0x0,0x42,0x61,0x51,0x49,0x46,0x21
0000f7 4541
0000f8 314b
0000f9 1418
0000fa 7f12      	.DB  0x41,0x45,0x4B,0x31,0x18,0x14,0x12,0x7F
0000fb 2710
0000fc 4545
0000fd 3945
0000fe 4a3c      	.DB  0x10,0x27,0x45,0x45,0x45,0x39,0x3C,0x4A
0000ff 4949
000100 0130
000101 0971
000102 0305      	.DB  0x49,0x49,0x30,0x1,0x71,0x9,0x5,0x3
000103 4936
000104 4949
000105 0636
000106 4949      	.DB  0x36,0x49,0x49,0x49,0x36,0x6,0x49,0x49
000107 1e29
000108 3600
000109 0036
00010a 0000      	.DB  0x29,0x1E,0x0,0x36,0x36,0x0,0x0,0x0
00010b 3656
00010c 0000
00010d 1408
00010e 4122      	.DB  0x56,0x36,0x0,0x0,0x8,0x14,0x22,0x41
00010f 1400
000110 1414
000111 1414
000112 4100      	.DB  0x0,0x14,0x14,0x14,0x14,0x14,0x0,0x41
000113 1422
000114 0208
000115 5101
000116 0609      	.DB  0x22,0x14,0x8,0x2,0x1,0x51,0x9,0x6
000117 4932
000118 4179
000119 7e3e
00011a 1111      	.DB  0x32,0x49,0x79,0x41,0x3E,0x7E,0x11,0x11
00011b 7e11
00011c 497f
00011d 4949
00011e 3e36      	.DB  0x11,0x7E,0x7F,0x49,0x49,0x49,0x36,0x3E
00011f 4141
000120 2241
000121 417f
000122 2241      	.DB  0x41,0x41,0x41,0x22,0x7F,0x41,0x41,0x22
000123 7f1c
000124 4949
000125 4149
000126 097f      	.DB  0x1C,0x7F,0x49,0x49,0x49,0x41,0x7F,0x9
000127 0909
000128 3e01
000129 4941
00012a 7a49      	.DB  0x9,0x9,0x1,0x3E,0x41,0x49,0x49,0x7A
00012b 087f
00012c 0808
00012d 007f
00012e 7f41      	.DB  0x7F,0x8,0x8,0x8,0x7F,0x0,0x41,0x7F
00012f 0041
000130 4020
000131 3f41
000132 7f01      	.DB  0x41,0x0,0x20,0x40,0x41,0x3F,0x1,0x7F
000133 1408
000134 4122
000135 407f
000136 4040      	.DB  0x8,0x14,0x22,0x41,0x7F,0x40,0x40,0x40
000137 7f40
000138 0c02
000139 7f02
00013a 047f      	.DB  0x40,0x7F,0x2,0xC,0x2,0x7F,0x7F,0x4
00013b 1008
00013c 3e7f
00013d 4141
00013e 3e41      	.DB  0x8,0x10,0x7F,0x3E,0x41,0x41,0x41,0x3E
00013f 097f
000140 0909
000141 3e06
000142 5141      	.DB  0x7F,0x9,0x9,0x9,0x6,0x3E,0x41,0x51
000143 5e21
000144 097f
000145 2919
000146 4646      	.DB  0x21,0x5E,0x7F,0x9,0x19,0x29,0x46,0x46
000147 4949
000148 3149
000149 0101
00014a 017f      	.DB  0x49,0x49,0x49,0x31,0x1,0x1,0x7F,0x1
00014b 3f01
00014c 4040
00014d 3f40
00014e 201f      	.DB  0x1,0x3F,0x40,0x40,0x40,0x3F,0x1F,0x20
00014f 2040
000150 3f1f
000151 3840
000152 3f40      	.DB  0x40,0x20,0x1F,0x3F,0x40,0x38,0x40,0x3F
000153 1463
000154 1408
000155 0763
000156 7008      	.DB  0x63,0x14,0x8,0x14,0x63,0x7,0x8,0x70
000157 0708
000158 5161
000159 4549
00015a 0043      	.DB  0x8,0x7,0x61,0x51,0x49,0x45,0x43,0x0
00015b 417f
00015c 0041
00015d 0402
00015e 1008      	.DB  0x7F,0x41,0x41,0x0,0x2,0x4,0x8,0x10
00015f 0020
000160 4141
000161 007f
000162 0204      	.DB  0x20,0x0,0x41,0x41,0x7F,0x0,0x4,0x2
000163 0201
000164 4004
000165 4040
000166 4040      	.DB  0x1,0x2,0x4,0x40,0x40,0x40,0x40,0x40
000167 0100
000168 0402
000169 2000
00016a 5454      	.DB  0x0,0x1,0x2,0x4,0x0,0x20,0x54,0x54
00016b 7854
00016c 487f
00016d 4444
00016e 3838      	.DB  0x54,0x78,0x7F,0x48,0x44,0x44,0x38,0x38
00016f 4444
000170 2044
000171 4438
000172 4844      	.DB  0x44,0x44,0x44,0x20,0x38,0x44,0x44,0x48
000173 387f
000174 5454
000175 1854
000176 7e08      	.DB  0x7F,0x38,0x54,0x54,0x54,0x18,0x8,0x7E
000177 0109
000178 0c02
000179 5252
00017a 3e52      	.DB  0x9,0x1,0x2,0xC,0x52,0x52,0x52,0x3E
00017b 087f
00017c 0404
00017d 0078
00017e 7d44      	.DB  0x7F,0x8,0x4,0x4,0x78,0x0,0x44,0x7D
00017f 0040
000180 4020
000181 3d44
000182 7f00      	.DB  0x40,0x0,0x20,0x40,0x44,0x3D,0x0,0x7F
000183 2810
000184 0044
000185 4100
000186 407f      	.DB  0x10,0x28,0x44,0x0,0x0,0x41,0x7F,0x40
000187 7c00
000188 1804
000189 7804
00018a 087c      	.DB  0x0,0x7C,0x4,0x18,0x4,0x78,0x7C,0x8
00018b 0404
00018c 3878
00018d 4444
00018e 3844      	.DB  0x4,0x4,0x78,0x38,0x44,0x44,0x44,0x38
00018f 147c
000190 1414
000191 0808
000192 1414      	.DB  0x7C,0x14,0x14,0x14,0x8,0x8,0x14,0x14
000193 7c18
000194 087c
000195 0404
000196 0808      	.DB  0x18,0x7C,0x7C,0x8,0x4,0x4,0x8,0x8
000197 5454
000198 2054
000199 3f04
00019a 4044      	.DB  0x54,0x54,0x54,0x20,0x4,0x3F,0x44,0x40
00019b 3c20
00019c 4040
00019d 7c20
00019e 201c      	.DB  0x20,0x3C,0x40,0x40,0x20,0x7C,0x1C,0x20
00019f 2040
0001a0 3c1c
0001a1 3040
0001a2 3c40      	.DB  0x40,0x20,0x1C,0x3C,0x40,0x30,0x40,0x3C
0001a3 2844
0001a4 2810
0001a5 0c44
0001a6 5050      	.DB  0x44,0x28,0x10,0x28,0x44,0xC,0x50,0x50
0001a7 3c50
0001a8 6444
0001a9 4c54
0001aa 0044      	.DB  0x50,0x3C,0x44,0x64,0x54,0x4C,0x44,0x0
0001ab 3608
0001ac 0041
0001ad 0000
0001ae 007f      	.DB  0x8,0x36,0x41,0x0,0x0,0x0,0x7F,0x0
0001af 0000
0001b0 3641
0001b1 0008
0001b2 0810      	.DB  0x0,0x0,0x41,0x36,0x8,0x0,0x10,0x8
0001b3 1008
0001b4 7808
0001b5 4146
0001b6 7846      	.DB  0x8,0x10,0x8,0x78,0x46,0x41,0x46,0x78
0001b7 0000
0001b8 0000
0001b9 0000
0001ba 5f00      	.DB  0x0,0x0,0x0,0x0,0x0,0x0,0x0,0x5F
0001bb 0000
0001bc 0700
0001bd 0700
0001be 1400      	.DB  0x0,0x0,0x0,0x7,0x0,0x7,0x0,0x14
0001bf 147f
0001c0 147f
0001c1 2a24
0001c2 2a7f      	.DB  0x7F,0x14,0x7F,0x14,0x24,0x2A,0x7F,0x2A
0001c3 2312
0001c4 0813
0001c5 6264
0001c6 4936      	.DB  0x12,0x23,0x13,0x8,0x64,0x62,0x36,0x49
0001c7 2255
0001c8 0050
0001c9 0305
0001ca 0000      	.DB  0x55,0x22,0x50,0x0,0x5,0x3,0x0,0x0
0001cb 1c00
0001cc 4122
0001cd 0000
0001ce 2241      	.DB  0x0,0x1C,0x22,0x41,0x0,0x0,0x41,0x22
0001cf 001c
0001d0 0814
0001d1 083e
0001d2 0814      	.DB  0x1C,0x0,0x14,0x8,0x3E,0x8,0x14,0x8
0001d3 3e08
0001d4 0808
0001d5 5000
0001d6 0030      	.DB  0x8,0x3E,0x8,0x8,0x0,0x50,0x30,0x0
0001d7 0800
0001d8 0808
0001d9 0808
0001da 6000      	.DB  0x0,0x8,0x8,0x8,0x8,0x8,0x0,0x60
0001db 0060
0001dc 2000
0001dd 0810
0001de 0204      	.DB  0x60,0x0,0x0,0x20,0x10,0x8,0x4,0x2
0001df 0000
0001e0 0000
0001e1 0000
0001e2 5f00      	.DB  0x0,0x0,0x0,0x0,0x0,0x0,0x0,0x5F
0001e3 0000
0001e4 0700
0001e5 0700
0001e6 1400      	.DB  0x0,0x0,0x0,0x7,0x0,0x7,0x0,0x14
0001e7 147f
0001e8 147f
0001e9 2a24
0001ea 2a7f      	.DB  0x7F,0x14,0x7F,0x14,0x24,0x2A,0x7F,0x2A
0001eb 2312
0001ec 0813
0001ed 6264
0001ee 4936      	.DB  0x12,0x23,0x13,0x8,0x64,0x62,0x36,0x49
0001ef 2255
0001f0 0050
0001f1 0305
0001f2 0000      	.DB  0x55,0x22,0x50,0x0,0x5,0x3,0x0,0x0
0001f3 1c00
0001f4 4122
0001f5 0000
0001f6 2241      	.DB  0x0,0x1C,0x22,0x41,0x0,0x0,0x41,0x22
0001f7 001c
0001f8 0814
0001f9 083e
0001fa 0814      	.DB  0x1C,0x0,0x14,0x8,0x3E,0x8,0x14,0x8
0001fb 3e08
0001fc 0808
0001fd 5000
0001fe 0030      	.DB  0x8,0x3E,0x8,0x8,0x0,0x50,0x30,0x0
0001ff 0800
000200 0808
000201 0808
000202 6000      	.DB  0x0,0x8,0x8,0x8,0x8,0x8,0x0,0x60
000203 0060
000204 2000
000205 0810
000206 0204      	.DB  0x60,0x0,0x0,0x20,0x10,0x8,0x4,0x2
000207 0000
000208 0000
000209 0000
00020a 5f00      	.DB  0x0,0x0,0x0,0x0,0x0,0x0,0x0,0x5F
00020b 0000
00020c 0700
00020d 0700
00020e 1400      	.DB  0x0,0x0,0x0,0x7,0x0,0x7,0x0,0x14
00020f 147f
000210 147f
000211 2a24
000212 2a7f      	.DB  0x7F,0x14,0x7F,0x14,0x24,0x2A,0x7F,0x2A
000213 2312
000214 0813
000215 6264
000216 4936      	.DB  0x12,0x23,0x13,0x8,0x64,0x62,0x36,0x49
000217 2255
000218 0050
000219 0305
00021a 0000      	.DB  0x55,0x22,0x50,0x0,0x5,0x3,0x0,0x0
00021b 1c00
00021c 4122
00021d 0000
00021e 2241      	.DB  0x0,0x1C,0x22,0x41,0x0,0x0,0x41,0x22
00021f 001c
000220 0814
000221 083e
000222 0814      	.DB  0x1C,0x0,0x14,0x8,0x3E,0x8,0x14,0x8
000223 3e08
000224 0808
000225 5000
000226 0030      	.DB  0x8,0x3E,0x8,0x8,0x0,0x50,0x30,0x0
000227 0800
000228 0808
000229 0808
00022a 6000      	.DB  0x0,0x8,0x8,0x8,0x8,0x8,0x0,0x60
00022b 0060
00022c 2000
00022d 0810
00022e 0204      	.DB  0x60,0x0,0x0,0x20,0x10,0x8,0x4,0x2
00022f 0600
000230 0909
000231 0006
000232 7f42      	.DB  0x0,0x6,0x9,0x9,0x6,0x0,0x42,0x7F
000233 0040
000234 6142
000235 4951
000236 2146      	.DB  0x40,0x0,0x42,0x61,0x51,0x49,0x46,0x21
000237 4541
000238 314b
000239 1418
00023a 7f12      	.DB  0x41,0x45,0x4B,0x31,0x18,0x14,0x12,0x7F
00023b 2710
00023c 4545
00023d 3945
00023e 4a3c      	.DB  0x10,0x27,0x45,0x45,0x45,0x39,0x3C,0x4A
00023f 4949
000240 0130
000241 0971
000242 0305      	.DB  0x49,0x49,0x30,0x1,0x71,0x9,0x5,0x3
000243 4936
000244 4949
000245 0636
000246 4949      	.DB  0x36,0x49,0x49,0x49,0x36,0x6,0x49,0x49
000247 1e29
000248 3600
000249 0036
00024a 0000      	.DB  0x29,0x1E,0x0,0x36,0x36,0x0,0x0,0x0
00024b 3656
00024c 0000
00024d 1408
00024e 4122      	.DB  0x56,0x36,0x0,0x0,0x8,0x14,0x22,0x41
00024f 1400
000250 1414
000251 1414
000252 4100      	.DB  0x0,0x14,0x14,0x14,0x14,0x14,0x0,0x41
000253 1422
000254 0208
000255 5101
000256 0609      	.DB  0x22,0x14,0x8,0x2,0x1,0x51,0x9,0x6
000257 117e
000258 1111
000259 7f7e
00025a 4949      	.DB  0x7E,0x11,0x11,0x11,0x7E,0x7F,0x49,0x49
00025b 3149
00025c 497f
00025d 4949
00025e 7f36      	.DB  0x49,0x31,0x7F,0x49,0x49,0x49,0x36,0x7F
00025f 0101
000260 0301
000261 3e60
000262 2121      	.DB  0x1,0x1,0x1,0x3,0x60,0x3E,0x21,0x21
000263 7f7f
000264 4949
000265 4149
000266 0877      	.DB  0x7F,0x7F,0x49,0x49,0x49,0x41,0x77,0x8
000267 087f
000268 2277
000269 4941
00026a 3649      	.DB  0x7F,0x8,0x77,0x22,0x41,0x49,0x49,0x36
00026b 107f
00026c 0408
00026d 7f7f
00026e 0910      	.DB  0x7F,0x10,0x8,0x4,0x7F,0x7F,0x10,0x9
00026f 7f04
000270 087f
000271 2214
000272 4041      	.DB  0x4,0x7F,0x7F,0x8,0x14,0x22,0x41,0x40
000273 013e
000274 7f01
000275 027f
000276 020c      	.DB  0x3E,0x1,0x1,0x7F,0x7F,0x2,0xC,0x2
000277 7f7f
000278 0808
000279 7f08
00027a 413e      	.DB  0x7F,0x7F,0x8,0x8,0x8,0x7F,0x3E,0x41
00027b 4141
00027c 7f3e
00027d 0101
00027e 7f01      	.DB  0x41,0x41,0x3E,0x7F,0x1,0x1,0x1,0x7F
00027f 097f
000280 0909
000281 3e06
000282 4141      	.DB  0x7F,0x9,0x9,0x9,0x6,0x3E,0x41,0x41
000283 2241
000284 0101
000285 017f
000286 2701      	.DB  0x41,0x22,0x1,0x1,0x7F,0x1,0x1,0x27
000287 4848
000288 3f48
000289 211e
00028a 217f      	.DB  0x48,0x48,0x48,0x3F,0x1E,0x21,0x7F,0x21
00028b 631e
00028c 0814
00028d 6314
00028e 203f      	.DB  0x1E,0x63,0x14,0x8,0x14,0x63,0x3F,0x20
00028f 3f20
000290 0760
000291 0808
000292 7f08      	.DB  0x20,0x3F,0x60,0x7,0x8,0x8,0x8,0x7F
000293 407f
000294 407f
000295 3f7f
000296 3f20      	.DB  0x7F,0x40,0x7F,0x40,0x7F,0x3F,0x20,0x3F
000297 7f20
000298 7f01
000299 4848
00029a 7f30      	.DB  0x20,0x7F,0x1,0x7F,0x48,0x48,0x30,0x7F
00029b 3048
00029c 7f00
00029d 7f00
00029e 4848      	.DB  0x48,0x30,0x0,0x7F,0x0,0x7F,0x48,0x48
00029f 2230
0002a0 4941
0002a1 3e49
0002a2 087f      	.DB  0x30,0x22,0x41,0x49,0x49,0x3E,0x7F,0x8
0002a3 413e
0002a4 463e
0002a5 1929
0002a6 7f09      	.DB  0x3E,0x41,0x3E,0x46,0x29,0x19,0x9,0x7F
0002a7 5420
0002a8 5454
0002a9 3c78
0002aa 4a4a      	.DB  0x20,0x54,0x54,0x54,0x78,0x3C,0x4A,0x4A
0002ab 304a
0002ac 547c
0002ad 2854
0002ae 7c00      	.DB  0x4A,0x30,0x7C,0x54,0x54,0x28,0x0,0x7C
0002af 0404
0002b0 0404
0002b1 3860
0002b2 2424      	.DB  0x4,0x4,0x4,0x4,0x60,0x38,0x24,0x24
0002b3 387c
0002b4 5454
0002b5 1854
0002b6 106c      	.DB  0x7C,0x38,0x54,0x54,0x54,0x18,0x6C,0x10
0002b7 107c
0002b8 006c
0002b9 5444
0002ba 2854      	.DB  0x7C,0x10,0x6C,0x0,0x44,0x54,0x54,0x28
0002bb 207c
0002bc 0810
0002bd 7c7c
0002be 1221      	.DB  0x7C,0x20,0x10,0x8,0x7C,0x7C,0x21,0x12
0002bf 7c09
0002c0 107c
0002c1 4428
0002c2 4000      	.DB  0x9,0x7C,0x7C,0x10,0x28,0x44,0x0,0x40
0002c3 0438
0002c4 7c04
0002c5 087c
0002c6 0810      	.DB  0x38,0x4,0x4,0x7C,0x7C,0x8,0x10,0x8
0002c7 7c7c
0002c8 1010
0002c9 7c10
0002ca 4438      	.DB  0x7C,0x7C,0x10,0x10,0x10,0x7C,0x38,0x44
0002cb 4444
0002cc 7c38
0002cd 0404
0002ce 7c04      	.DB  0x44,0x44,0x38,0x7C,0x4,0x4,0x4,0x7C
0002cf 147c
0002d0 1414
0002d1 3808
0002d2 4444      	.DB  0x7C,0x14,0x14,0x14,0x8,0x38,0x44,0x44
0002d3 0044
0002d4 0404
0002d5 047c
0002d6 0c04      	.DB  0x44,0x0,0x4,0x4,0x7C,0x4,0x4,0xC
0002d7 5050
0002d8 3c50
0002d9 1408
0002da 147c      	.DB  0x50,0x50,0x50,0x3C,0x8,0x14,0x7C,0x14
0002db 4408
0002dc 1028
0002dd 4428
0002de 203c      	.DB  0x8,0x44,0x28,0x10,0x28,0x44,0x3C,0x20
0002df 3c20
0002e0 0c60
0002e1 1010
0002e2 7c10      	.DB  0x20,0x3C,0x60,0xC,0x10,0x10,0x10,0x7C
0002e3 407c
0002e4 407c
0002e5 3c7c
0002e6 3c20      	.DB  0x7C,0x40,0x7C,0x40,0x7C,0x3C,0x20,0x3C
0002e7 7c20
0002e8 7c04
0002e9 5050
0002ea 7c20      	.DB  0x20,0x7C,0x4,0x7C,0x50,0x50,0x20,0x7C
0002eb 2050
0002ec 7c00
0002ed 7c00
0002ee 5050      	.DB  0x50,0x20,0x0,0x7C,0x0,0x7C,0x50,0x50
0002ef 2820
0002f0 5444
0002f1 3854
0002f2 107c      	.DB  0x20,0x28,0x44,0x54,0x54,0x38,0x7C,0x10
0002f3 4438
0002f4 4838
0002f5 3454
0002f6 7c14      	.DB  0x38,0x44,0x38,0x48,0x54,0x34,0x14,0x7C
                 _BigNum:
0002f7 0000
0002f8 c000
0002f9 f0e0
0002fa f0f0      	.DB  0x0,0x0,0x0,0xC0,0xE0,0xF0,0xF0,0xF0
0002fb f0f0
0002fc f0f0
0002fd f0f0
0002fe f0f0      	.DB  0xF0,0xF0,0xF0,0xF0,0xF0,0xF0,0xF0,0xF0
0002ff f0f0
000300 e0f0
000301 00c0
000302 0000      	.DB  0xF0,0xF0,0xF0,0xE0,0xC0,0x0,0x0,0x0
000303 0000
000304 ff00
000305 ffff
000306 01ff      	.DB  0x0,0x0,0x0,0xFF,0xFF,0xFF,0xFF,0x1
000307 0000
000308 0000
000309 0000
00030a 0000      	.DB  0x0,0x0,0x0,0x0,0x0,0x0,0x0,0x0
00030b ff01
00030c ffff
00030d 00ff
00030e 0000      	.DB  0x1,0xFF,0xFF,0xFF,0xFF,0x0,0x0,0x0
00030f 0000
000310 ff00
000311 ffff
000312 80ff      	.DB  0x0,0x0,0x0,0xFF,0xFF,0xFF,0xFF,0x80
000313 0000
000314 0000
000315 0000
000316 0000      	.DB  0x0,0x0,0x0,0x0,0x0,0x0,0x0,0x0
000317 ff80
000318 ffff
000319 00ff
00031a 0000      	.DB  0x80,0xFF,0xFF,0xFF,0xFF,0x0,0x0,0x0
00031b 0000
00031c 0300
00031d 0f07
00031e 0f0f      	.DB  0x0,0x0,0x0,0x3,0x7,0xF,0xF,0xF
00031f 0f0f
000320 0f0f
000321 0f0f
000322 0f0f      	.DB  0xF,0xF,0xF,0xF,0xF,0xF,0xF,0xF
000323 0f0f
000324 070f
000325 0003
000326 0000      	.DB  0xF,0xF,0xF,0x7,0x3,0x0,0x0,0x0
000327 0000
000328 0000
000329 0000
00032a 0000      	.DB  0x0,0x0,0x0,0x0,0x0,0x0,0x0,0x0
00032b 0000
00032c 0000
00032d 0000
00032e f0e0      	.DB  0x0,0x0,0x0,0x0,0x0,0x0,0xE0,0xF0
00032f e0f0
000330 0000
000331 0000
000332 0000      	.DB  0xF0,0xE0,0x0,0x0,0x0,0x0,0x0,0x0
000333 0000
000334 0000
000335 0000
000336 0000      	.DB  0x0,0x0,0x0,0x0,0x0,0x0,0x0,0x0
000337 0000
000338 0000
000339 0000
00033a ffff      	.DB  0x0,0x0,0x0,0x0,0x0,0x0,0xFF,0xFF
00033b ffff
00033c 0000
00033d 0000
00033e 0000      	.DB  0xFF,0xFF,0x0,0x0,0x0,0x0,0x0,0x0
00033f 0000
000340 0000
000341 0000
000342 0000      	.DB  0x0,0x0,0x0,0x0,0x0,0x0,0x0,0x0
000343 0000
000344 0000
000345 0000
000346 ffff      	.DB  0x0,0x0,0x0,0x0,0x0,0x0,0xFF,0xFF
000347 ffff
000348 0000
000349 0000
00034a 0000      	.DB  0xFF,0xFF,0x0,0x0,0x0,0x0,0x0,0x0
00034b 0000
00034c 0000
00034d 0000
00034e 0000      	.DB  0x0,0x0,0x0,0x0,0x0,0x0,0x0,0x0
00034f 0000
000350 0000
000351 0000
000352 0703      	.DB  0x0,0x0,0x0,0x0,0x0,0x0,0x3,0x7
000353 0307
000354 0000
000355 0000
000356 0000      	.DB  0x7,0x3,0x0,0x0,0x0,0x0,0x0,0x0
000357 0000
000358 e000
000359 f0f0
00035a f0f0      	.DB  0x0,0x0,0x0,0xE0,0xF0,0xF0,0xF0,0xF0
00035b f0f0
00035c f0f0
00035d f0f0
00035e f0f0      	.DB  0xF0,0xF0,0xF0,0xF0,0xF0,0xF0,0xF0,0xF0
00035f f0f0
000360 e0f0
000361 0000
000362 0000      	.DB  0xF0,0xF0,0xF0,0xE0,0x0,0x0,0x0,0x0
000363 0000
000364 8100
000365 c0c1
000366 c0c0      	.DB  0x0,0x0,0x0,0x81,0xC1,0xC0,0xC0,0xC0
000367 c0c0
000368 c0c0
000369 c0c0
00036a e1c0      	.DB  0xC0,0xC0,0xC0,0xC0,0xC0,0xC0,0xC0,0xE1
00036b ffff
00036c ffff
00036d 0000
00036e 0000      	.DB  0xFF,0xFF,0xFF,0xFF,0x0,0x0,0x0,0x0
00036f 0000
000370 ff00
000371 ffff
000372 87ff      	.DB  0x0,0x0,0x0,0xFF,0xFF,0xFF,0xFF,0x87
000373 0303
000374 0303
000375 0303
000376 0303      	.DB  0x3,0x3,0x3,0x3,0x3,0x3,0x3,0x3
000377 0303
000378 8183
000379 0000
00037a 0000      	.DB  0x3,0x3,0x83,0x81,0x0,0x0,0x0,0x0
00037b 0000
00037c 0700
00037d 0f0f
00037e 0f0f      	.DB  0x0,0x0,0x0,0x7,0xF,0xF,0xF,0xF
00037f 0f0f
000380 0f0f
000381 0f0f
000382 0f0f      	.DB  0xF,0xF,0xF,0xF,0xF,0xF,0xF,0xF
000383 0f0f
000384 070f
000385 0000
000386 0000      	.DB  0xF,0xF,0xF,0x7,0x0,0x0,0x0,0x0
000387 0000
000388 e000
000389 f0f0
00038a f0f0      	.DB  0x0,0x0,0x0,0xE0,0xF0,0xF0,0xF0,0xF0
00038b f0f0
00038c f0f0
00038d f0f0
00038e f0f0      	.DB  0xF0,0xF0,0xF0,0xF0,0xF0,0xF0,0xF0,0xF0
00038f f0f0
000390 e0f0
000391 0000
000392 0000      	.DB  0xF0,0xF0,0xF0,0xE0,0x0,0x0,0x0,0x0
000393 0000
000394 8100
000395 c0c1
000396 c0c0      	.DB  0x0,0x0,0x0,0x81,0xC1,0xC0,0xC0,0xC0
000397 c0c0
000398 c0c0
000399 c0c0
00039a e1c0      	.DB  0xC0,0xC0,0xC0,0xC0,0xC0,0xC0,0xC0,0xE1
00039b ffff
00039c 7fff
00039d 0000
00039e 0000      	.DB  0xFF,0xFF,0xFF,0x7F,0x0,0x0,0x0,0x0
00039f 0000
0003a0 8100
0003a1 0383
0003a2 0303      	.DB  0x0,0x0,0x0,0x81,0x83,0x3,0x3,0x3
0003a3 0303
0003a4 0303
0003a5 0303
0003a6 8703      	.DB  0x3,0x3,0x3,0x3,0x3,0x3,0x3,0x87
0003a7 ffff
0003a8 feff
0003a9 0000
0003aa 0000      	.DB  0xFF,0xFF,0xFF,0xFE,0x0,0x0,0x0,0x0
0003ab 0000
0003ac 0700
0003ad 0f0f
0003ae 0f0f      	.DB  0x0,0x0,0x0,0x7,0xF,0xF,0xF,0xF
0003af 0f0f
0003b0 0f0f
0003b1 0f0f
0003b2 0f0f      	.DB  0xF,0xF,0xF,0xF,0xF,0xF,0xF,0xF
0003b3 0f0f
0003b4 070f
0003b5 0000
0003b6 0000      	.DB  0xF,0xF,0xF,0x7,0x0,0x0,0x0,0x0
0003b7 0000
0003b8 e000
0003b9 f0f0
0003ba 30f0      	.DB  0x0,0x0,0x0,0xE0,0xF0,0xF0,0xF0,0x30
0003bb 0000
0003bc 0000
0003bd 0000
0003be 3000      	.DB  0x0,0x0,0x0,0x0,0x0,0x0,0x0,0x30
0003bf f0f0
0003c0 e0f0
0003c1 0000
0003c2 0000      	.DB  0xF0,0xF0,0xF0,0xE0,0x0,0x0,0x0,0x0
0003c3 0000
0003c4 ff00
0003c5 ffff
0003c6 e0ff      	.DB  0x0,0x0,0x0,0xFF,0xFF,0xFF,0xFF,0xE0
0003c7 c0c0
0003c8 c0c0
0003c9 c0c0
0003ca e0c0      	.DB  0xC0,0xC0,0xC0,0xC0,0xC0,0xC0,0xC0,0xE0
0003cb ffff
0003cc ffff
0003cd 0000
0003ce 0000      	.DB  0xFF,0xFF,0xFF,0xFF,0x0,0x0,0x0,0x0
0003cf 0000
0003d0 0100
0003d1 0303
0003d2 0303      	.DB  0x0,0x0,0x0,0x1,0x3,0x3,0x3,0x3
0003d3 0303
0003d4 0303
0003d5 0303
0003d6 0703      	.DB  0x3,0x3,0x3,0x3,0x3,0x3,0x3,0x7
0003d7 ffff
0003d8 ffff
0003d9 0000
0003da 0000      	.DB  0xFF,0xFF,0xFF,0xFF,0x0,0x0,0x0,0x0
0003db 0000
0003dc 0000
0003dd 0000
0003de 0000      	.DB  0x0,0x0,0x0,0x0,0x0,0x0,0x0,0x0
0003df 0000
0003e0 0000
0003e1 0000
0003e2 0c00      	.DB  0x0,0x0,0x0,0x0,0x0,0x0,0x0,0xC
0003e3 0f0f
0003e4 070f
0003e5 0000
0003e6 0000      	.DB  0xF,0xF,0xF,0x7,0x0,0x0,0x0,0x0
0003e7 0000
0003e8 e000
0003e9 f0f0
0003ea f0f0      	.DB  0x0,0x0,0x0,0xE0,0xF0,0xF0,0xF0,0xF0
0003eb f0f0
0003ec f0f0
0003ed f0f0
0003ee f0f0      	.DB  0xF0,0xF0,0xF0,0xF0,0xF0,0xF0,0xF0,0xF0
0003ef f0f0
0003f0 e0f0
0003f1 0000
0003f2 0000      	.DB  0xF0,0xF0,0xF0,0xE0,0x0,0x0,0x0,0x0
0003f3 0000
0003f4 ff00
0003f5 ffff
0003f6 e1ff      	.DB  0x0,0x0,0x0,0xFF,0xFF,0xFF,0xFF,0xE1
0003f7 c0c0
0003f8 c0c0
0003f9 c0c0
0003fa c0c0      	.DB  0xC0,0xC0,0xC0,0xC0,0xC0,0xC0,0xC0,0xC0
0003fb c0c0
0003fc 81c1
0003fd 0000
0003fe 0000      	.DB  0xC0,0xC0,0xC1,0x81,0x0,0x0,0x0,0x0
0003ff 0000
000400 8100
000401 0383
000402 0303      	.DB  0x0,0x0,0x0,0x81,0x83,0x3,0x3,0x3
000403 0303
000404 0303
000405 0303
000406 8703      	.DB  0x3,0x3,0x3,0x3,0x3,0x3,0x3,0x87
000407 ffff
000408 ffff
000409 0000
00040a 0000      	.DB  0xFF,0xFF,0xFF,0xFF,0x0,0x0,0x0,0x0
00040b 0000
00040c 0700
00040d 0f0f
00040e 0f0f      	.DB  0x0,0x0,0x0,0x7,0xF,0xF,0xF,0xF
00040f 0f0f
000410 0f0f
000411 0f0f
000412 0f0f      	.DB  0xF,0xF,0xF,0xF,0xF,0xF,0xF,0xF
000413 0f0f
000414 070f
000415 0000
000416 0000      	.DB  0xF,0xF,0xF,0x7,0x0,0x0,0x0,0x0
000417 0000
000418 e000
000419 f0f0
00041a f0f0      	.DB  0x0,0x0,0x0,0xE0,0xF0,0xF0,0xF0,0xF0
00041b f0f0
00041c f0f0
00041d f0f0
00041e f0f0      	.DB  0xF0,0xF0,0xF0,0xF0,0xF0,0xF0,0xF0,0xF0
00041f f0f0
000420 e0f0
000421 0000
000422 0000      	.DB  0xF0,0xF0,0xF0,0xE0,0x0,0x0,0x0,0x0
000423 0000
000424 ff00
000425 ffff
000426 e1ff      	.DB  0x0,0x0,0x0,0xFF,0xFF,0xFF,0xFF,0xE1
000427 c0c0
000428 c0c0
000429 c0c0
00042a c0c0      	.DB  0xC0,0xC0,0xC0,0xC0,0xC0,0xC0,0xC0,0xC0
00042b c0c0
00042c 81c1
00042d 0000
00042e 0000      	.DB  0xC0,0xC0,0xC1,0x81,0x0,0x0,0x0,0x0
00042f 0000
000430 ff00
000431 ffff
000432 87ff      	.DB  0x0,0x0,0x0,0xFF,0xFF,0xFF,0xFF,0x87
000433 0303
000434 0303
000435 0303
000436 8703      	.DB  0x3,0x3,0x3,0x3,0x3,0x3,0x3,0x87
000437 ffff
000438 ffff
000439 0000
00043a 0000      	.DB  0xFF,0xFF,0xFF,0xFF,0x0,0x0,0x0,0x0
00043b 0000
00043c 0700
00043d 0f0f
00043e 0f0f      	.DB  0x0,0x0,0x0,0x7,0xF,0xF,0xF,0xF
00043f 0f0f
000440 0f0f
000441 0f0f
000442 0f0f      	.DB  0xF,0xF,0xF,0xF,0xF,0xF,0xF,0xF
000443 0f0f
000444 070f
000445 0000
000446 0000      	.DB  0xF,0xF,0xF,0x7,0x0,0x0,0x0,0x0
000447 0000
000448 e000
000449 f0f0
00044a f0f0      	.DB  0x0,0x0,0x0,0xE0,0xF0,0xF0,0xF0,0xF0
00044b f0f0
00044c f0f0
00044d f0f0
00044e f0f0      	.DB  0xF0,0xF0,0xF0,0xF0,0xF0,0xF0,0xF0,0xF0
00044f f0f0
000450 e0f0
000451 0000
000452 0000      	.DB  0xF0,0xF0,0xF0,0xE0,0x0,0x0,0x0,0x0
000453 0000
000454 0100
000455 0001
000456 0000      	.DB  0x0,0x0,0x0,0x1,0x1,0x0,0x0,0x0
000457 0000
000458 0000
000459 0000
00045a 0100      	.DB  0x0,0x0,0x0,0x0,0x0,0x0,0x0,0x1
00045b ffff
00045c ffff
00045d 0000
00045e 0000      	.DB  0xFF,0xFF,0xFF,0xFF,0x0,0x0,0x0,0x0
00045f 0000
000460 0000
000461 0000
000462 0000      	.DB  0x0,0x0,0x0,0x0,0x0,0x0,0x0,0x0
000463 0000
000464 0000
000465 0000
000466 0000      	.DB  0x0,0x0,0x0,0x0,0x0,0x0,0x0,0x0
000467 ffff
000468 ffff
000469 0000
00046a 0000      	.DB  0xFF,0xFF,0xFF,0xFF,0x0,0x0,0x0,0x0
00046b 0000
00046c 0000
00046d 0000
00046e 0000      	.DB  0x0,0x0,0x0,0x0,0x0,0x0,0x0,0x0
00046f 0000
000470 0000
000471 0000
000472 0c00      	.DB  0x0,0x0,0x0,0x0,0x0,0x0,0x0,0xC
000473 0f0f
000474 070f
000475 0000
000476 0000      	.DB  0xF,0xF,0xF,0x7,0x0,0x0,0x0,0x0
000477 0000
000478 e000
000479 f0f0
00047a f0f0      	.DB  0x0,0x0,0x0,0xE0,0xF0,0xF0,0xF0,0xF0
00047b f0f0
00047c f0f0
00047d f0f0
00047e f0f0      	.DB  0xF0,0xF0,0xF0,0xF0,0xF0,0xF0,0xF0,0xF0
00047f f0f0
000480 e0f0
000481 0000
000482 0000      	.DB  0xF0,0xF0,0xF0,0xE0,0x0,0x0,0x0,0x0
000483 0000
000484 7f00
000485 ffff
000486 e1ff      	.DB  0x0,0x0,0x0,0x7F,0xFF,0xFF,0xFF,0xE1
000487 c0c0
000488 c0c0
000489 c0c0
00048a e1c0      	.DB  0xC0,0xC0,0xC0,0xC0,0xC0,0xC0,0xC0,0xE1
00048b ffff
00048c 3fff
00048d 0000
00048e 0000      	.DB  0xFF,0xFF,0xFF,0x3F,0x0,0x0,0x0,0x0
00048f 0000
000490 fe00
000491 ffff
000492 87ff      	.DB  0x0,0x0,0x0,0xFE,0xFF,0xFF,0xFF,0x87
000493 0303
000494 0303
000495 0303
000496 8703      	.DB  0x3,0x3,0x3,0x3,0x3,0x3,0x3,0x87
000497 ffff
000498 feff
000499 0000
00049a 0000      	.DB  0xFF,0xFF,0xFF,0xFE,0x0,0x0,0x0,0x0
00049b 0000
00049c 0700
00049d 0f0f
00049e 0f0f      	.DB  0x0,0x0,0x0,0x7,0xF,0xF,0xF,0xF
00049f 0f0f
0004a0 0f0f
0004a1 0f0f
0004a2 0f0f      	.DB  0xF,0xF,0xF,0xF,0xF,0xF,0xF,0xF
0004a3 0f0f
0004a4 070f
0004a5 0000
0004a6 0000      	.DB  0xF,0xF,0xF,0x7,0x0,0x0,0x0,0x0
0004a7 0000
0004a8 e000
0004a9 f0f0
0004aa f0f0      	.DB  0x0,0x0,0x0,0xE0,0xF0,0xF0,0xF0,0xF0
0004ab f0f0
0004ac f0f0
0004ad f0f0
0004ae f0f0      	.DB  0xF0,0xF0,0xF0,0xF0,0xF0,0xF0,0xF0,0xF0
0004af f0f0
0004b0 e0f0
0004b1 0000
0004b2 0000      	.DB  0xF0,0xF0,0xF0,0xE0,0x0,0x0,0x0,0x0
0004b3 0000
0004b4 ff00
0004b5 ffff
0004b6 e1ff      	.DB  0x0,0x0,0x0,0xFF,0xFF,0xFF,0xFF,0xE1
0004b7 c0c0
0004b8 c0c0
0004b9 c0c0
0004ba e1c0      	.DB  0xC0,0xC0,0xC0,0xC0,0xC0,0xC0,0xC0,0xE1
0004bb ffff
0004bc ffff
0004bd 0000
0004be 0000      	.DB  0xFF,0xFF,0xFF,0xFF,0x0,0x0,0x0,0x0
0004bf 0000
0004c0 0100
0004c1 0303
0004c2 0303      	.DB  0x0,0x0,0x0,0x1,0x3,0x3,0x3,0x3
0004c3 0303
0004c4 0303
0004c5 0303
0004c6 0703      	.DB  0x3,0x3,0x3,0x3,0x3,0x3,0x3,0x7
0004c7 ffff
0004c8 ffff
0004c9 0000
0004ca 0000      	.DB  0xFF,0xFF,0xFF,0xFF,0x0,0x0,0x0,0x0
0004cb 0000
0004cc 0000
0004cd 0000
0004ce 0000      	.DB  0x0,0x0,0x0,0x0,0x0,0x0,0x0,0x0
0004cf 0000
0004d0 0000
0004d1 0000
0004d2 0c00      	.DB  0x0,0x0,0x0,0x0,0x0,0x0,0x0,0xC
0004d3 0f0f
0004d4 070f
0004d5 0000
0004d6 0000      	.DB  0xF,0xF,0xF,0x7,0x0,0x0,0x0,0x0
0004d7 0000
0004d8 0000
0004d9 0000
0004da 0000      	.DB  0x0,0x0,0x0,0x0,0x0,0x0,0x0,0x0
0004db 0000
0004dc 0000
0004dd 0000
0004de 0000      	.DB  0x0,0x0,0x0,0x0,0x0,0x0,0x0,0x0
0004df 0000
0004e0 0000
0004e1 0000
0004e2 0000      	.DB  0x0,0x0,0x0,0x0,0x0,0x0,0x0,0x0
0004e3 0000
0004e4 0000
0004e5 0000
0004e6 0000      	.DB  0x0,0x0,0x0,0x0,0x0,0x0,0x0,0x0
0004e7 3c00
0004e8 7e7e
0004e9 7e7e
0004ea 003c      	.DB  0x0,0x3C,0x7E,0x7E,0x7E,0x7E,0x3C,0x0
0004eb 0000
0004ec 0000
0004ed 0000
0004ee 0000      	.DB  0x0,0x0,0x0,0x0,0x0,0x0,0x0,0x0
0004ef 0000
0004f0 0000
0004f1 0000
0004f2 0000      	.DB  0x0,0x0,0x0,0x0,0x0,0x0,0x0,0x0
0004f3 f000
0004f4 f8f8
0004f5 f8f8
0004f6 00f0      	.DB  0x0,0xF0,0xF8,0xF8,0xF8,0xF8,0xF0,0x0
0004f7 0000
0004f8 0000
0004f9 0000
0004fa 0000      	.DB  0x0,0x0,0x0,0x0,0x0,0x0,0x0,0x0
0004fb 0000
0004fc 0000
0004fd 0000
0004fe 0000      	.DB  0x0,0x0,0x0,0x0,0x0,0x0,0x0,0x0
0004ff 0000
000500 0101
000501 0101
000502 0000      	.DB  0x0,0x0,0x1,0x1,0x1,0x1,0x0,0x0
000503 0000
000504 0000
000505 0000
000506 0000      	.DB  0x0,0x0,0x0,0x0,0x0,0x0,0x0,0x0
000507 0000
000508 0000
000509 0000
00050a 0000      	.DB  0x0,0x0,0x0,0x0,0x0,0x0,0x0,0x0
00050b 0000
00050c 0000
00050d 0000
00050e 0000      	.DB  0x0,0x0,0x0,0x0,0x0,0x0,0x0,0x0
00050f 0000
000510 0000
000511 0000
000512 0000      	.DB  0x0,0x0,0x0,0x0,0x0,0x0,0x0,0x0
000513 0000
000514 0000
000515 0000
000516 0000      	.DB  0x0,0x0,0x0,0x0,0x0,0x0,0x0,0x0
000517 0000
000518 0000
000519 0000
00051a 0000      	.DB  0x0,0x0,0x0,0x0,0x0,0x0,0x0,0x0
00051b 0000
00051c 0000
00051d 0000
00051e 0000      	.DB  0x0,0x0,0x0,0x0,0x0,0x0,0x0,0x0
00051f 0000
000520 0000
000521 0000
000522 0000      	.DB  0x0,0x0,0x0,0x0,0x0,0x0,0x0,0x0
000523 c000
000524 c0c0
000525 c0c0
000526 00c0      	.DB  0x0,0xC0,0xC0,0xC0,0xC0,0xC0,0xC0,0x0
000527 0000
000528 0000
000529 0000
00052a 0000      	.DB  0x0,0x0,0x0,0x0,0x0,0x0,0x0,0x0
00052b 0000
00052c 0000
00052d 0000
00052e 0000      	.DB  0x0,0x0,0x0,0x0,0x0,0x0,0x0,0x0
00052f 0f00
000530 0f0f
000531 0f0f
000532 000f      	.DB  0x0,0xF,0xF,0xF,0xF,0xF,0xF,0x0
000533 0000
000534 0000
000535 0000
000536 0000      	.DB  0x0,0x0,0x0,0x0,0x0,0x0,0x0,0x0
000537 0000
000538 0000
000539 0000
00053a 0000      	.DB  0x0,0x0,0x0,0x0,0x0,0x0,0x0,0x0
00053b 0000
00053c 0000
00053d 0000
00053e 0000      	.DB  0x0,0x0,0x0,0x0,0x0,0x0,0x0,0x0
00053f 0000
000540 0000
000541 0000
000542 0000      	.DB  0x0,0x0,0x0,0x0,0x0,0x0,0x0,0x0
000543 0000
000544 0000
000545 0000
000546 0000      	.DB  0x0,0x0,0x0,0x0,0x0,0x0,0x0,0x0
000547 0000
000548 0000
000549 0000
00054a 0000      	.DB  0x0,0x0,0x0,0x0,0x0,0x0,0x0,0x0
00054b 0000
00054c 0000
00054d 0000
00054e 0000      	.DB  0x0,0x0,0x0,0x0,0x0,0x0,0x0,0x0
00054f 0000
000550 0000
000551 0000
000552 0000      	.DB  0x0,0x0,0x0,0x0,0x0,0x0,0x0,0x0
000553 0000
000554 0000
000555 0000
000556 0000      	.DB  0x0,0x0,0x0,0x0,0x0,0x0,0x0,0x0
000557 0000
000558 0000
000559 0000
00055a 0000      	.DB  0x0,0x0,0x0,0x0,0x0,0x0,0x0,0x0
00055b 0000
00055c 0000
00055d 0000
00055e 0000      	.DB  0x0,0x0,0x0,0x0,0x0,0x0,0x0,0x0
00055f 0000
000560 0000
000561 0000
000562 0000      	.DB  0x0,0x0,0x0,0x0,0x0,0x0,0x0,0x0
000563 0000
000564 0000
000565 0000
000566 0000      	.DB  0x0,0x0,0x0,0x0,0x0,0x0,0x0,0x0
000567 0000
000568 0000
000569 0000
00056a 0000      	.DB  0x0,0x0,0x0,0x0,0x0,0x0,0x0,0x0
00056b 1f00
00056c 1111
00056d 1f11
00056e 0000      	.DB  0x0,0x1F,0x11,0x11,0x11,0x1F,0x0,0x0
00056f 0000
000570 0000
000571 0000
000572 0000      	.DB  0x0,0x0,0x0,0x0,0x0,0x0,0x0,0x0
000573 0000
000574 0000
000575 0000
000576 0000      	.DB  0x0,0x0,0x0,0x0,0x0,0x0,0x0,0x0
000577 0000
000578 0000
000579 0000
00057a 0000      	.DB  0x0,0x0,0x0,0x0,0x0,0x0,0x0,0x0
00057b 0000
00057c 0000
00057d 0000
00057e 0000      	.DB  0x0,0x0,0x0,0x0,0x0,0x0,0x0,0x0
00057f 0000
000580 0000
000581 0000
000582 0000      	.DB  0x0,0x0,0x0,0x0,0x0,0x0,0x0,0x0
000583 0000
000584 0000
000585 0000
000586 0000      	.DB  0x0,0x0,0x0,0x0,0x0,0x0,0x0,0x0
000587 0000
000588 0000
000589 0000
00058a 0000      	.DB  0x0,0x0,0x0,0x0,0x0,0x0,0x0,0x0
00058b 0000
00058c 0000
00058d 0000
00058e 0000      	.DB  0x0,0x0,0x0,0x0,0x0,0x0,0x0,0x0
00058f 0000
000590 0000
000591 0000
000592 0000      	.DB  0x0,0x0,0x0,0x0,0x0,0x0,0x0,0x0
000593 0000
000594 0000
000595 0000
000596 0000      	.DB  0x0,0x0,0x0,0x0,0x0,0x0,0x0,0x0
000597 0000
000598 0000
000599 0000
00059a 0000      	.DB  0x0,0x0,0x0,0x0,0x0,0x0,0x0,0x0
00059b 0000
00059c 0000
00059d 0000
00059e 0000      	.DB  0x0,0x0,0x0,0x0,0x0,0x0,0x0,0x0
00059f 0000
0005a0 0000
0005a1 0000
0005a2 0000      	.DB  0x0,0x0,0x0,0x0,0x0,0x0,0x0,0x0
0005a3 0000
0005a4 0000
0005a5 0000
0005a6 0000      	.DB  0x0,0x0,0x0,0x0,0x0,0x0,0x0,0x0
0005a7 0000
0005a8 0000
0005a9 0000
0005aa 0000      	.DB  0x0,0x0,0x0,0x0,0x0,0x0,0x0,0x0
0005ab 0000
0005ac 0000
0005ad 0000
0005ae 0000      	.DB  0x0,0x0,0x0,0x0,0x0,0x0,0x0,0x0
0005af 0000
0005b0 0000
0005b1 0000
0005b2 0000      	.DB  0x0,0x0,0x0,0x0,0x0,0x0,0x0,0x0
0005b3 0000
0005b4 0000
0005b5 0000
0005b6 0000      	.DB  0x0,0x0,0x0,0x0,0x0,0x0,0x0,0x0
0005b7 0000
0005b8 0000
0005b9 0000
0005ba 0000      	.DB  0x0,0x0,0x0,0x0,0x0,0x0,0x0,0x0
0005bb 0000
0005bc 0000
0005bd 0000
0005be 0000      	.DB  0x0,0x0,0x0,0x0,0x0,0x0,0x0,0x0
0005bf 0000
0005c0 0000
0005c1 0000
0005c2 0000      	.DB  0x0,0x0,0x0,0x0,0x0,0x0,0x0,0x0
0005c3 0000
0005c4 0000
0005c5 0000
0005c6 0000      	.DB  0x0,0x0,0x0,0x0,0x0,0x0,0x0,0x0
                 _dog0:
0005c7 0000
0005c8 0000
0005c9 0000
0005ca 0000      	.DB  0x0,0x0,0x0,0x0,0x0,0x0,0x0,0x0
0005cb 0000
0005cc 0000
0005cd 0000
0005ce 0000      	.DB  0x0,0x0,0x0,0x0,0x0,0x0,0x0,0x0
0005cf 0000
0005d0 0000
0005d1 0000
0005d2 0000      	.DB  0x0,0x0,0x0,0x0,0x0,0x0,0x0,0x0
0005d3 0000
0005d4 0000
0005d5 0000
0005d6 0000      	.DB  0x0,0x0,0x0,0x0,0x0,0x0,0x0,0x0
0005d7 0000
0005d8 0000
0005d9 0000
0005da 0000      	.DB  0x0,0x0,0x0,0x0,0x0,0x0,0x0,0x0
0005db 0000
0005dc 0000
0005dd 0000
0005de 0000      	.DB  0x0,0x0,0x0,0x0,0x0,0x0,0x0,0x0
0005df 8000
0005e0 8080
0005e1 8080
0005e2 0080      	.DB  0x0,0x80,0x80,0x80,0x80,0x80,0x80,0x0
0005e3 0000
0005e4 0000
0005e5 0000
0005e6 0000      	.DB  0x0,0x0,0x0,0x0,0x0,0x0,0x0,0x0
0005e7 0000
0005e8 0000
0005e9 0000
0005ea 0000      	.DB  0x0,0x0,0x0,0x0,0x0,0x0,0x0,0x0
0005eb 0000
0005ec 0000
0005ed 0000
0005ee 0000      	.DB  0x0,0x0,0x0,0x0,0x0,0x0,0x0,0x0
0005ef 0000
0005f0 0000
0005f1 0000
0005f2 0000      	.DB  0x0,0x0,0x0,0x0,0x0,0x0,0x0,0x0
0005f3 0000
0005f4 0000
0005f5 0000
0005f6 0000      	.DB  0x0,0x0,0x0,0x0,0x0,0x0,0x0,0x0
0005f7 0000
0005f8 0000
0005f9 0000
0005fa 0000      	.DB  0x0,0x0,0x0,0x0,0x0,0x0,0x0,0x0
0005fb 0000
0005fc 0000
0005fd 0000
0005fe 0000      	.DB  0x0,0x0,0x0,0x0,0x0,0x0,0x0,0x0
0005ff 0000
000600 0000
000601 0000
000602 0000      	.DB  0x0,0x0,0x0,0x0,0x0,0x0,0x0,0x0
000603 0000
000604 0000
000605 0000
000606 0000      	.DB  0x0,0x0,0x0,0x0,0x0,0x0,0x0,0x0
000607 0000
000608 0200
000609 0602
00060a 0e0e      	.DB  0x0,0x0,0x0,0x2,0x2,0x6,0xE,0xE
00060b 3c1e
00060c f87c
00060d e0f0
00060e c0e0      	.DB  0x1E,0x3C,0x7C,0xF8,0xF0,0xE0,0xE0,0xC0
00060f 0080
000610 0000
000611 0000
000612 0000      	.DB  0x80,0x0,0x0,0x0,0x0,0x0,0x0,0x0
000613 0000
000614 0000
000615 0000
000616 0000      	.DB  0x0,0x0,0x0,0x0,0x0,0x0,0x0,0x0
000617 0000
000618 c000
000619 e0c0
00061a f8f0      	.DB  0x0,0x0,0x0,0xC0,0xC0,0xE0,0xF0,0xF8
00061b fcf8
00061c fefe
00061d fffe
00061e ffff      	.DB  0xF8,0xFC,0xFE,0xFE,0xFE,0xFF,0xFF,0xFF
00061f ffff
000620 ffff
000621 ffff
000622 ffff      	.DB  0xFF,0xFF,0xFF,0xFF,0xFF,0xFF,0xFF,0xFF
000623 ffff
000624 feff
000625 fefe
000626 fcfc      	.DB  0xFF,0xFF,0xFF,0xFE,0xFE,0xFE,0xFC,0xFC
000627 f8fc
000628 f0f0
000629 e0e0
00062a c0c0      	.DB  0xFC,0xF8,0xF0,0xF0,0xE0,0xE0,0xC0,0xC0
00062b 80c0
00062c 8080
00062d 8080
00062e 0000      	.DB  0xC0,0x80,0x80,0x80,0x80,0x80,0x0,0x0
00062f 0000
000630 0000
000631 0000
000632 f060      	.DB  0x0,0x0,0x0,0x0,0x0,0x0,0x60,0xF0
000633 f0f0
000634 f0f0
000635 f0f0
000636 e0e0      	.DB  0xF0,0xF0,0xF0,0xF0,0xF0,0xF0,0xE0,0xE0
000637 e0e0
000638 e0e0
000639 f0e0
00063a f0f0      	.DB  0xE0,0xE0,0xE0,0xE0,0xE0,0xF0,0xF0,0xF0
00063b f0f0
00063c e0f0
00063d 80c0
00063e 0000      	.DB  0xF0,0xF0,0xF0,0xE0,0xC0,0x80,0x0,0x0
00063f 0000
000640 0000
000641 0000
000642 0000      	.DB  0x0,0x0,0x0,0x0,0x0,0x0,0x0,0x0
000643 0000
000644 0000
000645 0000
000646 0000      	.DB  0x0,0x0,0x0,0x0,0x0,0x0,0x0,0x0
000647 0000
000648 0000
000649 0000
00064a 0000      	.DB  0x0,0x0,0x0,0x0,0x0,0x0,0x0,0x0
00064b 0000
00064c 0100
00064d 0703
00064e 0f0f      	.DB  0x0,0x0,0x0,0x1,0x3,0x7,0xF,0xF
00064f 3f1f
000650 7e7e
000651 fcfc
000652 f8f8      	.DB  0x1F,0x3F,0x7E,0x7E,0xFC,0xFC,0xF8,0xF8
000653 f0f0
000654 e0e0
000655 e0e0
000656 f8f0      	.DB  0xF0,0xF0,0xE0,0xE0,0xE0,0xE0,0xF0,0xF8
000657 fefc
000658 ffff
000659 ffff
00065a ffff      	.DB  0xFC,0xFE,0xFF,0xFF,0xFF,0xFF,0xFF,0xFF
00065b ffff
00065c ffff
00065d ffff
00065e ffff      	.DB  0xFF,0xFF,0xFF,0xFF,0xFF,0xFF,0xFF,0xFF
00065f ffff
000660 ffff
000661 ffff
000662 ffff      	.DB  0xFF,0xFF,0xFF,0xFF,0xFF,0xFF,0xFF,0xFF
000663 ffff
000664 ffff
000665 ffff
000666 ffff      	.DB  0xFF,0xFF,0xFF,0xFF,0xFF,0xFF,0xFF,0xFF
000667 ffff
000668 ffff
000669 ffff
00066a ffff      	.DB  0xFF,0xFF,0xFF,0xFF,0xFF,0xFF,0xFF,0xFF
00066b ffff
00066c ffff
00066d ffff
00066e ffff      	.DB  0xFF,0xFF,0xFF,0xFF,0xFF,0xFF,0xFF,0xFF
00066f feff
000670 fcfe
000671 fcfc
000672 f9f8      	.DB  0xFF,0xFE,0xFE,0xFC,0xFC,0xFC,0xF8,0xF9
000673 ffff
000674 ffff
000675 ffff
000676 ffff      	.DB  0xFF,0xFF,0xFF,0xFF,0xFF,0xFF,0xFF,0xFF
000677 ffff
000678 ffff
000679 ffff
00067a ffff      	.DB  0xFF,0xFF,0xFF,0xFF,0xFF,0xFF,0xFF,0xFF
00067b ffff
00067c ffff
00067d ffff
00067e ffff      	.DB  0xFF,0xFF,0xFF,0xFF,0xFF,0xFF,0xFF,0xFF
00067f fcfe
000680 f8f8
000681 f0f8
000682 00f0      	.DB  0xFE,0xFC,0xF8,0xF8,0xF8,0xF0,0xF0,0x0
000683 0000
000684 0000
000685 0000
000686 0000      	.DB  0x0,0x0,0x0,0x0,0x0,0x0,0x0,0x0
000687 0000
000688 0000
000689 0000
00068a 0000      	.DB  0x0,0x0,0x0,0x0,0x0,0x0,0x0,0x0
00068b 0000
00068c 0000
00068d 0000
00068e 0000      	.DB  0x0,0x0,0x0,0x0,0x0,0x0,0x0,0x0
00068f 0000
000690 0000
000691 0000
000692 0101      	.DB  0x0,0x0,0x0,0x0,0x0,0x0,0x1,0x1
000693 0303
000694 0707
000695 0307
000696 0303      	.DB  0x3,0x3,0x7,0x7,0x7,0x3,0x3,0x3
000697 0101
000698 0101
000699 0703
00069a 3f1f      	.DB  0x1,0x1,0x1,0x1,0x3,0x7,0x1F,0x3F
00069b ff7f
00069c ffff
00069d ffff
00069e ffff      	.DB  0x7F,0xFF,0xFF,0xFF,0xFF,0xFF,0xFF,0xFF
00069f ffff
0006a0 ffff
0006a1 ffff
0006a2 ffff      	.DB  0xFF,0xFF,0xFF,0xFF,0xFF,0xFF,0xFF,0xFF
0006a3 ffff
0006a4 ffff
0006a5 ffff
0006a6 ffff      	.DB  0xFF,0xFF,0xFF,0xFF,0xFF,0xFF,0xFF,0xFF
0006a7 ffff
0006a8 ffff
0006a9 ffff
0006aa ffff      	.DB  0xFF,0xFF,0xFF,0xFF,0xFF,0xFF,0xFF,0xFF
0006ab ffff
0006ac ffff
0006ad ffff
0006ae ffff      	.DB  0xFF,0xFF,0xFF,0xFF,0xFF,0xFF,0xFF,0xFF
0006af ffff
0006b0 ffff
0006b1 ffff
0006b2 ffff      	.DB  0xFF,0xFF,0xFF,0xFF,0xFF,0xFF,0xFF,0xFF
0006b3 ffff
0006b4 ffff
0006b5 ffff
0006b6 7f7f      	.DB  0xFF,0xFF,0xFF,0xFF,0xFF,0xFF,0x7F,0x7F
0006b7 1f3f
0006b8 0f1f
0006b9 0f0f
0006ba 0f0f      	.DB  0x3F,0x1F,0x1F,0xF,0xF,0xF,0xF,0xF
0006bb 0f0f
0006bc 0f0f
0006bd 0f0f
0006be 0f0f      	.DB  0xF,0xF,0xF,0xF,0xF,0xF,0xF,0xF
0006bf 0f0f
0006c0 070f
0006c1 0103
0006c2 0000      	.DB  0xF,0xF,0xF,0x7,0x3,0x1,0x0,0x0
0006c3 0000
0006c4 0000
0006c5 0000
0006c6 0000      	.DB  0x0,0x0,0x0,0x0,0x0,0x0,0x0,0x0
0006c7 0000
0006c8 0000
0006c9 0000
0006ca 0000      	.DB  0x0,0x0,0x0,0x0,0x0,0x0,0x0,0x0
0006cb 0000
0006cc 0000
0006cd 0000
0006ce 0000      	.DB  0x0,0x0,0x0,0x0,0x0,0x0,0x0,0x0
0006cf 0000
0006d0 0000
0006d1 0000
0006d2 0000      	.DB  0x0,0x0,0x0,0x0,0x0,0x0,0x0,0x0
0006d3 0000
0006d4 0000
0006d5 0000
0006d6 0000      	.DB  0x0,0x0,0x0,0x0,0x0,0x0,0x0,0x0
0006d7 0000
0006d8 ff1f
0006d9 feff
0006da befe      	.DB  0x0,0x0,0x1F,0xFF,0xFF,0xFE,0xFE,0xBE
0006db 3f3e
0006dc 3f3f
0006dd 3f3f
0006de ff7f      	.DB  0x3E,0x3F,0x3F,0x3F,0x3F,0x3F,0x7F,0xFF
0006df ffff
0006e0 ffff
0006e1 1fbf
0006e2 1f1f      	.DB  0xFF,0xFF,0xFF,0xFF,0xBF,0x1F,0x1F,0x1F
0006e3 1f1f
0006e4 030f
0006e5 0303
0006e6 0703      	.DB  0x1F,0x1F,0xF,0x3,0x3,0x3,0x3,0x7
0006e7 ff07
0006e8 ffff
0006e9 ffff
0006ea ffff      	.DB  0x7,0xFF,0xFF,0xFF,0xFF,0xFF,0xFF,0xFF
0006eb ffff
0006ec ffff
0006ed ffff
0006ee ffff      	.DB  0xFF,0xFF,0xFF,0xFF,0xFF,0xFF,0xFF,0xFF
0006ef 7f7f
0006f0 3f3f
0006f1 1f1f
0006f2 0f0f      	.DB  0x7F,0x7F,0x3F,0x3F,0x1F,0x1F,0xF,0xF
0006f3 0307
0006f4 0103
0006f5 0000
0006f6 0000      	.DB  0x7,0x3,0x3,0x1,0x0,0x0,0x0,0x0
0006f7 0000
0006f8 0000
0006f9 0000
0006fa 0000      	.DB  0x0,0x0,0x0,0x0,0x0,0x0,0x0,0x0
0006fb 0000
0006fc 0000
0006fd 0000
0006fe 0000      	.DB  0x0,0x0,0x0,0x0,0x0,0x0,0x0,0x0
0006ff 0000
000700 0000
000701 0000
000702 0000      	.DB  0x0,0x0,0x0,0x0,0x0,0x0,0x0,0x0
000703 0000
000704 0000
000705 0000
000706 0000      	.DB  0x0,0x0,0x0,0x0,0x0,0x0,0x0,0x0
000707 0000
000708 0000
000709 0000
00070a 0000      	.DB  0x0,0x0,0x0,0x0,0x0,0x0,0x0,0x0
00070b 0000
00070c 0000
00070d 0000
00070e 0000      	.DB  0x0,0x0,0x0,0x0,0x0,0x0,0x0,0x0
00070f 0000
000710 0000
000711 0000
000712 0000      	.DB  0x0,0x0,0x0,0x0,0x0,0x0,0x0,0x0
000713 0000
000714 0000
000715 0000
000716 0000      	.DB  0x0,0x0,0x0,0x0,0x0,0x0,0x0,0x0
000717 0000
000718 0000
000719 ff1f
00071a ffff      	.DB  0x0,0x0,0x0,0x0,0x1F,0xFF,0xFF,0xFF
00071b c0f8
00071c 0000
00071d 0000
00071e 0000      	.DB  0xF8,0xC0,0x0,0x0,0x0,0x0,0x0,0x0
00071f 0703
000720 3f0f
000721 ffff
000722 fcfe      	.DB  0x3,0x7,0xF,0x3F,0xFF,0xFF,0xFE,0xFC
000723 e0f8
000724 0000
000725 0000
000726 0000      	.DB  0xF8,0xE0,0x0,0x0,0x0,0x0,0x0,0x0
000727 fff0
000728 ffff
000729 ffff
00072a ffff      	.DB  0xF0,0xFF,0xFF,0xFF,0xFF,0xFF,0xFF,0xFF
00072b 7fff
00072c 1f3f
00072d 070f
00072e 0001      	.DB  0xFF,0x7F,0x3F,0x1F,0xF,0x7,0x1,0x0
00072f 0000
000730 0000
000731 0000
000732 0000      	.DB  0x0,0x0,0x0,0x0,0x0,0x0,0x0,0x0
000733 0000
000734 0000
000735 0000
000736 0000      	.DB  0x0,0x0,0x0,0x0,0x0,0x0,0x0,0x0
000737 0000
000738 0000
000739 0000
00073a 0000      	.DB  0x0,0x0,0x0,0x0,0x0,0x0,0x0,0x0
00073b 0000
00073c 0000
00073d 0000
00073e 0000      	.DB  0x0,0x0,0x0,0x0,0x0,0x0,0x0,0x0
00073f 0000
000740 0000
000741 0000
000742 0000      	.DB  0x0,0x0,0x0,0x0,0x0,0x0,0x0,0x0
000743 0000
000744 0000
000745 0000
000746 0000      	.DB  0x0,0x0,0x0,0x0,0x0,0x0,0x0,0x0
000747 0000
000748 0000
000749 0000
00074a 0000      	.DB  0x0,0x0,0x0,0x0,0x0,0x0,0x0,0x0
00074b 0000
00074c 0000
00074d 0000
00074e 0000      	.DB  0x0,0x0,0x0,0x0,0x0,0x0,0x0,0x0
00074f 0000
000750 0000
000751 0000
000752 0000      	.DB  0x0,0x0,0x0,0x0,0x0,0x0,0x0,0x0
000753 0000
000754 0000
000755 0000
000756 0000      	.DB  0x0,0x0,0x0,0x0,0x0,0x0,0x0,0x0
000757 0000
000758 0000
000759 3f07
00075a 1f3f      	.DB  0x0,0x0,0x0,0x0,0x7,0x3F,0x3F,0x1F
00075b 0f1f
00075c 0000
00075d 0000
00075e 0000      	.DB  0x1F,0xF,0x0,0x0,0x0,0x0,0x0,0x0
00075f 0000
000760 0000
000761 0f07
000762 f7e7      	.DB  0x0,0x0,0x0,0x0,0x7,0xF,0xE7,0xF7
000763 f1f3
000764 f0f0
000765 f8f0
000766 fef8      	.DB  0xF3,0xF1,0xF0,0xF0,0xF0,0xF8,0xF8,0xFE
000767 7fff
000768 1f3f
000769 030f
00076a 0101      	.DB  0xFF,0x7F,0x3F,0x1F,0xF,0x3,0x1,0x1
00076b 0000
00076c 0000
00076d 0000
00076e 0000      	.DB  0x0,0x0,0x0,0x0,0x0,0x0,0x0,0x0
00076f 0000
000770 0000
000771 0000
000772 0000      	.DB  0x0,0x0,0x0,0x0,0x0,0x0,0x0,0x0
000773 0000
000774 0000
000775 0000
000776 0000      	.DB  0x0,0x0,0x0,0x0,0x0,0x0,0x0,0x0
000777 0000
000778 0000
000779 0000
00077a 0000      	.DB  0x0,0x0,0x0,0x0,0x0,0x0,0x0,0x0
00077b 0000
00077c 0000
00077d 0000
00077e 0000      	.DB  0x0,0x0,0x0,0x0,0x0,0x0,0x0,0x0
00077f 0000
000780 0000
000781 0000
000782 0000      	.DB  0x0,0x0,0x0,0x0,0x0,0x0,0x0,0x0
000783 0000
000784 0000
000785 0000
000786 0000      	.DB  0x0,0x0,0x0,0x0,0x0,0x0,0x0,0x0
000787 0000
000788 0000
000789 0000
00078a 0000      	.DB  0x0,0x0,0x0,0x0,0x0,0x0,0x0,0x0
00078b 0000
00078c 0000
00078d 0000
00078e 0000      	.DB  0x0,0x0,0x0,0x0,0x0,0x0,0x0,0x0
00078f 0000
000790 0000
000791 0000
000792 0000      	.DB  0x0,0x0,0x0,0x0,0x0,0x0,0x0,0x0
000793 0000
000794 0000
000795 0000
000796 0000      	.DB  0x0,0x0,0x0,0x0,0x0,0x0,0x0,0x0
000797 0000
000798 0000
000799 0000
00079a 0000      	.DB  0x0,0x0,0x0,0x0,0x0,0x0,0x0,0x0
00079b 0000
00079c 0000
00079d 0000
00079e 0000      	.DB  0x0,0x0,0x0,0x0,0x0,0x0,0x0,0x0
00079f 0000
0007a0 0000
0007a1 0000
0007a2 0100      	.DB  0x0,0x0,0x0,0x0,0x0,0x0,0x0,0x1
0007a3 0303
0007a4 7f0f
0007a5 ffff
0007a6 ffff      	.DB  0x3,0x3,0xF,0x7F,0xFF,0xFF,0xFF,0xFF
0007a7 f0f8
0007a8 00f0
0007a9 0000
0007aa 0000      	.DB  0xF8,0xF0,0xF0,0x0,0x0,0x0,0x0,0x0
0007ab 0000
0007ac 0000
0007ad 0000
0007ae 0000      	.DB  0x0,0x0,0x0,0x0,0x0,0x0,0x0,0x0
0007af 0000
0007b0 0000
0007b1 0000
0007b2 0000      	.DB  0x0,0x0,0x0,0x0,0x0,0x0,0x0,0x0
0007b3 0000
0007b4 0000
0007b5 0000
0007b6 0000      	.DB  0x0,0x0,0x0,0x0,0x0,0x0,0x0,0x0
0007b7 0000
0007b8 0000
0007b9 0000
0007ba 0000      	.DB  0x0,0x0,0x0,0x0,0x0,0x0,0x0,0x0
0007bb 0000
0007bc 0000
0007bd 0000
0007be 0000      	.DB  0x0,0x0,0x0,0x0,0x0,0x0,0x0,0x0
0007bf 0000
0007c0 0000
0007c1 0000
0007c2 0000      	.DB  0x0,0x0,0x0,0x0,0x0,0x0,0x0,0x0
0007c3 0000
0007c4 0000
0007c5 0000
0007c6 0000      	.DB  0x0,0x0,0x0,0x0,0x0,0x0,0x0,0x0
                 _dog1:
0007c7 0000
0007c8 0000
0007c9 0000
0007ca 0000      	.DB  0x0,0x0,0x0,0x0,0x0,0x0,0x0,0x0
0007cb 0000
0007cc 0000
0007cd 0000
0007ce 0000      	.DB  0x0,0x0,0x0,0x0,0x0,0x0,0x0,0x0
0007cf 0000
0007d0 0000
0007d1 0000
0007d2 0000      	.DB  0x0,0x0,0x0,0x0,0x0,0x0,0x0,0x0
0007d3 0000
0007d4 0000
0007d5 0000
0007d6 0000      	.DB  0x0,0x0,0x0,0x0,0x0,0x0,0x0,0x0
0007d7 0000
0007d8 0000
0007d9 0000
0007da 0000      	.DB  0x0,0x0,0x0,0x0,0x0,0x0,0x0,0x0
0007db 0000
0007dc 0000
0007dd 0000
0007de 0000      	.DB  0x0,0x0,0x0,0x0,0x0,0x0,0x0,0x0
0007df 0000
0007e0 0000
0007e1 0000
0007e2 0000      	.DB  0x0,0x0,0x0,0x0,0x0,0x0,0x0,0x0
0007e3 0000
0007e4 0000
0007e5 0000
0007e6 0000      	.DB  0x0,0x0,0x0,0x0,0x0,0x0,0x0,0x0
0007e7 0000
0007e8 0000
0007e9 0000
0007ea 0000      	.DB  0x0,0x0,0x0,0x0,0x0,0x0,0x0,0x0
0007eb 0000
0007ec 0000
0007ed 0000
0007ee 0000      	.DB  0x0,0x0,0x0,0x0,0x0,0x0,0x0,0x0
0007ef 0000
0007f0 0000
0007f1 0000
0007f2 0000      	.DB  0x0,0x0,0x0,0x0,0x0,0x0,0x0,0x0
0007f3 0000
0007f4 0000
0007f5 0000
0007f6 0000      	.DB  0x0,0x0,0x0,0x0,0x0,0x0,0x0,0x0
0007f7 0000
0007f8 0000
0007f9 0000
0007fa 0000      	.DB  0x0,0x0,0x0,0x0,0x0,0x0,0x0,0x0
0007fb 0000
0007fc 0000
0007fd 0000
0007fe 0000      	.DB  0x0,0x0,0x0,0x0,0x0,0x0,0x0,0x0
0007ff 0000
000800 0000
000801 0000
000802 0000      	.DB  0x0,0x0,0x0,0x0,0x0,0x0,0x0,0x0
000803 0000
000804 0000
000805 0000
000806 0000      	.DB  0x0,0x0,0x0,0x0,0x0,0x0,0x0,0x0
000807 0000
000808 0000
000809 0000
00080a 0000      	.DB  0x0,0x0,0x0,0x0,0x0,0x0,0x0,0x0
00080b 0000
00080c 0000
00080d 0000
00080e 0000      	.DB  0x0,0x0,0x0,0x0,0x0,0x0,0x0,0x0
00080f 0000
000810 0000
000811 0000
000812 0000      	.DB  0x0,0x0,0x0,0x0,0x0,0x0,0x0,0x0
000813 0000
000814 0000
000815 0000
000816 0000      	.DB  0x0,0x0,0x0,0x0,0x0,0x0,0x0,0x0
000817 0000
000818 0000
000819 c080
00081a e0c0      	.DB  0x0,0x0,0x0,0x0,0x80,0xC0,0xC0,0xE0
00081b f0f0
00081c f8f0
00081d f8f8
00081e f8f8      	.DB  0xF0,0xF0,0xF0,0xF8,0xF8,0xF8,0xF8,0xF8
00081f f8f8
000820 f8f8
000821 f0f0
000822 f0f0      	.DB  0xF8,0xF8,0xF8,0xF8,0xF0,0xF0,0xF0,0xF0
000823 e0f0
000824 c0c0
000825 8080
000826 0000      	.DB  0xF0,0xE0,0xC0,0xC0,0x80,0x80,0x0,0x0
000827 0000
000828 0000
000829 0000
00082a 0000      	.DB  0x0,0x0,0x0,0x0,0x0,0x0,0x0,0x0
00082b 0000
00082c 0000
00082d 0000
00082e 0000      	.DB  0x0,0x0,0x0,0x0,0x0,0x0,0x0,0x0
00082f 0000
000830 0000
000831 0000
000832 0000      	.DB  0x0,0x0,0x0,0x0,0x0,0x0,0x0,0x0
000833 0000
000834 0000
000835 0000
000836 8080      	.DB  0x0,0x0,0x0,0x0,0x0,0x0,0x80,0x80
000837 c080
000838 e0c0
000839 f0e0
00083a e0e0      	.DB  0x80,0xC0,0xC0,0xE0,0xE0,0xF0,0xE0,0xE0
00083b c0c0
00083c 8080
00083d 0000
00083e 0000      	.DB  0xC0,0xC0,0x80,0x80,0x0,0x0,0x0,0x0
00083f 0000
000840 0000
000841 0000
000842 0000      	.DB  0x0,0x0,0x0,0x0,0x0,0x0,0x0,0x0
000843 0000
000844 0000
000845 0000
000846 0000      	.DB  0x0,0x0,0x0,0x0,0x0,0x0,0x0,0x0
000847 0000
000848 0000
000849 0000
00084a 0000      	.DB  0x0,0x0,0x0,0x0,0x0,0x0,0x0,0x0
00084b 0000
00084c 0000
00084d 0000
00084e 0000      	.DB  0x0,0x0,0x0,0x0,0x0,0x0,0x0,0x0
00084f 0000
000850 0000
000851 0000
000852 0000      	.DB  0x0,0x0,0x0,0x0,0x0,0x0,0x0,0x0
000853 0000
000854 0000
000855 0000
000856 8000      	.DB  0x0,0x0,0x0,0x0,0x0,0x0,0x0,0x80
000857 f8e0
000858 fffc
000859 ffff
00085a ffff      	.DB  0xE0,0xF8,0xFC,0xFF,0xFF,0xFF,0xFF,0xFF
00085b ffff
00085c ffff
00085d ffff
00085e ffff      	.DB  0xFF,0xFF,0xFF,0xFF,0xFF,0xFF,0xFF,0xFF
00085f ffff
000860 ffff
000861 ffff
000862 ffff      	.DB  0xFF,0xFF,0xFF,0xFF,0xFF,0xFF,0xFF,0xFF
000863 ffff
000864 ffff
000865 ffff
000866 feff      	.DB  0xFF,0xFF,0xFF,0xFF,0xFF,0xFF,0xFF,0xFE
000867 fcfe
000868 f8fc
000869 f8f8
00086a f8f0      	.DB  0xFE,0xFC,0xFC,0xF8,0xF8,0xF8,0xF0,0xF8
00086b f8f8
00086c f8f8
00086d f8f8
00086e f0f0      	.DB  0xF8,0xF8,0xF8,0xF8,0xF8,0xF8,0xF0,0xF0
00086f f0f0
000870 fce0
000871 fcfc
000872 fcfc      	.DB  0xF0,0xF0,0xE0,0xFC,0xFC,0xFC,0xFC,0xFC
000873 fefc
000874 fffe
000875 ffff
000876 ffff      	.DB  0xFC,0xFE,0xFE,0xFF,0xFF,0xFF,0xFF,0xFF
000877 ffff
000878 ffff
000879 ffff
00087a ffff      	.DB  0xFF,0xFF,0xFF,0xFF,0xFF,0xFF,0xFF,0xFF
00087b ffff
00087c ffff
00087d ffff
00087e fefe      	.DB  0xFF,0xFF,0xFF,0xFF,0xFF,0xFF,0xFE,0xFE
00087f fefe
000880 fefe
000881 1e7e
000882 0000      	.DB  0xFE,0xFE,0xFE,0xFE,0x7E,0x1E,0x0,0x0
000883 0000
000884 0000
000885 0000
000886 0000      	.DB  0x0,0x0,0x0,0x0,0x0,0x0,0x0,0x0
000887 0000
000888 0000
000889 0000
00088a 0000      	.DB  0x0,0x0,0x0,0x0,0x0,0x0,0x0,0x0
00088b 0000
00088c 0000
00088d 0000
00088e 0000      	.DB  0x0,0x0,0x0,0x0,0x0,0x0,0x0,0x0
00088f 0000
000890 8000
000891 c080
000892 e0c0      	.DB  0x0,0x0,0x0,0x80,0x80,0xC0,0xC0,0xE0
000893 f0e0
000894 f8f0
000895 fefc
000896 7fff      	.DB  0xE0,0xF0,0xF0,0xF8,0xFC,0xFE,0xFF,0x7F
000897 7f3f
000898 ff7f
000899 ffff
00089a ffff      	.DB  0x3F,0x7F,0x7F,0xFF,0xFF,0xFF,0xFF,0xFF
00089b ffff
00089c ffff
00089d ffff
00089e ffff      	.DB  0xFF,0xFF,0xFF,0xFF,0xFF,0xFF,0xFF,0xFF
00089f ffff
0008a0 ffff
0008a1 ffff
0008a2 ffff      	.DB  0xFF,0xFF,0xFF,0xFF,0xFF,0xFF,0xFF,0xFF
0008a3 ffff
0008a4 ffff
0008a5 ffff
0008a6 ffff      	.DB  0xFF,0xFF,0xFF,0xFF,0xFF,0xFF,0xFF,0xFF
0008a7 ffff
0008a8 ffff
0008a9 ffff
0008aa ffff      	.DB  0xFF,0xFF,0xFF,0xFF,0xFF,0xFF,0xFF,0xFF
0008ab ffff
0008ac ffff
0008ad ffff
0008ae ffff      	.DB  0xFF,0xFF,0xFF,0xFF,0xFF,0xFF,0xFF,0xFF
0008af ffff
0008b0 ffff
0008b1 ffff
0008b2 ffff      	.DB  0xFF,0xFF,0xFF,0xFF,0xFF,0xFF,0xFF,0xFF
0008b3 ffff
0008b4 ffff
0008b5 ffff
0008b6 3f7f      	.DB  0xFF,0xFF,0xFF,0xFF,0xFF,0xFF,0x7F,0x3F
0008b7 0f1f
0008b8 0f0f
0008b9 0f0f
0008ba 0f0f      	.DB  0x1F,0xF,0xF,0xF,0xF,0xF,0xF,0xF
0008bb 0f0f
0008bc 0f0f
0008bd 070f
0008be 0707      	.DB  0xF,0xF,0xF,0xF,0xF,0x7,0x7,0x7
0008bf 0707
0008c0 0103
0008c1 0000
0008c2 0000      	.DB  0x7,0x7,0x3,0x1,0x0,0x0,0x0,0x0
0008c3 0000
0008c4 0000
0008c5 0000
0008c6 0000      	.DB  0x0,0x0,0x0,0x0,0x0,0x0,0x0,0x0
0008c7 0000
0008c8 0000
0008c9 0200
0008ca 0602      	.DB  0x0,0x0,0x0,0x0,0x0,0x2,0x2,0x6
0008cb 0606
0008cc 0606
0008cd 0707
0008ce 0f0f      	.DB  0x6,0x6,0x6,0x6,0x7,0x7,0xF,0xF
0008cf 0f0f
0008d0 0f0f
0008d1 070f
0008d2 0707      	.DB  0xF,0xF,0xF,0xF,0xF,0x7,0x7,0x7
0008d3 0307
0008d4 0303
0008d5 0001
0008d6 0000      	.DB  0x7,0x3,0x3,0x3,0x1,0x0,0x0,0x0
0008d7 0000
0008d8 c000
0008d9 f3e1
0008da fff7      	.DB  0x0,0x0,0x0,0xC0,0xE1,0xF3,0xF7,0xFF
0008db ffff
0008dc ffff
0008dd ffff
0008de 3fff      	.DB  0xFF,0xFF,0xFF,0xFF,0xFF,0xFF,0xFF,0x3F
0008df 3f3f
0008e0 ffff
0008e1 ffff
0008e2 ffff      	.DB  0x3F,0x3F,0xFF,0xFF,0xFF,0xFF,0xFF,0xFF
0008e3 0fff
0008e4 3f1f
0008e5 7f3f
0008e6 ffff      	.DB  0xFF,0xF,0x1F,0x3F,0x3F,0x7F,0xFF,0xFF
0008e7 ffff
0008e8 ffff
0008e9 ffff
0008ea ffff      	.DB  0xFF,0xFF,0xFF,0xFF,0xFF,0xFF,0xFF,0xFF
0008eb ffff
0008ec ffff
0008ed ffff
0008ee ffff      	.DB  0xFF,0xFF,0xFF,0xFF,0xFF,0xFF,0xFF,0xFF
0008ef ffff
0008f0 ffff
0008f1 7fff
0008f2 1f3f      	.DB  0xFF,0xFF,0xFF,0xFF,0xFF,0x7F,0x3F,0x1F
0008f3 070f
0008f4 0303
0008f5 0001
0008f6 0000      	.DB  0xF,0x7,0x3,0x3,0x1,0x0,0x0,0x0
0008f7 0000
0008f8 0000
0008f9 0000
0008fa 0000      	.DB  0x0,0x0,0x0,0x0,0x0,0x0,0x0,0x0
0008fb 0000
0008fc 0000
0008fd 0000
0008fe 0000      	.DB  0x0,0x0,0x0,0x0,0x0,0x0,0x0,0x0
0008ff 0000
000900 0000
000901 0000
000902 0000      	.DB  0x0,0x0,0x0,0x0,0x0,0x0,0x0,0x0
000903 0000
000904 0000
000905 0000
000906 0000      	.DB  0x0,0x0,0x0,0x0,0x0,0x0,0x0,0x0
000907 0000
000908 0000
000909 0000
00090a 0000      	.DB  0x0,0x0,0x0,0x0,0x0,0x0,0x0,0x0
00090b 0000
00090c 0000
00090d 0000
00090e 0000      	.DB  0x0,0x0,0x0,0x0,0x0,0x0,0x0,0x0
00090f 0000
000910 0000
000911 0000
000912 0000      	.DB  0x0,0x0,0x0,0x0,0x0,0x0,0x0,0x0
000913 0000
000914 0000
000915 0000
000916 0000      	.DB  0x0,0x0,0x0,0x0,0x0,0x0,0x0,0x0
000917 0000
000918 0100
000919 0301
00091a 0707      	.DB  0x0,0x0,0x0,0x1,0x1,0x3,0x7,0x7
00091b 0f07
00091c 1f0f
00091d 1f1f
00091e 3f3f      	.DB  0x7,0xF,0xF,0x1F,0x1F,0x1F,0x3F,0x3F
00091f 7e7e
000920 ff7c
000921 ffff
000922 ffff      	.DB  0x7E,0x7E,0x7C,0xFF,0xFF,0xFF,0xFF,0xFF
000923 c0ff
000924 c0c0
000925 f8e0
000926 ffff      	.DB  0xFF,0xC0,0xC0,0xC0,0xE0,0xF8,0xFF,0xFF
000927 7fff
000928 1f3f
000929 070f
00092a 1f0f      	.DB  0xFF,0x7F,0x3F,0x1F,0xF,0x7,0xF,0x1F
00092b ff3f
00092c ffff
00092d ffff
00092e fbff      	.DB  0x3F,0xFF,0xFF,0xFF,0xFF,0xFF,0xFF,0xFB
00092f 81e3
000930 0101
000931 0000
000932 0000      	.DB  0xE3,0x81,0x1,0x1,0x0,0x0,0x0,0x0
000933 0000
000934 0000
000935 0000
000936 0000      	.DB  0x0,0x0,0x0,0x0,0x0,0x0,0x0,0x0
000937 0000
000938 0000
000939 0000
00093a 0000      	.DB  0x0,0x0,0x0,0x0,0x0,0x0,0x0,0x0
00093b 0000
00093c 0000
00093d 0000
00093e 0000      	.DB  0x0,0x0,0x0,0x0,0x0,0x0,0x0,0x0
00093f 0000
000940 0000
000941 0000
000942 0000      	.DB  0x0,0x0,0x0,0x0,0x0,0x0,0x0,0x0
000943 0000
000944 0000
000945 0000
000946 0000      	.DB  0x0,0x0,0x0,0x0,0x0,0x0,0x0,0x0
000947 0000
000948 0000
000949 0000
00094a 0000      	.DB  0x0,0x0,0x0,0x0,0x0,0x0,0x0,0x0
00094b 0000
00094c 0000
00094d 0000
00094e 0000      	.DB  0x0,0x0,0x0,0x0,0x0,0x0,0x0,0x0
00094f 0000
000950 0000
000951 0000
000952 0000      	.DB  0x0,0x0,0x0,0x0,0x0,0x0,0x0,0x0
000953 0000
000954 0000
000955 0000
000956 0000      	.DB  0x0,0x0,0x0,0x0,0x0,0x0,0x0,0x0
000957 0000
000958 0000
000959 0000
00095a 0000      	.DB  0x0,0x0,0x0,0x0,0x0,0x0,0x0,0x0
00095b 0000
00095c 0000
00095d f0f0
00095e f0f0      	.DB  0x0,0x0,0x0,0x0,0xF0,0xF0,0xF0,0xF0
00095f f0f0
000960 f0f0
000961 f9f0
000962 fbf9      	.DB  0xF0,0xF0,0xF0,0xF0,0xF0,0xF9,0xF9,0xFB
000963 7fff
000964 3f7f
000965 3f3f
000966 3f3f      	.DB  0xFF,0x7F,0x7F,0x3F,0x3F,0x3F,0x3F,0x3F
000967 7c7e
000968 fc7c
000969 f8fc
00096a e0f0      	.DB  0x7E,0x7C,0x7C,0xFC,0xFC,0xF8,0xF0,0xE0
00096b 8080
00096c c3c1
00096d ffe7
00096e ffff      	.DB  0x80,0x80,0xC1,0xC3,0xE7,0xFF,0xFF,0xFF
00096f ffff
000970 0038
000971 0000
000972 0000      	.DB  0xFF,0xFF,0x38,0x0,0x0,0x0,0x0,0x0
000973 0000
000974 0000
000975 0000
000976 0000      	.DB  0x0,0x0,0x0,0x0,0x0,0x0,0x0,0x0
000977 0000
000978 0000
000979 0000
00097a 0000      	.DB  0x0,0x0,0x0,0x0,0x0,0x0,0x0,0x0
00097b 0000
00097c 0000
00097d 0000
00097e 0000      	.DB  0x0,0x0,0x0,0x0,0x0,0x0,0x0,0x0
00097f 0000
000980 0000
000981 0000
000982 0000      	.DB  0x0,0x0,0x0,0x0,0x0,0x0,0x0,0x0
000983 0000
000984 0000
000985 0000
000986 0000      	.DB  0x0,0x0,0x0,0x0,0x0,0x0,0x0,0x0
000987 0000
000988 0000
000989 0000
00098a 0000      	.DB  0x0,0x0,0x0,0x0,0x0,0x0,0x0,0x0
00098b 0000
00098c 0000
00098d 0000
00098e 0000      	.DB  0x0,0x0,0x0,0x0,0x0,0x0,0x0,0x0
00098f 0000
000990 0000
000991 0000
000992 0000      	.DB  0x0,0x0,0x0,0x0,0x0,0x0,0x0,0x0
000993 0000
000994 0000
000995 0000
000996 0000      	.DB  0x0,0x0,0x0,0x0,0x0,0x0,0x0,0x0
000997 0000
000998 0000
000999 0000
00099a 0000      	.DB  0x0,0x0,0x0,0x0,0x0,0x0,0x0,0x0
00099b 0000
00099c 0000
00099d 0000
00099e 0101      	.DB  0x0,0x0,0x0,0x0,0x0,0x0,0x1,0x1
00099f 0101
0009a0 0101
0009a1 0001
0009a2 0000      	.DB  0x1,0x1,0x1,0x1,0x1,0x0,0x0,0x0
0009a3 0000
0009a4 0000
0009a5 0000
0009a6 0000      	.DB  0x0,0x0,0x0,0x0,0x0,0x0,0x0,0x0
0009a7 0000
0009a8 0000
0009a9 0707
0009aa 0f0f      	.DB  0x0,0x0,0x0,0x0,0x7,0x7,0xF,0xF
0009ab 0f0f
0009ac 0f0f
0009ad 070f
0009ae 0707      	.DB  0xF,0xF,0xF,0xF,0xF,0x7,0x7,0x7
0009af 0103
0009b0 0000
0009b1 0000
0009b2 0000      	.DB  0x3,0x1,0x0,0x0,0x0,0x0,0x0,0x0
0009b3 0000
0009b4 0000
0009b5 0000
0009b6 0000      	.DB  0x0,0x0,0x0,0x0,0x0,0x0,0x0,0x0
0009b7 0000
0009b8 0000
0009b9 0000
0009ba 0000      	.DB  0x0,0x0,0x0,0x0,0x0,0x0,0x0,0x0
0009bb 0000
0009bc 0000
0009bd 0000
0009be 0000      	.DB  0x0,0x0,0x0,0x0,0x0,0x0,0x0,0x0
0009bf 0000
0009c0 0000
0009c1 0000
0009c2 0000      	.DB  0x0,0x0,0x0,0x0,0x0,0x0,0x0,0x0
0009c3 0000
0009c4 0000
0009c5 0000
0009c6 0000      	.DB  0x0,0x0,0x0,0x0,0x0,0x0,0x0,0x0
                 _dog2:
0009c7 0000
0009c8 0000
0009c9 0000
0009ca 0000      	.DB  0x0,0x0,0x0,0x0,0x0,0x0,0x0,0x0
0009cb 0000
0009cc 0000
0009cd 0000
0009ce 0000      	.DB  0x0,0x0,0x0,0x0,0x0,0x0,0x0,0x0
0009cf 0000
0009d0 0000
0009d1 0000
0009d2 0000      	.DB  0x0,0x0,0x0,0x0,0x0,0x0,0x0,0x0
0009d3 0000
0009d4 0000
0009d5 0000
0009d6 0000      	.DB  0x0,0x0,0x0,0x0,0x0,0x0,0x0,0x0
0009d7 0000
0009d8 0000
0009d9 0000
0009da 0000      	.DB  0x0,0x0,0x0,0x0,0x0,0x0,0x0,0x0
0009db 0000
0009dc 0000
0009dd 0000
0009de 0000      	.DB  0x0,0x0,0x0,0x0,0x0,0x0,0x0,0x0
0009df 0000
0009e0 0000
0009e1 0000
0009e2 0000      	.DB  0x0,0x0,0x0,0x0,0x0,0x0,0x0,0x0
0009e3 0000
0009e4 0000
0009e5 0000
0009e6 0000      	.DB  0x0,0x0,0x0,0x0,0x0,0x0,0x0,0x0
0009e7 0000
0009e8 0000
0009e9 0000
0009ea 0000      	.DB  0x0,0x0,0x0,0x0,0x0,0x0,0x0,0x0
0009eb 0000
0009ec 0000
0009ed 0000
0009ee 0000      	.DB  0x0,0x0,0x0,0x0,0x0,0x0,0x0,0x0
0009ef 0000
0009f0 0000
0009f1 0000
0009f2 0000      	.DB  0x0,0x0,0x0,0x0,0x0,0x0,0x0,0x0
0009f3 0000
0009f4 0000
0009f5 0000
0009f6 0000      	.DB  0x0,0x0,0x0,0x0,0x0,0x0,0x0,0x0
0009f7 0000
0009f8 0000
0009f9 0000
0009fa 8000      	.DB  0x0,0x0,0x0,0x0,0x0,0x0,0x0,0x80
0009fb 8080
0009fc 0000
0009fd 0000
0009fe 0000      	.DB  0x80,0x80,0x0,0x0,0x0,0x0,0x0,0x0
0009ff 0000
000a00 0000
000a01 0000
000a02 0000      	.DB  0x0,0x0,0x0,0x0,0x0,0x0,0x0,0x0
000a03 0000
000a04 0000
000a05 0000
000a06 0000      	.DB  0x0,0x0,0x0,0x0,0x0,0x0,0x0,0x0
000a07 0000
000a08 0000
000a09 0000
000a0a 0000      	.DB  0x0,0x0,0x0,0x0,0x0,0x0,0x0,0x0
000a0b 0000
000a0c 0000
000a0d 0000
000a0e 0000      	.DB  0x0,0x0,0x0,0x0,0x0,0x0,0x0,0x0
000a0f 0000
000a10 0000
000a11 0000
000a12 0000      	.DB  0x0,0x0,0x0,0x0,0x0,0x0,0x0,0x0
000a13 0000
000a14 0000
000a15 0000
000a16 0000      	.DB  0x0,0x0,0x0,0x0,0x0,0x0,0x0,0x0
000a17 0000
000a18 0000
000a19 0000
000a1a 0000      	.DB  0x0,0x0,0x0,0x0,0x0,0x0,0x0,0x0
000a1b 0000
000a1c 0000
000a1d 0000
000a1e 8080      	.DB  0x0,0x0,0x0,0x0,0x0,0x0,0x80,0x80
000a1f 8080
000a20 c0c0
000a21 c0c0
000a22 c0c0      	.DB  0x80,0x80,0xC0,0xC0,0xC0,0xC0,0xC0,0xC0
000a23 c0c0
000a24 80c0
000a25 8080
000a26 0080      	.DB  0xC0,0xC0,0xC0,0x80,0x80,0x80,0x80,0x0
000a27 0000
000a28 0000
000a29 0000
000a2a 0000      	.DB  0x0,0x0,0x0,0x0,0x0,0x0,0x0,0x0
000a2b 0000
000a2c 0000
000a2d 0000
000a2e 0000      	.DB  0x0,0x0,0x0,0x0,0x0,0x0,0x0,0x0
000a2f 0000
000a30 0000
000a31 0000
000a32 0000      	.DB  0x0,0x0,0x0,0x0,0x0,0x0,0x0,0x0
000a33 0000
000a34 f000
000a35 fcf8
000a36 fcfc      	.DB  0x0,0x0,0x0,0xF0,0xF8,0xFC,0xFC,0xFC
000a37 fcfc
000a38 fefe
000a39 fffe
000a3a ffff      	.DB  0xFC,0xFC,0xFE,0xFE,0xFE,0xFF,0xFF,0xFF
000a3b ffff
000a3c ffff
000a3d fcfe
000a3e f8fc      	.DB  0xFF,0xFF,0xFF,0xFF,0xFE,0xFC,0xFC,0xF8
000a3f f0f0
000a40 f0f0
000a41 f0f0
000a42 f0f0      	.DB  0xF0,0xF0,0xF0,0xF0,0xF0,0xF0,0xF0,0xF0
000a43 0030
000a44 0000
000a45 0000
000a46 0000      	.DB  0x30,0x0,0x0,0x0,0x0,0x0,0x0,0x0
000a47 0000
000a48 0000
000a49 0000
000a4a 0000      	.DB  0x0,0x0,0x0,0x0,0x0,0x0,0x0,0x0
000a4b 0000
000a4c 0000
000a4d 0000
000a4e 0000      	.DB  0x0,0x0,0x0,0x0,0x0,0x0,0x0,0x0
000a4f 0000
000a50 0000
000a51 0000
000a52 0000      	.DB  0x0,0x0,0x0,0x0,0x0,0x0,0x0,0x0
000a53 0000
000a54 0000
000a55 0000
000a56 0000      	.DB  0x0,0x0,0x0,0x0,0x0,0x0,0x0,0x0
000a57 0000
000a58 0000
000a59 e0c0
000a5a f8f0      	.DB  0x0,0x0,0x0,0x0,0xC0,0xE0,0xF0,0xF8
000a5b fcfc
000a5c fefe
000a5d ffff
000a5e ffff      	.DB  0xFC,0xFC,0xFE,0xFE,0xFF,0xFF,0xFF,0xFF
000a5f ffff
000a60 ffff
000a61 ffff
000a62 ffff      	.DB  0xFF,0xFF,0xFF,0xFF,0xFF,0xFF,0xFF,0xFF
000a63 ffff
000a64 ffff
000a65 ffff
000a66 ffff      	.DB  0xFF,0xFF,0xFF,0xFF,0xFF,0xFF,0xFF,0xFF
000a67 ffff
000a68 ffff
000a69 ffff
000a6a ffff      	.DB  0xFF,0xFF,0xFF,0xFF,0xFF,0xFF,0xFF,0xFF
000a6b ffff
000a6c ffff
000a6d ffff
000a6e ffff      	.DB  0xFF,0xFF,0xFF,0xFF,0xFF,0xFF,0xFF,0xFF
000a6f ffff
000a70 ffff
000a71 ffff
000a72 ffff      	.DB  0xFF,0xFF,0xFF,0xFF,0xFF,0xFF,0xFF,0xFF
000a73 ffff
000a74 ffff
000a75 ffff
000a76 ffff      	.DB  0xFF,0xFF,0xFF,0xFF,0xFF,0xFF,0xFF,0xFF
000a77 ffff
000a78 ffff
000a79 7fff
000a7a 7f7f      	.DB  0xFF,0xFF,0xFF,0xFF,0xFF,0x7F,0x7F,0x7F
000a7b 3f3f
000a7c 3f3f
000a7d 3f3f
000a7e 3f3f      	.DB  0x3F,0x3F,0x3F,0x3F,0x3F,0x3F,0x3F,0x3F
000a7f 3f3f
000a80 1f3f
000a81 070f
000a82 0003      	.DB  0x3F,0x3F,0x3F,0x1F,0xF,0x7,0x3,0x0
000a83 0000
000a84 0000
000a85 0000
000a86 0000      	.DB  0x0,0x0,0x0,0x0,0x0,0x0,0x0,0x0
000a87 0000
000a88 0000
000a89 0000
000a8a 0000      	.DB  0x0,0x0,0x0,0x0,0x0,0x0,0x0,0x0
000a8b 0000
000a8c 0000
000a8d 0000
000a8e 0000      	.DB  0x0,0x0,0x0,0x0,0x0,0x0,0x0,0x0
000a8f 0000
000a90 0000
000a91 0000
000a92 0000      	.DB  0x0,0x0,0x0,0x0,0x0,0x0,0x0,0x0
000a93 0000
000a94 0000
000a95 0000
000a96 c080      	.DB  0x0,0x0,0x0,0x0,0x0,0x0,0x80,0xC0
000a97 f8e0
000a98 fffc
000a99 ffff
000a9a ffff      	.DB  0xE0,0xF8,0xFC,0xFF,0xFF,0xFF,0xFF,0xFF
000a9b ffff
000a9c ffff
000a9d ffff
000a9e ffff      	.DB  0xFF,0xFF,0xFF,0xFF,0xFF,0xFF,0xFF,0xFF
000a9f ffff
000aa0 ffff
000aa1 ffff
000aa2 ffff      	.DB  0xFF,0xFF,0xFF,0xFF,0xFF,0xFF,0xFF,0xFF
000aa3 ffff
000aa4 ffff
000aa5 ffff
000aa6 ffff      	.DB  0xFF,0xFF,0xFF,0xFF,0xFF,0xFF,0xFF,0xFF
000aa7 ffff
000aa8 ffff
000aa9 ffff
000aaa ffff      	.DB  0xFF,0xFF,0xFF,0xFF,0xFF,0xFF,0xFF,0xFF
000aab ffff
000aac ffff
000aad ffff
000aae ffff      	.DB  0xFF,0xFF,0xFF,0xFF,0xFF,0xFF,0xFF,0xFF
000aaf ffff
000ab0 ffff
000ab1 ffff
000ab2 ffff      	.DB  0xFF,0xFF,0xFF,0xFF,0xFF,0xFF,0xFF,0xFF
000ab3 ffff
000ab4 7fff
000ab5 3f7f
000ab6 1f3f      	.DB  0xFF,0xFF,0xFF,0x7F,0x7F,0x3F,0x3F,0x1F
000ab7 070f
000ab8 0103
000ab9 0000
000aba 0000      	.DB  0xF,0x7,0x3,0x1,0x0,0x0,0x0,0x0
000abb 0000
000abc 0000
000abd 0000
000abe 0000      	.DB  0x0,0x0,0x0,0x0,0x0,0x0,0x0,0x0
000abf 0000
000ac0 0000
000ac1 0000
000ac2 0000      	.DB  0x0,0x0,0x0,0x0,0x0,0x0,0x0,0x0
000ac3 0000
000ac4 0000
000ac5 0000
000ac6 0000      	.DB  0x0,0x0,0x0,0x0,0x0,0x0,0x0,0x0
000ac7 0400
000ac8 0804
000ac9 1818
000aca 3030      	.DB  0x0,0x4,0x4,0x8,0x18,0x18,0x30,0x30
000acb 7070
000acc f0f0
000acd f0f0
000ace f0f0      	.DB  0x70,0x70,0xF0,0xF0,0xF0,0xF0,0xF0,0xF0
000acf f0f0
000ad0 f0f0
000ad1 f0f0
000ad2 f0f0      	.DB  0xF0,0xF0,0xF0,0xF0,0xF0,0xF0,0xF0,0xF0
000ad3 f8f8
000ad4 7e7c
000ad5 3f3e
000ad6 0f1f      	.DB  0xF8,0xF8,0x7C,0x7E,0x3E,0x3F,0x1F,0xF
000ad7 0f0f
000ad8 3f1f
000ad9 7f3f
000ada ff7f      	.DB  0xF,0xF,0x1F,0x3F,0x3F,0x7F,0x7F,0xFF
000adb ffff
000adc ffff
000add ffff
000ade ffff      	.DB  0xFF,0xFF,0xFF,0xFF,0xFF,0xFF,0xFF,0xFF
000adf ffff
000ae0 ffff
000ae1 ffff
000ae2 ffff      	.DB  0xFF,0xFF,0xFF,0xFF,0xFF,0xFF,0xFF,0xFF
000ae3 01ff
000ae4 0303
000ae5 0707
000ae6 0f0f      	.DB  0xFF,0x1,0x3,0x3,0x7,0x7,0xF,0xF
000ae7 1f1f
000ae8 3f3f
000ae9 7f7f
000aea 7f7f      	.DB  0x1F,0x1F,0x3F,0x3F,0x7F,0x7F,0x7F,0x7F
000aeb ffff
000aec ffff
000aed ffff
000aee ffff      	.DB  0xFF,0xFF,0xFF,0xFF,0xFF,0xFF,0xFF,0xFF
000aef 3fff
000af0 3f3f
000af1 7f7f
000af2 ff7f      	.DB  0xFF,0x3F,0x3F,0x3F,0x7F,0x7F,0x7F,0xFF
000af3 ffff
000af4 feff
000af5 fcfe
000af6 f8f8      	.DB  0xFF,0xFF,0xFF,0xFE,0xFE,0xFC,0xF8,0xF8
000af7 f0f0
000af8 e0e0
000af9 c0c0
000afa 0080      	.DB  0xF0,0xF0,0xE0,0xE0,0xC0,0xC0,0x80,0x0
000afb 0000
000afc 0000
000afd 0000
000afe 0000      	.DB  0x0,0x0,0x0,0x0,0x0,0x0,0x0,0x0
000aff 0000
000b00 0000
000b01 0000
000b02 0000      	.DB  0x0,0x0,0x0,0x0,0x0,0x0,0x0,0x0
000b03 0000
000b04 0000
000b05 0000
000b06 0000      	.DB  0x0,0x0,0x0,0x0,0x0,0x0,0x0,0x0
000b07 0000
000b08 0000
000b09 0000
000b0a 0000      	.DB  0x0,0x0,0x0,0x0,0x0,0x0,0x0,0x0
000b0b 0000
000b0c 0000
000b0d 0100
000b0e 0101      	.DB  0x0,0x0,0x0,0x0,0x0,0x1,0x1,0x1
000b0f 0101
000b10 0101
000b11 0101
000b12 0101      	.DB  0x1,0x1,0x1,0x1,0x1,0x1,0x1,0x1
000b13 0000
000b14 0000
000b15 0000
000b16 0000      	.DB  0x0,0x0,0x0,0x0,0x0,0x0,0x0,0x0
000b17 0000
000b18 0000
000b19 0000
000b1a 0000      	.DB  0x0,0x0,0x0,0x0,0x0,0x0,0x0,0x0
000b1b ff87
000b1c ffff
000b1d ffff
000b1e 3fff      	.DB  0x87,0xFF,0xFF,0xFF,0xFF,0xFF,0xFF,0x3F
000b1f 071f
000b20 3f07
000b21 ffff
000b22 ffff      	.DB  0x1F,0x7,0x7,0x3F,0xFF,0xFF,0xFF,0xFF
000b23 f0ff
000b24 80c0
000b25 0080
000b26 0000      	.DB  0xFF,0xF0,0xC0,0x80,0x80,0x0,0x0,0x0
000b27 0000
000b28 c080
000b29 c0c0
000b2a 8080      	.DB  0x0,0x0,0x80,0xC0,0xC0,0xC0,0x80,0x80
000b2b 0783
000b2c ff8f
000b2d ffff
000b2e ffff      	.DB  0x83,0x7,0x8F,0xFF,0xFF,0xFF,0xFF,0xFF
000b2f 00ff
000b30 0000
000b31 0000
000b32 0000      	.DB  0xFF,0x0,0x0,0x0,0x0,0x0,0x0,0x0
000b33 0000
000b34 0101
000b35 8381
000b36 c3c3      	.DB  0x0,0x0,0x1,0x1,0x81,0x83,0xC3,0xC3
000b37 efe7
000b38 ffff
000b39 ffff
000b3a 3fff      	.DB  0xE7,0xEF,0xFF,0xFF,0xFF,0xFF,0xFF,0x3F
000b3b 0000
000b3c 0000
000b3d 0000
000b3e 0000      	.DB  0x0,0x0,0x0,0x0,0x0,0x0,0x0,0x0
000b3f 0000
000b40 0000
000b41 0000
000b42 0000      	.DB  0x0,0x0,0x0,0x0,0x0,0x0,0x0,0x0
000b43 0000
000b44 0000
000b45 0000
000b46 0000      	.DB  0x0,0x0,0x0,0x0,0x0,0x0,0x0,0x0
000b47 0000
000b48 0000
000b49 0000
000b4a 0000      	.DB  0x0,0x0,0x0,0x0,0x0,0x0,0x0,0x0
000b4b 0000
000b4c 0000
000b4d 0000
000b4e 0000      	.DB  0x0,0x0,0x0,0x0,0x0,0x0,0x0,0x0
000b4f 0000
000b50 0000
000b51 0000
000b52 0000      	.DB  0x0,0x0,0x0,0x0,0x0,0x0,0x0,0x0
000b53 0000
000b54 0000
000b55 0000
000b56 0000      	.DB  0x0,0x0,0x0,0x0,0x0,0x0,0x0,0x0
000b57 0000
000b58 0000
000b59 7800
000b5a fefc      	.DB  0x0,0x0,0x0,0x0,0x0,0x78,0xFC,0xFE
000b5b ffff
000b5c cfff
000b5d 0183
000b5e 0000      	.DB  0xFF,0xFF,0xFF,0xCF,0x83,0x1,0x0,0x0
000b5f 0000
000b60 0000
000b61 0100
000b62 0301      	.DB  0x0,0x0,0x0,0x0,0x0,0x1,0x1,0x3
000b63 0f07
000b64 1f0f
000b65 7f3f
000b66 fcfe      	.DB  0x7,0xF,0xF,0x1F,0x3F,0x7F,0xFE,0xFC
000b67 fcfc
000b68 fbf9
000b69 f7f7
000b6a cfe7      	.DB  0xFC,0xFC,0xF9,0xFB,0xF7,0xF7,0xE7,0xCF
000b6b 0f0f
000b6c 0f0f
000b6d 070f
000b6e 0307      	.DB  0xF,0xF,0xF,0xF,0xF,0x7,0x7,0x3
000b6f 0000
000b70 0000
000b71 0000
000b72 0000      	.DB  0x0,0x0,0x0,0x0,0x0,0x0,0x0,0x0
000b73 0000
000b74 0702
000b75 0f07
000b76 0f0f      	.DB  0x0,0x0,0x2,0x7,0x7,0xF,0xF,0xF
000b77 070f
000b78 0307
000b79 0103
000b7a 0000      	.DB  0xF,0x7,0x7,0x3,0x3,0x1,0x0,0x0
000b7b 0000
000b7c 0000
000b7d 0000
000b7e 0000      	.DB  0x0,0x0,0x0,0x0,0x0,0x0,0x0,0x0
000b7f 0000
000b80 0000
000b81 0000
000b82 0000      	.DB  0x0,0x0,0x0,0x0,0x0,0x0,0x0,0x0
000b83 0000
000b84 0000
000b85 0000
000b86 0000      	.DB  0x0,0x0,0x0,0x0,0x0,0x0,0x0,0x0
000b87 0000
000b88 0000
000b89 0000
000b8a 0000      	.DB  0x0,0x0,0x0,0x0,0x0,0x0,0x0,0x0
000b8b 0000
000b8c 0000
000b8d 0000
000b8e 0000      	.DB  0x0,0x0,0x0,0x0,0x0,0x0,0x0,0x0
000b8f 0000
000b90 0000
000b91 0000
000b92 0000      	.DB  0x0,0x0,0x0,0x0,0x0,0x0,0x0,0x0
000b93 0000
000b94 0000
000b95 0000
000b96 0000      	.DB  0x0,0x0,0x0,0x0,0x0,0x0,0x0,0x0
000b97 0000
000b98 0000
000b99 0000
000b9a 0100      	.DB  0x0,0x0,0x0,0x0,0x0,0x0,0x0,0x1
000b9b 0703
000b9c 1f0f
000b9d 3e1f
000b9e fc7e      	.DB  0x3,0x7,0xF,0x1F,0x1F,0x3E,0x7E,0xFC
000b9f fcfc
000ba0 fcfc
000ba1 78f8
000ba2 0060      	.DB  0xFC,0xFC,0xFC,0xFC,0xF8,0x78,0x60,0x0
000ba3 0000
000ba4 0000
000ba5 0000
000ba6 0000      	.DB  0x0,0x0,0x0,0x0,0x0,0x0,0x0,0x0
000ba7 0101
000ba8 0101
000ba9 0101
000baa 0101      	.DB  0x1,0x1,0x1,0x1,0x1,0x1,0x1,0x1
000bab 0000
000bac 0000
000bad 0000
000bae 0000      	.DB  0x0,0x0,0x0,0x0,0x0,0x0,0x0,0x0
000baf 0000
000bb0 0000
000bb1 0000
000bb2 0000      	.DB  0x0,0x0,0x0,0x0,0x0,0x0,0x0,0x0
000bb3 0000
000bb4 0000
000bb5 0000
000bb6 0000      	.DB  0x0,0x0,0x0,0x0,0x0,0x0,0x0,0x0
000bb7 0000
000bb8 0000
000bb9 0000
000bba 0000      	.DB  0x0,0x0,0x0,0x0,0x0,0x0,0x0,0x0
000bbb 0000
000bbc 0000
000bbd 0000
000bbe 0000      	.DB  0x0,0x0,0x0,0x0,0x0,0x0,0x0,0x0
000bbf 0000
000bc0 0000
000bc1 0000
000bc2 0000      	.DB  0x0,0x0,0x0,0x0,0x0,0x0,0x0,0x0
000bc3 0000
000bc4 0000
000bc5 0000
000bc6 0000      	.DB  0x0,0x0,0x0,0x0,0x0,0x0,0x0,0x0
                 _dog3:
000bc7 0000
000bc8 0000
000bc9 0000
000bca 0000      	.DB  0x0,0x0,0x0,0x0,0x0,0x0,0x0,0x0
000bcb 0000
000bcc 0000
000bcd 0000
000bce 0000      	.DB  0x0,0x0,0x0,0x0,0x0,0x0,0x0,0x0
000bcf 0000
000bd0 0000
000bd1 0000
000bd2 0000      	.DB  0x0,0x0,0x0,0x0,0x0,0x0,0x0,0x0
000bd3 0000
000bd4 0000
000bd5 0000
000bd6 0000      	.DB  0x0,0x0,0x0,0x0,0x0,0x0,0x0,0x0
000bd7 0000
000bd8 0000
000bd9 0000
000bda 0000      	.DB  0x0,0x0,0x0,0x0,0x0,0x0,0x0,0x0
000bdb 0000
000bdc 0000
000bdd 0000
000bde 0000      	.DB  0x0,0x0,0x0,0x0,0x0,0x0,0x0,0x0
000bdf 0000
000be0 0000
000be1 0000
000be2 0000      	.DB  0x0,0x0,0x0,0x0,0x0,0x0,0x0,0x0
000be3 0000
000be4 0000
000be5 0000
000be6 0000      	.DB  0x0,0x0,0x0,0x0,0x0,0x0,0x0,0x0
000be7 0000
000be8 0000
000be9 0000
000bea 0000      	.DB  0x0,0x0,0x0,0x0,0x0,0x0,0x0,0x0
000beb 0000
000bec 0000
000bed 0000
000bee 0000      	.DB  0x0,0x0,0x0,0x0,0x0,0x0,0x0,0x0
000bef 0000
000bf0 0000
000bf1 0000
000bf2 0000      	.DB  0x0,0x0,0x0,0x0,0x0,0x0,0x0,0x0
000bf3 0000
000bf4 8080
000bf5 8080
000bf6 c080      	.DB  0x0,0x0,0x80,0x80,0x80,0x80,0x80,0xC0
000bf7 c0c0
000bf8 c0c0
000bf9 e0c0
000bfa e0e0      	.DB  0xC0,0xC0,0xC0,0xC0,0xC0,0xE0,0xE0,0xE0
000bfb e0e0
000bfc e0e0
000bfd 80c0
000bfe 0080      	.DB  0xE0,0xE0,0xE0,0xE0,0xC0,0x80,0x80,0x0
000bff 0000
000c00 0000
000c01 0000
000c02 0000      	.DB  0x0,0x0,0x0,0x0,0x0,0x0,0x0,0x0
000c03 0000
000c04 0000
000c05 0000
000c06 0000      	.DB  0x0,0x0,0x0,0x0,0x0,0x0,0x0,0x0
000c07 0000
000c08 0000
000c09 0000
000c0a 0000      	.DB  0x0,0x0,0x0,0x0,0x0,0x0,0x0,0x0
000c0b 0000
000c0c 0000
000c0d 0000
000c0e 0000      	.DB  0x0,0x0,0x0,0x0,0x0,0x0,0x0,0x0
000c0f 0000
000c10 0000
000c11 0000
000c12 0000      	.DB  0x0,0x0,0x0,0x0,0x0,0x0,0x0,0x0
000c13 0000
000c14 0000
000c15 0000
000c16 0000      	.DB  0x0,0x0,0x0,0x0,0x0,0x0,0x0,0x0
000c17 0000
000c18 0000
000c19 0000
000c1a 0000      	.DB  0x0,0x0,0x0,0x0,0x0,0x0,0x0,0x0
000c1b 0000
000c1c 0000
000c1d 0000
000c1e 0000      	.DB  0x0,0x0,0x0,0x0,0x0,0x0,0x0,0x0
000c1f 0000
000c20 0000
000c21 0000
000c22 0000      	.DB  0x0,0x0,0x0,0x0,0x0,0x0,0x0,0x0
000c23 0000
000c24 0000
000c25 0000
000c26 0000      	.DB  0x0,0x0,0x0,0x0,0x0,0x0,0x0,0x0
000c27 0000
000c28 0000
000c29 0000
000c2a 0000      	.DB  0x0,0x0,0x0,0x0,0x0,0x0,0x0,0x0
000c2b 8080
000c2c c080
000c2d c0c0
000c2e c0c0      	.DB  0x80,0x80,0x80,0xC0,0xC0,0xC0,0xC0,0xC0
000c2f c0c0
000c30 c0c0
000c31 c0c0
000c32 ccc8      	.DB  0xC0,0xC0,0xC0,0xC0,0xC0,0xC0,0xC8,0xCC
000c33 efce
000c34 ffef
000c35 ffff
000c36 ffff      	.DB  0xCE,0xEF,0xEF,0xFF,0xFF,0xFF,0xFF,0xFF
000c37 ffff
000c38 ffff
000c39 ffff
000c3a ffff      	.DB  0xFF,0xFF,0xFF,0xFF,0xFF,0xFF,0xFF,0xFF
000c3b ffff
000c3c ffff
000c3d ffff
000c3e ffff      	.DB  0xFF,0xFF,0xFF,0xFF,0xFF,0xFF,0xFF,0xFF
000c3f fcfe
000c40 fcfc
000c41 fcfc
000c42 fcfc      	.DB  0xFE,0xFC,0xFC,0xFC,0xFC,0xFC,0xFC,0xFC
000c43 1cfc
000c44 0000
000c45 0000
000c46 0000      	.DB  0xFC,0x1C,0x0,0x0,0x0,0x0,0x0,0x0
000c47 0000
000c48 0000
000c49 0000
000c4a 0000      	.DB  0x0,0x0,0x0,0x0,0x0,0x0,0x0,0x0
000c4b 0000
000c4c 0000
000c4d 0000
000c4e 0000      	.DB  0x0,0x0,0x0,0x0,0x0,0x0,0x0,0x0
000c4f 0000
000c50 0000
000c51 0000
000c52 0000      	.DB  0x0,0x0,0x0,0x0,0x0,0x0,0x0,0x0
000c53 0000
000c54 0000
000c55 0000
000c56 8080      	.DB  0x0,0x0,0x0,0x0,0x0,0x0,0x80,0x80
000c57 8080
000c58 8000
000c59 e0c0
000c5a f0f0      	.DB  0x80,0x80,0x0,0x80,0xC0,0xE0,0xF0,0xF0
000c5b f8f8
000c5c fcfc
000c5d fcfc
000c5e fefc      	.DB  0xF8,0xF8,0xFC,0xFC,0xFC,0xFC,0xFC,0xFE
000c5f fefe
000c60 fefe
000c61 fefe
000c62 fcfc      	.DB  0xFE,0xFE,0xFE,0xFE,0xFE,0xFE,0xFC,0xFC
000c63 fcfc
000c64 fcfc
000c65 fcfc
000c66 fcfc      	.DB  0xFC,0xFC,0xFC,0xFC,0xFC,0xFC,0xFC,0xFC
000c67 fcfc
000c68 fefe
000c69 fffe
000c6a ffff      	.DB  0xFC,0xFC,0xFE,0xFE,0xFE,0xFF,0xFF,0xFF
000c6b ffff
000c6c ffff
000c6d ffff
000c6e ffff      	.DB  0xFF,0xFF,0xFF,0xFF,0xFF,0xFF,0xFF,0xFF
000c6f ffff
000c70 ffff
000c71 ffff
000c72 ffff      	.DB  0xFF,0xFF,0xFF,0xFF,0xFF,0xFF,0xFF,0xFF
000c73 ffff
000c74 ffff
000c75 ffff
000c76 ffff      	.DB  0xFF,0xFF,0xFF,0xFF,0xFF,0xFF,0xFF,0xFF
000c77 ffff
000c78 7fff
000c79 3f3f
000c7a 0f1f      	.DB  0xFF,0xFF,0xFF,0x7F,0x3F,0x3F,0x1F,0xF
000c7b 0f0f
000c7c 1f0f
000c7d 1f1f
000c7e 1f1f      	.DB  0xF,0xF,0xF,0x1F,0x1F,0x1F,0x1F,0x1F
000c7f 0f1f
000c80 0f0f
000c81 070f
000c82 0307      	.DB  0x1F,0xF,0xF,0xF,0xF,0x7,0x7,0x3
000c83 0000
000c84 0000
000c85 0000
000c86 0000      	.DB  0x0,0x0,0x0,0x0,0x0,0x0,0x0,0x0
000c87 0000
000c88 0000
000c89 0000
000c8a 0000      	.DB  0x0,0x0,0x0,0x0,0x0,0x0,0x0,0x0
000c8b 0000
000c8c 0000
000c8d 0000
000c8e 8000      	.DB  0x0,0x0,0x0,0x0,0x0,0x0,0x0,0x80
000c8f e0c0
000c90 f0e0
000c91 fcf8
000c92 3e7c      	.DB  0xC0,0xE0,0xE0,0xF0,0xF8,0xFC,0x7C,0x3E
000c93 1f3e
000c94 0f1f
000c95 0f0f
000c96 0f0f      	.DB  0x3E,0x1F,0x1F,0xF,0xF,0xF,0xF,0xF
000c97 ff0f
000c98 ffff
000c99 ffff
000c9a ffff      	.DB  0xF,0xFF,0xFF,0xFF,0xFF,0xFF,0xFF,0xFF
000c9b ffff
000c9c ffff
000c9d ffff
000c9e ffff      	.DB  0xFF,0xFF,0xFF,0xFF,0xFF,0xFF,0xFF,0xFF
000c9f ffff
000ca0 ffff
000ca1 ffff
000ca2 ffff      	.DB  0xFF,0xFF,0xFF,0xFF,0xFF,0xFF,0xFF,0xFF
000ca3 ffff
000ca4 ffff
000ca5 ffff
000ca6 ffff      	.DB  0xFF,0xFF,0xFF,0xFF,0xFF,0xFF,0xFF,0xFF
000ca7 ffff
000ca8 ffff
000ca9 ffff
000caa ffff      	.DB  0xFF,0xFF,0xFF,0xFF,0xFF,0xFF,0xFF,0xFF
000cab ffff
000cac ffff
000cad ffff
000cae ffff      	.DB  0xFF,0xFF,0xFF,0xFF,0xFF,0xFF,0xFF,0xFF
000caf ffff
000cb0 ffff
000cb1 ffff
000cb2 ffff      	.DB  0xFF,0xFF,0xFF,0xFF,0xFF,0xFF,0xFF,0xFF
000cb3 ffff
000cb4 ffff
000cb5 cfff
000cb6 8787      	.DB  0xFF,0xFF,0xFF,0xFF,0xFF,0xCF,0x87,0x87
000cb7 8183
000cb8 8080
000cb9 8080
000cba 8080      	.DB  0x83,0x81,0x80,0x80,0x80,0x80,0x80,0x80
000cbb c080
000cbc c0c0
000cbd 80c0
000cbe 0080      	.DB  0x80,0xC0,0xC0,0xC0,0xC0,0x80,0x80,0x0
000cbf 0000
000cc0 0000
000cc1 0000
000cc2 0000      	.DB  0x0,0x0,0x0,0x0,0x0,0x0,0x0,0x0
000cc3 0000
000cc4 0000
000cc5 0000
000cc6 0000      	.DB  0x0,0x0,0x0,0x0,0x0,0x0,0x0,0x0
000cc7 0000
000cc8 0808
000cc9 1808
000cca 1818      	.DB  0x0,0x0,0x8,0x8,0x8,0x18,0x18,0x18
000ccb 1c1c
000ccc 1c1c
000ccd 1f1e
000cce 0f0f      	.DB  0x1C,0x1C,0x1C,0x1C,0x1E,0x1F,0xF,0xF
000ccf 0707
000cd0 0103
000cd1 0001
000cd2 0000      	.DB  0x7,0x7,0x3,0x1,0x1,0x0,0x0,0x0
000cd3 0000
000cd4 0000
000cd5 8080
000cd6 e0c0      	.DB  0x0,0x0,0x0,0x0,0x80,0x80,0xC0,0xE0
000cd7 f8f0
000cd8 ffff
000cd9 ffff
000cda ffff      	.DB  0xF0,0xF8,0xFF,0xFF,0xFF,0xFF,0xFF,0xFF
000cdb ffff
000cdc ffff
000cdd ffff
000cde ffff      	.DB  0xFF,0xFF,0xFF,0xFF,0xFF,0xFF,0xFF,0xFF
000cdf ffff
000ce0 ffff
000ce1 ffff
000ce2 ffff      	.DB  0xFF,0xFF,0xFF,0xFF,0xFF,0xFF,0xFF,0xFF
000ce3 0f0f
000ce4 1f0f
000ce5 3f1f
000ce6 3f3f      	.DB  0xF,0xF,0xF,0x1F,0x1F,0x3F,0x3F,0x3F
000ce7 7f3f
000ce8 7f7f
000ce9 7f7f
000cea ffff      	.DB  0x3F,0x7F,0x7F,0x7F,0x7F,0x7F,0xFF,0xFF
000ceb 7fff
000cec 7f7f
000ced 3f7f
000cee 1f3f      	.DB  0xFF,0x7F,0x7F,0x7F,0x7F,0x3F,0x3F,0x1F
000cef 3f1f
000cf0 ff7f
000cf1 ffff
000cf2 ffff      	.DB  0x1F,0x3F,0x7F,0xFF,0xFF,0xFF,0xFF,0xFF
000cf3 ffff
000cf4 ffff
000cf5 ffff
000cf6 ffff      	.DB  0xFF,0xFF,0xFF,0xFF,0xFF,0xFF,0xFF,0xFF
000cf7 ffff
000cf8 ffff
000cf9 ffff
000cfa dfdf      	.DB  0xFF,0xFF,0xFF,0xFF,0xFF,0xFF,0xDF,0xDF
000cfb 0f8f
000cfc 0f0f
000cfd 1f0f
000cfe 7f3f      	.DB  0x8F,0xF,0xF,0xF,0xF,0x1F,0x3F,0x7F
000cff fe7f
000d00 fcfe
000d01 f8fc
000d02 f0f0      	.DB  0x7F,0xFE,0xFE,0xFC,0xFC,0xF8,0xF0,0xF0
000d03 c0e0
000d04 0080
000d05 0000
000d06 0000      	.DB  0xE0,0xC0,0x80,0x0,0x0,0x0,0x0,0x0
000d07 0000
000d08 0000
000d09 0000
000d0a 0000      	.DB  0x0,0x0,0x0,0x0,0x0,0x0,0x0,0x0
000d0b 0000
000d0c 0000
000d0d 0000
000d0e 0000      	.DB  0x0,0x0,0x0,0x0,0x0,0x0,0x0,0x0
000d0f 0000
000d10 0000
000d11 8000
000d12 f8e0      	.DB  0x0,0x0,0x0,0x0,0x0,0x80,0xE0,0xF8
000d13 fcfc
000d14 fffe
000d15 7fff
000d16 3f7f      	.DB  0xFC,0xFC,0xFE,0xFF,0xFF,0x7F,0x7F,0x3F
000d17 1f3f
000d18 0f1f
000d19 070f
000d1a 0307      	.DB  0x3F,0x1F,0x1F,0xF,0xF,0x7,0x7,0x3
000d1b 0303
000d1c 0101
000d1d 0f03
000d1e ffff      	.DB  0x3,0x3,0x1,0x1,0x3,0xF,0xFF,0xFF
000d1f ffff
000d20 ffff
000d21 ffff
000d22 0f3f      	.DB  0xFF,0xFF,0xFF,0xFF,0xFF,0xFF,0x3F,0xF
000d23 0000
000d24 0000
000d25 0000
000d26 0000      	.DB  0x0,0x0,0x0,0x0,0x0,0x0,0x0,0x0
000d27 0000
000d28 0000
000d29 0000
000d2a 0000      	.DB  0x0,0x0,0x0,0x0,0x0,0x0,0x0,0x0
000d2b 0000
000d2c 0000
000d2d 0000
000d2e 0000      	.DB  0x0,0x0,0x0,0x0,0x0,0x0,0x0,0x0
000d2f 0000
000d30 0000
000d31 0000
000d32 0000      	.DB  0x0,0x0,0x0,0x0,0x0,0x0,0x0,0x0
000d33 0000
000d34 0000
000d35 0100
000d36 8101      	.DB  0x0,0x0,0x0,0x0,0x0,0x1,0x1,0x81
000d37 c1c1
000d38 c3c3
000d39 e7c3
000d3a ffff      	.DB  0xC1,0xC1,0xC3,0xC3,0xC3,0xE7,0xFF,0xFF
000d3b ffff
000d3c 38fe
000d3d 0000
000d3e 0000      	.DB  0xFF,0xFF,0xFE,0x38,0x0,0x0,0x0,0x0
000d3f 0000
000d40 0301
000d41 0303
000d42 0307      	.DB  0x0,0x0,0x1,0x3,0x3,0x3,0x7,0x3
000d43 0303
000d44 0000
000d45 0000
000d46 0000      	.DB  0x3,0x3,0x0,0x0,0x0,0x0,0x0,0x0
000d47 0000
000d48 0000
000d49 0000
000d4a 0000      	.DB  0x0,0x0,0x0,0x0,0x0,0x0,0x0,0x0
000d4b 0000
000d4c 0000
000d4d 0000
000d4e 0000      	.DB  0x0,0x0,0x0,0x0,0x0,0x0,0x0,0x0
000d4f e000
000d50 fcf8
000d51 fffe
000d52 1f7f      	.DB  0x0,0xE0,0xF8,0xFC,0xFE,0xFF,0x7F,0x1F
000d53 070f
000d54 0103
000d55 0000
000d56 0000      	.DB  0xF,0x7,0x3,0x1,0x0,0x0,0x0,0x0
000d57 0000
000d58 0000
000d59 0000
000d5a 0000      	.DB  0x0,0x0,0x0,0x0,0x0,0x0,0x0,0x0
000d5b 0000
000d5c 0000
000d5d ff3c
000d5e ffff      	.DB  0x0,0x0,0x0,0x0,0x3C,0xFF,0xFF,0xFF
000d5f ffff
000d60 ffff
000d61 80e3
000d62 0000      	.DB  0xFF,0xFF,0xFF,0xFF,0xE3,0x80,0x0,0x0
000d63 0000
000d64 0000
000d65 0000
000d66 0000      	.DB  0x0,0x0,0x0,0x0,0x0,0x0,0x0,0x0
000d67 0000
000d68 0000
000d69 0000
000d6a 0000      	.DB  0x0,0x0,0x0,0x0,0x0,0x0,0x0,0x0
000d6b 0000
000d6c 0000
000d6d 0000
000d6e 0000      	.DB  0x0,0x0,0x0,0x0,0x0,0x0,0x0,0x0
000d6f 0000
000d70 0000
000d71 0000
000d72 0000      	.DB  0x0,0x0,0x0,0x0,0x0,0x0,0x0,0x0
000d73 0000
000d74 0000
000d75 0000
000d76 0100      	.DB  0x0,0x0,0x0,0x0,0x0,0x0,0x0,0x1
000d77 0303
000d78 0707
000d79 0707
000d7a 0303      	.DB  0x3,0x3,0x7,0x7,0x7,0x7,0x3,0x3
000d7b 0101
000d7c 0000
000d7d 0000
000d7e 0000      	.DB  0x1,0x1,0x0,0x0,0x0,0x0,0x0,0x0
000d7f 0000
000d80 0000
000d81 0000
000d82 0000      	.DB  0x0,0x0,0x0,0x0,0x0,0x0,0x0,0x0
000d83 0000
000d84 0000
000d85 0000
000d86 0000      	.DB  0x0,0x0,0x0,0x0,0x0,0x0,0x0,0x0
000d87 0000
000d88 0000
000d89 0000
000d8a 0000      	.DB  0x0,0x0,0x0,0x0,0x0,0x0,0x0,0x0
000d8b 0000
000d8c 0000
000d8d 0000
000d8e 0000      	.DB  0x0,0x0,0x0,0x0,0x0,0x0,0x0,0x0
000d8f 1f00
000d90 3f3f
000d91 7f7f
000d92 7c7c      	.DB  0x0,0x1F,0x3F,0x3F,0x7F,0x7F,0x7C,0x7C
000d93 387c
000d94 0000
000d95 0000
000d96 0000      	.DB  0x7C,0x38,0x0,0x0,0x0,0x0,0x0,0x0
000d97 0000
000d98 0000
000d99 0000
000d9a 0000      	.DB  0x0,0x0,0x0,0x0,0x0,0x0,0x0,0x0
000d9b 0000
000d9c 0000
000d9d 0000
000d9e 0101      	.DB  0x0,0x0,0x0,0x0,0x0,0x0,0x1,0x1
000d9f 0703
000da0 0f07
000da1 3f1f
000da2 7e7f      	.DB  0x3,0x7,0x7,0xF,0x1F,0x3F,0x7F,0x7E
000da3 7c7c
000da4 7c7c
000da5 787c
000da6 0070      	.DB  0x7C,0x7C,0x7C,0x7C,0x7C,0x78,0x70,0x0
000da7 0000
000da8 0000
000da9 0000
000daa 0000      	.DB  0x0,0x0,0x0,0x0,0x0,0x0,0x0,0x0
000dab 0000
000dac 0000
000dad 0000
000dae 0000      	.DB  0x0,0x0,0x0,0x0,0x0,0x0,0x0,0x0
000daf 0000
000db0 0000
000db1 0000
000db2 0000      	.DB  0x0,0x0,0x0,0x0,0x0,0x0,0x0,0x0
000db3 0000
000db4 0000
000db5 0000
000db6 0000      	.DB  0x0,0x0,0x0,0x0,0x0,0x0,0x0,0x0
000db7 0000
000db8 0000
000db9 0000
000dba 0000      	.DB  0x0,0x0,0x0,0x0,0x0,0x0,0x0,0x0
000dbb 0000
000dbc 0000
000dbd 0000
000dbe 0000      	.DB  0x0,0x0,0x0,0x0,0x0,0x0,0x0,0x0
000dbf 0000
000dc0 0000
000dc1 0000
000dc2 0000      	.DB  0x0,0x0,0x0,0x0,0x0,0x0,0x0,0x0
000dc3 0000
000dc4 0000
000dc5 0000
000dc6 0000      	.DB  0x0,0x0,0x0,0x0,0x0,0x0,0x0,0x0
                 _dog4:
000dc7 0000
000dc8 0000
000dc9 0000
000dca 0000      	.DB  0x0,0x0,0x0,0x0,0x0,0x0,0x0,0x0
000dcb 0000
000dcc 0000
000dcd 0000
000dce 0000      	.DB  0x0,0x0,0x0,0x0,0x0,0x0,0x0,0x0
000dcf 0000
000dd0 0000
000dd1 0000
000dd2 0000      	.DB  0x0,0x0,0x0,0x0,0x0,0x0,0x0,0x0
000dd3 0000
000dd4 0000
000dd5 0000
000dd6 0000      	.DB  0x0,0x0,0x0,0x0,0x0,0x0,0x0,0x0
000dd7 0000
000dd8 0000
000dd9 0000
000dda 0000      	.DB  0x0,0x0,0x0,0x0,0x0,0x0,0x0,0x0
000ddb 0000
000ddc 0000
000ddd 0000
000dde 0000      	.DB  0x0,0x0,0x0,0x0,0x0,0x0,0x0,0x0
000ddf 0000
000de0 0000
000de1 0000
000de2 0000      	.DB  0x0,0x0,0x0,0x0,0x0,0x0,0x0,0x0
000de3 0000
000de4 0000
000de5 0000
000de6 0000      	.DB  0x0,0x0,0x0,0x0,0x0,0x0,0x0,0x0
000de7 0000
000de8 0000
000de9 0000
000dea 0000      	.DB  0x0,0x0,0x0,0x0,0x0,0x0,0x0,0x0
000deb 0000
000dec 0000
000ded 0000
000dee 0000      	.DB  0x0,0x0,0x0,0x0,0x0,0x0,0x0,0x0
000def 0000
000df0 0000
000df1 0000
000df2 0000      	.DB  0x0,0x0,0x0,0x0,0x0,0x0,0x0,0x0
000df3 0000
000df4 0000
000df5 0000
000df6 0000      	.DB  0x0,0x0,0x0,0x0,0x0,0x0,0x0,0x0
000df7 0000
000df8 0000
000df9 0000
000dfa 0000      	.DB  0x0,0x0,0x0,0x0,0x0,0x0,0x0,0x0
000dfb 0000
000dfc 0000
000dfd 0000
000dfe 0000      	.DB  0x0,0x0,0x0,0x0,0x0,0x0,0x0,0x0
000dff 0000
000e00 0000
000e01 0000
000e02 0000      	.DB  0x0,0x0,0x0,0x0,0x0,0x0,0x0,0x0
000e03 0000
000e04 0000
000e05 0000
000e06 0000      	.DB  0x0,0x0,0x0,0x0,0x0,0x0,0x0,0x0
000e07 0000
000e08 0000
000e09 0000
000e0a 0000      	.DB  0x0,0x0,0x0,0x0,0x0,0x0,0x0,0x0
000e0b 0000
000e0c 0000
000e0d 0000
000e0e 0000      	.DB  0x0,0x0,0x0,0x0,0x0,0x0,0x0,0x0
000e0f 0000
000e10 0000
000e11 0000
000e12 0000      	.DB  0x0,0x0,0x0,0x0,0x0,0x0,0x0,0x0
000e13 0000
000e14 0000
000e15 0000
000e16 0000      	.DB  0x0,0x0,0x0,0x0,0x0,0x0,0x0,0x0
000e17 0000
000e18 0000
000e19 0000
000e1a 0000      	.DB  0x0,0x0,0x0,0x0,0x0,0x0,0x0,0x0
000e1b 0000
000e1c 0000
000e1d 0000
000e1e 0000      	.DB  0x0,0x0,0x0,0x0,0x0,0x0,0x0,0x0
000e1f 0000
000e20 0000
000e21 0000
000e22 0000      	.DB  0x0,0x0,0x0,0x0,0x0,0x0,0x0,0x0
000e23 0000
000e24 0000
000e25 0000
000e26 0000      	.DB  0x0,0x0,0x0,0x0,0x0,0x0,0x0,0x0
000e27 0000
000e28 0000
000e29 8000
000e2a 8080      	.DB  0x0,0x0,0x0,0x0,0x0,0x80,0x80,0x80
000e2b c0c0
000e2c e0c0
000e2d e0e0
000e2e e0e0      	.DB  0xC0,0xC0,0xC0,0xE0,0xE0,0xE0,0xE0,0xE0
000e2f e0e0
000e30 e0e0
000e31 c0c0
000e32 c0c0      	.DB  0xE0,0xE0,0xE0,0xE0,0xC0,0xC0,0xC0,0xC0
000e33 ccc0
000e34 cece
000e35 dfdf
000e36 ffff      	.DB  0xC0,0xCC,0xCE,0xCE,0xDF,0xDF,0xFF,0xFF
000e37 ffff
000e38 ffff
000e39 fefe
000e3a fffe      	.DB  0xFF,0xFF,0xFF,0xFF,0xFE,0xFE,0xFE,0xFF
000e3b ffff
000e3c ffff
000e3d feff
000e3e fcfe      	.DB  0xFF,0xFF,0xFF,0xFF,0xFF,0xFE,0xFE,0xFC
000e3f f8f8
000e40 e0f0
000e41 c0e0
000e42 c0c0      	.DB  0xF8,0xF8,0xF0,0xE0,0xE0,0xC0,0xC0,0xC0
000e43 c0c0
000e44 80c0
000e45 0000
000e46 0000      	.DB  0xC0,0xC0,0xC0,0x80,0x0,0x0,0x0,0x0
000e47 0000
000e48 0000
000e49 0000
000e4a 8000      	.DB  0x0,0x0,0x0,0x0,0x0,0x0,0x0,0x80
000e4b e0c0
000e4c f0e0
000e4d 78f8
000e4e 3c78      	.DB  0xC0,0xE0,0xE0,0xF0,0xF8,0x78,0x78,0x3C
000e4f 3c3c
000e50 1e3e
000e51 1e1e
000e52 1f1f      	.DB  0x3C,0x3C,0x3E,0x1E,0x1E,0x1E,0x1F,0x1F
000e53 0f0f
000e54 1f1f
000e55 1f1f
000e56 3e3e      	.DB  0xF,0xF,0x1F,0x1F,0x1F,0x1F,0x3E,0x3E
000e57 7e3e
000e58 fcfc
000e59 fcfc
000e5a fcfc      	.DB  0x3E,0x7E,0xFC,0xFC,0xFC,0xFC,0xFC,0xFC
000e5b fefe
000e5c fefe
000e5d ffff
000e5e ffff      	.DB  0xFE,0xFE,0xFE,0xFE,0xFF,0xFF,0xFF,0xFF
000e5f ffff
000e60 feff
000e61 fefe
000e62 fefe      	.DB  0xFF,0xFF,0xFF,0xFE,0xFE,0xFE,0xFE,0xFE
000e63 fefe
000e64 fefe
000e65 fefe
000e66 fffe      	.DB  0xFE,0xFE,0xFE,0xFE,0xFE,0xFE,0xFE,0xFF
000e67 ffff
000e68 ffff
000e69 ffff
000e6a ffff      	.DB  0xFF,0xFF,0xFF,0xFF,0xFF,0xFF,0xFF,0xFF
000e6b ffff
000e6c ffff
000e6d ffff
000e6e ffff      	.DB  0xFF,0xFF,0xFF,0xFF,0xFF,0xFF,0xFF,0xFF
000e6f ffff
000e70 ffff
000e71 ffff
000e72 ffff      	.DB  0xFF,0xFF,0xFF,0xFF,0xFF,0xFF,0xFF,0xFF
000e73 ffff
000e74 ffff
000e75 ffff
000e76 ffff      	.DB  0xFF,0xFF,0xFF,0xFF,0xFF,0xFF,0xFF,0xFF
000e77 ffff
000e78 ffff
000e79 ffff
000e7a 7fff      	.DB  0xFF,0xFF,0xFF,0xFF,0xFF,0xFF,0xFF,0x7F
000e7b 3f7f
000e7c 7f3f
000e7d 7f7f
000e7e ff7f      	.DB  0x7F,0x3F,0x3F,0x7F,0x7F,0x7F,0x7F,0xFF
000e7f ffff
000e80 ffff
000e81 7fff
000e82 3f7f      	.DB  0xFF,0xFF,0xFF,0xFF,0xFF,0x7F,0x7F,0x3F
000e83 0f1f
000e84 0107
000e85 0000
000e86 0000      	.DB  0x1F,0xF,0x7,0x1,0x0,0x0,0x0,0x0
000e87 2000
000e88 1830
000e89 0e0c
000e8a 0707      	.DB  0x0,0x20,0x30,0x18,0xC,0xE,0x7,0x7
000e8b 0103
000e8c 0001
000e8d 0000
000e8e 0000      	.DB  0x3,0x1,0x1,0x0,0x0,0x0,0x0,0x0
000e8f 0000
000e90 0000
000e91 0000
000e92 0000      	.DB  0x0,0x0,0x0,0x0,0x0,0x0,0x0,0x0
000e93 0000
000e94 0000
000e95 c000
000e96 f8e0      	.DB  0x0,0x0,0x0,0x0,0x0,0xC0,0xE0,0xF8
000e97 fffc
000e98 ffff
000e99 ffff
000e9a ffff      	.DB  0xFC,0xFF,0xFF,0xFF,0xFF,0xFF,0xFF,0xFF
000e9b ffff
000e9c ffff
000e9d ffff
000e9e ffff      	.DB  0xFF,0xFF,0xFF,0xFF,0xFF,0xFF,0xFF,0xFF
000e9f ffff
000ea0 ffff
000ea1 ffff
000ea2 ffff      	.DB  0xFF,0xFF,0xFF,0xFF,0xFF,0xFF,0xFF,0xFF
000ea3 ffff
000ea4 ffff
000ea5 ffff
000ea6 ffff      	.DB  0xFF,0xFF,0xFF,0xFF,0xFF,0xFF,0xFF,0xFF
000ea7 ffff
000ea8 ffff
000ea9 ffff
000eaa ffff      	.DB  0xFF,0xFF,0xFF,0xFF,0xFF,0xFF,0xFF,0xFF
000eab ffff
000eac ffff
000ead ffff
000eae ffff      	.DB  0xFF,0xFF,0xFF,0xFF,0xFF,0xFF,0xFF,0xFF
000eaf ffff
000eb0 ffff
000eb1 ffff
000eb2 ffff      	.DB  0xFF,0xFF,0xFF,0xFF,0xFF,0xFF,0xFF,0xFF
000eb3 ffff
000eb4 ffff
000eb5 ffff
000eb6 ffff      	.DB  0xFF,0xFF,0xFF,0xFF,0xFF,0xFF,0xFF,0xFF
000eb7 c7cf
000eb8 c3c3
000eb9 c1c1
000eba c0c0      	.DB  0xCF,0xC7,0xC3,0xC3,0xC1,0xC1,0xC0,0xC0
000ebb c0c0
000ebc c0c0
000ebd c0c0
000ebe c0c0      	.DB  0xC0,0xC0,0xC0,0xC0,0xC0,0xC0,0xC0,0xC0
000ebf 8080
000ec0 0080
000ec1 0000
000ec2 0000      	.DB  0x80,0x80,0x80,0x0,0x0,0x0,0x0,0x0
000ec3 0000
000ec4 0000
000ec5 0000
000ec6 0000      	.DB  0x0,0x0,0x0,0x0,0x0,0x0,0x0,0x0
000ec7 0000
000ec8 0000
000ec9 0000
000eca 0000      	.DB  0x0,0x0,0x0,0x0,0x0,0x0,0x0,0x0
000ecb 0000
000ecc 0000
000ecd 0000
000ece c080      	.DB  0x0,0x0,0x0,0x0,0x0,0x0,0x80,0xC0
000ecf e0e0
000ed0 e0e0
000ed1 f0f0
000ed2 f8f0      	.DB  0xE0,0xE0,0xE0,0xE0,0xF0,0xF0,0xF0,0xF8
000ed3 f8f8
000ed4 fefc
000ed5 ffff
000ed6 ffff      	.DB  0xF8,0xF8,0xFC,0xFE,0xFF,0xFF,0xFF,0xFF
000ed7 ffff
000ed8 ffff
000ed9 ffff
000eda ffff      	.DB  0xFF,0xFF,0xFF,0xFF,0xFF,0xFF,0xFF,0xFF
000edb ffff
000edc ffff
000edd ffff
000ede 1f7f      	.DB  0xFF,0xFF,0xFF,0xFF,0xFF,0xFF,0x7F,0x1F
000edf 030f
000ee0 0101
000ee1 0101
000ee2 0101      	.DB  0xF,0x3,0x1,0x1,0x1,0x1,0x1,0x1
000ee3 0101
000ee4 0101
000ee5 0303
000ee6 0707      	.DB  0x1,0x1,0x1,0x1,0x3,0x3,0x7,0x7
000ee7 0f0f
000ee8 1f1f
000ee9 3f1f
000eea 3f3f      	.DB  0xF,0xF,0x1F,0x1F,0x1F,0x3F,0x3F,0x3F
000eeb 3f3f
000eec 3f3f
000eed 3f3f
000eee 1f1f      	.DB  0x3F,0x3F,0x3F,0x3F,0x3F,0x3F,0x1F,0x1F
000eef 1f1f
000ef0 0f1f
000ef1 0f0f
000ef2 0f07      	.DB  0x1F,0x1F,0x1F,0xF,0xF,0xF,0x7,0xF
000ef3 1f0f
000ef4 3f1f
000ef5 7f3f
000ef6 7f7f      	.DB  0xF,0x1F,0x1F,0x3F,0x3F,0x7F,0x7F,0x7F
000ef7 7f7f
000ef8 ffff
000ef9 ffff
000efa e3f7      	.DB  0x7F,0x7F,0xFF,0xFF,0xFF,0xFF,0xF7,0xE3
000efb c3e3
000efc 83c3
000efd 8783
000efe 0707      	.DB  0xE3,0xC3,0xC3,0x83,0x83,0x87,0x7,0x7
000eff 0f0f
000f00 1f0f
000f01 1f1f
000f02 9e1e      	.DB  0xF,0xF,0xF,0x1F,0x1F,0x1F,0x1E,0x9E
000f03 889c
000f04 0080
000f05 0000
000f06 0000      	.DB  0x9C,0x88,0x80,0x0,0x0,0x0,0x0,0x0
000f07 0000
000f08 f0e0
000f09 e0e0
000f0a e0e0      	.DB  0x0,0x0,0xE0,0xF0,0xE0,0xE0,0xE0,0xE0
000f0b f0f0
000f0c fcf8
000f0d fffe
000f0e 7fff      	.DB  0xF0,0xF0,0xF8,0xFC,0xFE,0xFF,0xFF,0x7F
000f0f 1f3f
000f10 070f
000f11 f3c3
000f12 fffb      	.DB  0x3F,0x1F,0xF,0x7,0xC3,0xF3,0xFB,0xFF
000f13 ffff
000f14 ffff
000f15 7f7f
000f16 7f7f      	.DB  0xFF,0xFF,0xFF,0xFF,0x7F,0x7F,0x7F,0x7F
000f17 3f7f
000f18 3f3f
000f19 1f1f
000f1a 0f1f      	.DB  0x7F,0x3F,0x3F,0x3F,0x1F,0x1F,0x1F,0xF
000f1b 070f
000f1c 0303
000f1d 0001
000f1e 0000      	.DB  0xF,0x7,0x3,0x3,0x1,0x0,0x0,0x0
000f1f 0000
000f20 0000
000f21 0000
000f22 0000      	.DB  0x0,0x0,0x0,0x0,0x0,0x0,0x0,0x0
000f23 0000
000f24 0000
000f25 0000
000f26 0000      	.DB  0x0,0x0,0x0,0x0,0x0,0x0,0x0,0x0
000f27 0000
000f28 0000
000f29 0000
000f2a 0000      	.DB  0x0,0x0,0x0,0x0,0x0,0x0,0x0,0x0
000f2b 0000
000f2c 0000
000f2d 0000
000f2e 0000      	.DB  0x0,0x0,0x0,0x0,0x0,0x0,0x0,0x0
000f2f 0000
000f30 0000
000f31 0000
000f32 0000      	.DB  0x0,0x0,0x0,0x0,0x0,0x0,0x0,0x0
000f33 0000
000f34 0000
000f35 0000
000f36 0000      	.DB  0x0,0x0,0x0,0x0,0x0,0x0,0x0,0x0
000f37 0000
000f38 0000
000f39 0100
000f3a 0301      	.DB  0x0,0x0,0x0,0x0,0x0,0x1,0x1,0x3
000f3b 0707
000f3c 0f0f
000f3d 0f0f
000f3e 0f0f      	.DB  0x7,0x7,0xF,0xF,0xF,0xF,0xF,0xF
000f3f 0f0f
000f40 0f0f
000f41 0f0f
000f42 0f0f      	.DB  0xF,0xF,0xF,0xF,0xF,0xF,0xF,0xF
000f43 0f0f
000f44 0707
000f45 0000
000f46 0000      	.DB  0xF,0xF,0x7,0x7,0x0,0x0,0x0,0x0
000f47 0000
000f48 0100
000f49 0703
000f4a 0707      	.DB  0x0,0x0,0x0,0x1,0x3,0x7,0x7,0x7
000f4b 0707
000f4c 0307
000f4d 0101
000f4e 0000      	.DB  0x7,0x7,0x7,0x3,0x1,0x1,0x0,0x0
000f4f f000
000f50 fefc
000f51 ffff
000f52 3fff      	.DB  0x0,0xF0,0xFC,0xFE,0xFF,0xFF,0xFF,0x3F
000f53 070f
000f54 0001
000f55 0000
000f56 0000      	.DB  0xF,0x7,0x1,0x0,0x0,0x0,0x0,0x0
000f57 0000
000f58 0000
000f59 0000
000f5a 0000      	.DB  0x0,0x0,0x0,0x0,0x0,0x0,0x0,0x0
000f5b 0000
000f5c 0000
000f5d 0000
000f5e 0000      	.DB  0x0,0x0,0x0,0x0,0x0,0x0,0x0,0x0
000f5f 0000
000f60 0000
000f61 0000
000f62 0000      	.DB  0x0,0x0,0x0,0x0,0x0,0x0,0x0,0x0
000f63 0000
000f64 0000
000f65 0000
000f66 0000      	.DB  0x0,0x0,0x0,0x0,0x0,0x0,0x0,0x0
000f67 0000
000f68 0000
000f69 0000
000f6a 0000      	.DB  0x0,0x0,0x0,0x0,0x0,0x0,0x0,0x0
000f6b 0000
000f6c 0000
000f6d 0000
000f6e 0000      	.DB  0x0,0x0,0x0,0x0,0x0,0x0,0x0,0x0
000f6f 0000
000f70 0000
000f71 0000
000f72 0000      	.DB  0x0,0x0,0x0,0x0,0x0,0x0,0x0,0x0
000f73 0000
000f74 0000
000f75 0000
000f76 0000      	.DB  0x0,0x0,0x0,0x0,0x0,0x0,0x0,0x0
000f77 0000
000f78 0000
000f79 0000
000f7a 0000      	.DB  0x0,0x0,0x0,0x0,0x0,0x0,0x0,0x0
000f7b 0000
000f7c 0000
000f7d 0000
000f7e 0000      	.DB  0x0,0x0,0x0,0x0,0x0,0x0,0x0,0x0
000f7f 0000
000f80 0000
000f81 0000
000f82 0000      	.DB  0x0,0x0,0x0,0x0,0x0,0x0,0x0,0x0
000f83 0000
000f84 0000
000f85 0000
000f86 0000      	.DB  0x0,0x0,0x0,0x0,0x0,0x0,0x0,0x0
000f87 0000
000f88 0000
000f89 0000
000f8a 0000      	.DB  0x0,0x0,0x0,0x0,0x0,0x0,0x0,0x0
000f8b 0000
000f8c 0000
000f8d 0000
000f8e 0000      	.DB  0x0,0x0,0x0,0x0,0x0,0x0,0x0,0x0
000f8f 0700
000f90 3f1f
000f91 7f3f
000f92 7e7f      	.DB  0x0,0x7,0x1F,0x3F,0x3F,0x7F,0x7F,0x7E
000f93 7c7c
000f94 0038
000f95 0000
000f96 0000      	.DB  0x7C,0x7C,0x38,0x0,0x0,0x0,0x0,0x0
000f97 0000
000f98 0000
000f99 0000
000f9a 0000      	.DB  0x0,0x0,0x0,0x0,0x0,0x0,0x0,0x0
000f9b 0000
000f9c 0000
000f9d 0000
000f9e 0000      	.DB  0x0,0x0,0x0,0x0,0x0,0x0,0x0,0x0
000f9f 0000
000fa0 0000
000fa1 0000
000fa2 0000      	.DB  0x0,0x0,0x0,0x0,0x0,0x0,0x0,0x0
000fa3 0000
000fa4 0000
000fa5 0000
000fa6 0000      	.DB  0x0,0x0,0x0,0x0,0x0,0x0,0x0,0x0
000fa7 0000
000fa8 0000
000fa9 0000
000faa 0000      	.DB  0x0,0x0,0x0,0x0,0x0,0x0,0x0,0x0
000fab 0000
000fac 0000
000fad 0000
000fae 0000      	.DB  0x0,0x0,0x0,0x0,0x0,0x0,0x0,0x0
000faf 0000
000fb0 0000
000fb1 0000
000fb2 0000      	.DB  0x0,0x0,0x0,0x0,0x0,0x0,0x0,0x0
000fb3 0000
000fb4 0000
000fb5 0000
000fb6 0000      	.DB  0x0,0x0,0x0,0x0,0x0,0x0,0x0,0x0
000fb7 0000
000fb8 0000
000fb9 0000
000fba 0000      	.DB  0x0,0x0,0x0,0x0,0x0,0x0,0x0,0x0
000fbb 0000
000fbc 0000
000fbd 0000
000fbe 0000      	.DB  0x0,0x0,0x0,0x0,0x0,0x0,0x0,0x0
000fbf 0000
000fc0 0000
000fc1 0000
000fc2 0000      	.DB  0x0,0x0,0x0,0x0,0x0,0x0,0x0,0x0
000fc3 0000
000fc4 0000
000fc5 0000
000fc6 0000      	.DB  0x0,0x0,0x0,0x0,0x0,0x0,0x0,0x0
                 _dog5:
000fc7 0000
000fc8 0000
000fc9 0000
000fca 0000      	.DB  0x0,0x0,0x0,0x0,0x0,0x0,0x0,0x0
000fcb 0000
000fcc 0000
000fcd 0000
000fce 8080      	.DB  0x0,0x0,0x0,0x0,0x0,0x0,0x80,0x80
000fcf 8080
000fd0 c0c0
000fd1 c0c0
000fd2 c0c0      	.DB  0x80,0x80,0xC0,0xC0,0xC0,0xC0,0xC0,0xC0
000fd3 c0c0
000fd4 c0c0
000fd5 c0c0
000fd6 c0c0      	.DB  0xC0,0xC0,0xC0,0xC0,0xC0,0xC0,0xC0,0xC0
000fd7 c0c0
000fd8 8080
000fd9 0080
000fda 0000      	.DB  0xC0,0xC0,0x80,0x80,0x80,0x0,0x0,0x0
000fdb 0000
000fdc 0000
000fdd 0000
000fde 0000      	.DB  0x0,0x0,0x0,0x0,0x0,0x0,0x0,0x0
000fdf 0000
000fe0 0000
000fe1 0000
000fe2 0000      	.DB  0x0,0x0,0x0,0x0,0x0,0x0,0x0,0x0
000fe3 0000
000fe4 0000
000fe5 0000
000fe6 0000      	.DB  0x0,0x0,0x0,0x0,0x0,0x0,0x0,0x0
000fe7 0000
000fe8 0000
000fe9 0000
000fea 0000      	.DB  0x0,0x0,0x0,0x0,0x0,0x0,0x0,0x0
000feb 0000
000fec 0000
000fed 0000
000fee 0000      	.DB  0x0,0x0,0x0,0x0,0x0,0x0,0x0,0x0
000fef 0000
000ff0 0000
000ff1 0000
000ff2 0000      	.DB  0x0,0x0,0x0,0x0,0x0,0x0,0x0,0x0
000ff3 0000
000ff4 0000
000ff5 0000
000ff6 0000      	.DB  0x0,0x0,0x0,0x0,0x0,0x0,0x0,0x0
000ff7 0000
000ff8 8080
000ff9 8080
000ffa 8080      	.DB  0x0,0x0,0x80,0x80,0x80,0x80,0x80,0x80
000ffb 0000
000ffc 0000
000ffd 0000
000ffe 0000      	.DB  0x0,0x0,0x0,0x0,0x0,0x0,0x0,0x0
000fff 0000
001000 0000
001001 0000
001002 0000      	.DB  0x0,0x0,0x0,0x0,0x0,0x0,0x0,0x0
001003 0000
001004 0000
001005 0000
001006 0000      	.DB  0x0,0x0,0x0,0x0,0x0,0x0,0x0,0x0
001007 0000
001008 0000
001009 0000
00100a 0000      	.DB  0x0,0x0,0x0,0x0,0x0,0x0,0x0,0x0
00100b 0200
00100c 0302
00100d 0101
00100e 0101      	.DB  0x0,0x2,0x2,0x3,0x1,0x1,0x1,0x1
00100f 0101
001010 0101
001011 0101
001012 0101      	.DB  0x1,0x1,0x1,0x1,0x1,0x1,0x1,0x1
001013 0101
001014 0301
001015 0303
001016 0707      	.DB  0x1,0x1,0x1,0x3,0x3,0x3,0x7,0x7
001017 0f07
001018 1f0f
001019 3f3f
00101a fe7f      	.DB  0x7,0xF,0xF,0x1F,0x3F,0x3F,0x7F,0xFE
00101b fcfc
00101c f0f8
00101d f8f0
00101e f8f8      	.DB  0xFC,0xFC,0xF8,0xF0,0xF0,0xF8,0xF8,0xF8
00101f fcf8
001020 fcfc
001021 fcfc
001022 fcfc      	.DB  0xF8,0xFC,0xFC,0xFC,0xFC,0xFC,0xFC,0xFC
001023 f8fc
001024 f8f8
001025 f8f8
001026 f0f0      	.DB  0xFC,0xF8,0xF8,0xF8,0xF8,0xF8,0xF0,0xF0
001027 f0f0
001028 e0f0
001029 e0e0
00102a e0e0      	.DB  0xF0,0xF0,0xF0,0xE0,0xE0,0xE0,0xE0,0xE0
00102b e0e0
00102c c0c0
00102d e0e0
00102e e0e0      	.DB  0xE0,0xE0,0xC0,0xC0,0xE0,0xE0,0xE0,0xE0
00102f e0e0
001030 e0e0
001031 f0e0
001032 e0f0      	.DB  0xE0,0xE0,0xE0,0xE0,0xE0,0xF0,0xF0,0xE0
001033 e0e0
001034 c0e0
001035 80c0
001036 8280      	.DB  0xE0,0xE0,0xE0,0xC0,0xC0,0x80,0x80,0x82
001037 8783
001038 8f87
001039 9f8f
00103a ffff      	.DB  0x83,0x87,0x87,0x8F,0x8F,0x9F,0xFF,0xFF
00103b ffff
00103c fcfe
00103d f8f8
00103e f8f0      	.DB  0xFF,0xFF,0xFE,0xFC,0xF8,0xF8,0xF0,0xF8
00103f f0f8
001040 f0f0
001041 e0e0
001042 80c0      	.DB  0xF8,0xF0,0xF0,0xF0,0xE0,0xE0,0xC0,0x80
001043 0000
001044 0000
001045 0000
001046 0000      	.DB  0x0,0x0,0x0,0x0,0x0,0x0,0x0,0x0
001047 0000
001048 0000
001049 0000
00104a 0000      	.DB  0x0,0x0,0x0,0x0,0x0,0x0,0x0,0x0
00104b 0000
00104c 0000
00104d 0000
00104e 0000      	.DB  0x0,0x0,0x0,0x0,0x0,0x0,0x0,0x0
00104f 0000
001050 0000
001051 0000
001052 0000      	.DB  0x0,0x0,0x0,0x0,0x0,0x0,0x0,0x0
001053 0000
001054 0000
001055 0000
001056 0000      	.DB  0x0,0x0,0x0,0x0,0x0,0x0,0x0,0x0
001057 0000
001058 0000
001059 c000
00105a fef8      	.DB  0x0,0x0,0x0,0x0,0x0,0xC0,0xF8,0xFE
00105b ffff
00105c ffff
00105d ffff
00105e ffff      	.DB  0xFF,0xFF,0xFF,0xFF,0xFF,0xFF,0xFF,0xFF
00105f ffff
001060 ffff
001061 ffff
001062 ffff      	.DB  0xFF,0xFF,0xFF,0xFF,0xFF,0xFF,0xFF,0xFF
001063 ffff
001064 ffff
001065 ffff
001066 ffff      	.DB  0xFF,0xFF,0xFF,0xFF,0xFF,0xFF,0xFF,0xFF
001067 ffff
001068 ffff
001069 ffff
00106a ffff      	.DB  0xFF,0xFF,0xFF,0xFF,0xFF,0xFF,0xFF,0xFF
00106b ffff
00106c ffff
00106d ffff
00106e ffff      	.DB  0xFF,0xFF,0xFF,0xFF,0xFF,0xFF,0xFF,0xFF
00106f ffff
001070 ffff
001071 ffff
001072 ffff      	.DB  0xFF,0xFF,0xFF,0xFF,0xFF,0xFF,0xFF,0xFF
001073 ffff
001074 ffff
001075 ffff
001076 ffff      	.DB  0xFF,0xFF,0xFF,0xFF,0xFF,0xFF,0xFF,0xFF
001077 ffff
001078 ffff
001079 ffff
00107a ffff      	.DB  0xFF,0xFF,0xFF,0xFF,0xFF,0xFF,0xFF,0xFF
00107b ffff
00107c ffff
00107d ffff
00107e ffff      	.DB  0xFF,0xFF,0xFF,0xFF,0xFF,0xFF,0xFF,0xFF
00107f ffff
001080 ffff
001081 ffff
001082 ffff      	.DB  0xFF,0xFF,0xFF,0xFF,0xFF,0xFF,0xFF,0xFF
001083 ffff
001084 fcfe
001085 7cfc
001086 1838      	.DB  0xFF,0xFF,0xFE,0xFC,0xFC,0x7C,0x38,0x18
001087 0000
001088 0000
001089 0000
00108a 0000      	.DB  0x0,0x0,0x0,0x0,0x0,0x0,0x0,0x0
00108b 0000
00108c 0000
00108d 0000
00108e 0000      	.DB  0x0,0x0,0x0,0x0,0x0,0x0,0x0,0x0
00108f 8080
001090 e0c0
001091 fcf0
001092 fefc      	.DB  0x80,0x80,0xC0,0xE0,0xF0,0xFC,0xFC,0xFE
001093 7e7e
001094 fefe
001095 fcfc
001096 f8f8      	.DB  0x7E,0x7E,0xFE,0xFE,0xFC,0xFC,0xF8,0xF8
001097 f0f0
001098 fcf8
001099 fffe
00109a ffff      	.DB  0xF0,0xF0,0xF8,0xFC,0xFE,0xFF,0xFF,0xFF
00109b ffff
00109c ffff
00109d ffff
00109e ffff      	.DB  0xFF,0xFF,0xFF,0xFF,0xFF,0xFF,0xFF,0xFF
00109f ffff
0010a0 ffff
0010a1 7fff
0010a2 3f7f      	.DB  0xFF,0xFF,0xFF,0xFF,0xFF,0x7F,0x7F,0x3F
0010a3 1f1f
0010a4 0f0f
0010a5 0f0f
0010a6 3f1f      	.DB  0x1F,0x1F,0xF,0xF,0xF,0xF,0x1F,0x3F
0010a7 ff7f
0010a8 ffff
0010a9 ffff
0010aa ffff      	.DB  0x7F,0xFF,0xFF,0xFF,0xFF,0xFF,0xFF,0xFF
0010ab ffff
0010ac ffff
0010ad ffff
0010ae ffff      	.DB  0xFF,0xFF,0xFF,0xFF,0xFF,0xFF,0xFF,0xFF
0010af ffff
0010b0 ffff
0010b1 ffff
0010b2 ffff      	.DB  0xFF,0xFF,0xFF,0xFF,0xFF,0xFF,0xFF,0xFF
0010b3 ffff
0010b4 ffff
0010b5 ffff
0010b6 ffff      	.DB  0xFF,0xFF,0xFF,0xFF,0xFF,0xFF,0xFF,0xFF
0010b7 7fff
0010b8 3f3f
0010b9 0f1f
0010ba 0f0f      	.DB  0xFF,0x7F,0x3F,0x3F,0x1F,0xF,0xF,0xF
0010bb 0707
0010bc 0307
0010bd 0303
0010be 0103      	.DB  0x7,0x7,0x7,0x3,0x3,0x3,0x3,0x1
0010bf 0101
0010c0 0303
0010c1 0303
0010c2 0303      	.DB  0x1,0x1,0x3,0x3,0x3,0x3,0x3,0x3
0010c3 0303
0010c4 0103
0010c5 0000
0010c6 0000      	.DB  0x3,0x3,0x3,0x1,0x0,0x0,0x0,0x0
0010c7 0000
0010c8 0000
0010c9 0000
0010ca 0000      	.DB  0x0,0x0,0x0,0x0,0x0,0x0,0x0,0x0
0010cb 0000
0010cc 0700
0010cd bf1f
0010ce ffff      	.DB  0x0,0x0,0x0,0x7,0x1F,0xBF,0xFF,0xFF
0010cf ffff
0010d0 ffff
0010d1 ffff
0010d2 7eff      	.DB  0xFF,0xFF,0xFF,0xFF,0xFF,0xFF,0xFF,0x7E
0010d3 7f7e
0010d4 3f3f
0010d5 3f3f
0010d6 3f3f      	.DB  0x7E,0x7F,0x3F,0x3F,0x3F,0x3F,0x3F,0x3F
0010d7 7f7f
0010d8 7f7f
0010d9 3f3f
0010da 1f3f      	.DB  0x7F,0x7F,0x7F,0x7F,0x3F,0x3F,0x3F,0x1F
0010db 0f0f
0010dc 0707
0010dd 0307
0010de 0303      	.DB  0xF,0xF,0x7,0x7,0x7,0x3,0x3,0x3
0010df 0103
0010e0 0001
0010e1 0000
0010e2 0000      	.DB  0x3,0x1,0x1,0x0,0x0,0x0,0x0,0x0
0010e3 0000
0010e4 0000
0010e5 0000
0010e6 0000      	.DB  0x0,0x0,0x0,0x0,0x0,0x0,0x0,0x0
0010e7 0000
0010e8 0301
0010e9 0703
0010ea 0f07      	.DB  0x0,0x0,0x1,0x3,0x3,0x7,0x7,0xF
0010eb 0f0f
0010ec 1f1f
0010ed 1f1f
0010ee 1f1f      	.DB  0xF,0xF,0x1F,0x1F,0x1F,0x1F,0x1F,0x1F
0010ef 1f1f
0010f0 1f1f
0010f1 1f1f
0010f2 ffff      	.DB  0x1F,0x1F,0x1F,0x1F,0x1F,0x1F,0xFF,0xFF
0010f3 ffff
0010f4 ffff
0010f5 ffff
0010f6 ffff      	.DB  0xFF,0xFF,0xFF,0xFF,0xFF,0xFF,0xFF,0xFF
0010f7 ffff
0010f8 f8fc
0010f9 f0f8
0010fa f0f0      	.DB  0xFF,0xFF,0xFC,0xF8,0xF8,0xF0,0xF0,0xF0
0010fb e0e0
0010fc c0c0
0010fd 8080
0010fe 0000      	.DB  0xE0,0xE0,0xC0,0xC0,0x80,0x80,0x0,0x0
0010ff 0000
001100 0000
001101 0000
001102 0000      	.DB  0x0,0x0,0x0,0x0,0x0,0x0,0x0,0x0
001103 0000
001104 0000
001105 0000
001106 0000      	.DB  0x0,0x0,0x0,0x0,0x0,0x0,0x0,0x0
001107 0000
001108 f070
001109 f8f8
00110a f8f8      	.DB  0x0,0x0,0x70,0xF0,0xF8,0xF8,0xF8,0xF8
00110b 7cfc
00110c 7e7e
00110d 1f3f
00110e 0f1f      	.DB  0xFC,0x7C,0x7E,0x7E,0x3F,0x1F,0x1F,0xF
00110f 0707
001110 0103
001111 0001
001112 0000      	.DB  0x7,0x7,0x3,0x1,0x1,0x0,0x0,0x0
001113 0000
001114 0000
001115 0000
001116 0000      	.DB  0x0,0x0,0x0,0x0,0x0,0x0,0x0,0x0
001117 0000
001118 0000
001119 0000
00111a 0000      	.DB  0x0,0x0,0x0,0x0,0x0,0x0,0x0,0x0
00111b 0000
00111c 0000
00111d 0000
00111e 0000      	.DB  0x0,0x0,0x0,0x0,0x0,0x0,0x0,0x0
00111f 0000
001120 0000
001121 0000
001122 0000      	.DB  0x0,0x0,0x0,0x0,0x0,0x0,0x0,0x0
001123 0000
001124 0000
001125 0000
001126 0000      	.DB  0x0,0x0,0x0,0x0,0x0,0x0,0x0,0x0
001127 0000
001128 0000
001129 0000
00112a 0000      	.DB  0x0,0x0,0x0,0x0,0x0,0x0,0x0,0x0
00112b 0000
00112c 0000
00112d 0000
00112e 0000      	.DB  0x0,0x0,0x0,0x0,0x0,0x0,0x0,0x0
00112f 0000
001130 0000
001131 0000
001132 1f0f      	.DB  0x0,0x0,0x0,0x0,0x0,0x0,0xF,0x1F
001133 ff7f
001134 ffff
001135 ffff
001136 f9ff      	.DB  0x7F,0xFF,0xFF,0xFF,0xFF,0xFF,0xFF,0xF9
001137 03c1
001138 0703
001139 0f07
00113a 0f0f      	.DB  0xC1,0x3,0x3,0x7,0x7,0xF,0xF,0xF
00113b 1f1f
00113c 3f1f
00113d 3f3f
00113e 7f3f      	.DB  0x1F,0x1F,0x1F,0x3F,0x3F,0x3F,0x3F,0x7F
00113f 7e7e
001140 7c7c
001141 f87c
001142 f8f8      	.DB  0x7E,0x7E,0x7C,0x7C,0x7C,0xF8,0xF8,0xF8
001143 fcfc
001144 fcfc
001145 7cfc
001146 183c      	.DB  0xFC,0xFC,0xFC,0xFC,0xFC,0x7C,0x3C,0x18
001147 0000
001148 0000
001149 0000
00114a 0000      	.DB  0x0,0x0,0x0,0x0,0x0,0x0,0x0,0x0
00114b 0000
00114c 0000
00114d 0000
00114e 0000      	.DB  0x0,0x0,0x0,0x0,0x0,0x0,0x0,0x0
00114f 0000
001150 0000
001151 0000
001152 0000      	.DB  0x0,0x0,0x0,0x0,0x0,0x0,0x0,0x0
001153 0000
001154 0000
001155 0000
001156 0000      	.DB  0x0,0x0,0x0,0x0,0x0,0x0,0x0,0x0
001157 0000
001158 0000
001159 0000
00115a 0000      	.DB  0x0,0x0,0x0,0x0,0x0,0x0,0x0,0x0
00115b 0000
00115c 0000
00115d 0000
00115e 0000      	.DB  0x0,0x0,0x0,0x0,0x0,0x0,0x0,0x0
00115f 0000
001160 0000
001161 0000
001162 0000      	.DB  0x0,0x0,0x0,0x0,0x0,0x0,0x0,0x0
001163 0000
001164 0000
001165 0000
001166 0000      	.DB  0x0,0x0,0x0,0x0,0x0,0x0,0x0,0x0
001167 0000
001168 0000
001169 0000
00116a 0000      	.DB  0x0,0x0,0x0,0x0,0x0,0x0,0x0,0x0
00116b 0000
00116c 0000
00116d 0000
00116e 0000      	.DB  0x0,0x0,0x0,0x0,0x0,0x0,0x0,0x0
00116f 0000
001170 0000
001171 0000
001172 0000      	.DB  0x0,0x0,0x0,0x0,0x0,0x0,0x0,0x0
001173 0000
001174 0701
001175 1f0f
001176 7f3f      	.DB  0x0,0x0,0x1,0x7,0xF,0x1F,0x3F,0x7F
001177 ffff
001178 fcfe
001179 e0f8
00117a 80c0      	.DB  0xFF,0xFF,0xFE,0xFC,0xF8,0xE0,0xC0,0x80
00117b 0000
00117c 0000
00117d 0000
00117e 0000      	.DB  0x0,0x0,0x0,0x0,0x0,0x0,0x0,0x0
00117f 0000
001180 0000
001181 0000
001182 0000      	.DB  0x0,0x0,0x0,0x0,0x0,0x0,0x0,0x0
001183 0000
001184 0000
001185 0000
001186 0000      	.DB  0x0,0x0,0x0,0x0,0x0,0x0,0x0,0x0
001187 0000
001188 0000
001189 0000
00118a 0000      	.DB  0x0,0x0,0x0,0x0,0x0,0x0,0x0,0x0
00118b 0000
00118c 0000
00118d 0000
00118e 0000      	.DB  0x0,0x0,0x0,0x0,0x0,0x0,0x0,0x0
00118f 0000
001190 0000
001191 0000
001192 0000      	.DB  0x0,0x0,0x0,0x0,0x0,0x0,0x0,0x0
001193 0000
001194 0000
001195 0000
001196 0000      	.DB  0x0,0x0,0x0,0x0,0x0,0x0,0x0,0x0
001197 0000
001198 0000
001199 0000
00119a 0000      	.DB  0x0,0x0,0x0,0x0,0x0,0x0,0x0,0x0
00119b 0000
00119c 0000
00119d 0000
00119e 0000      	.DB  0x0,0x0,0x0,0x0,0x0,0x0,0x0,0x0
00119f 0000
0011a0 0000
0011a1 0000
0011a2 0000      	.DB  0x0,0x0,0x0,0x0,0x0,0x0,0x0,0x0
0011a3 0000
0011a4 0000
0011a5 0000
0011a6 0000      	.DB  0x0,0x0,0x0,0x0,0x0,0x0,0x0,0x0
0011a7 0000
0011a8 0000
0011a9 0000
0011aa 0000      	.DB  0x0,0x0,0x0,0x0,0x0,0x0,0x0,0x0
0011ab 0000
0011ac 0000
0011ad 0000
0011ae 0000      	.DB  0x0,0x0,0x0,0x0,0x0,0x0,0x0,0x0
0011af 0000
0011b0 0000
0011b1 0000
0011b2 0000      	.DB  0x0,0x0,0x0,0x0,0x0,0x0,0x0,0x0
0011b3 0000
0011b4 0000
0011b5 0000
0011b6 0000      	.DB  0x0,0x0,0x0,0x0,0x0,0x0,0x0,0x0
0011b7 0301
0011b8 0f07
0011b9 1f1f
0011ba 7f3f      	.DB  0x1,0x3,0x7,0xF,0x1F,0x1F,0x3F,0x7F
0011bb 7e7f
0011bc 7c7c
0011bd 7c7c
0011be 3c7c      	.DB  0x7F,0x7E,0x7C,0x7C,0x7C,0x7C,0x7C,0x3C
0011bf 383c
0011c0 0000
0011c1 0000
0011c2 0000      	.DB  0x3C,0x38,0x0,0x0,0x0,0x0,0x0,0x0
0011c3 0000
0011c4 0000
0011c5 0000
0011c6 0000      	.DB  0x0,0x0,0x0,0x0,0x0,0x0,0x0,0x0
                 _dog6:
0011c7 0000
0011c8 0000
0011c9 0000
0011ca 0000      	.DB  0x0,0x0,0x0,0x0,0x0,0x0,0x0,0x0
0011cb 0000
0011cc 0000
0011cd 0000
0011ce 0808      	.DB  0x0,0x0,0x0,0x0,0x0,0x0,0x8,0x8
0011cf 0c0c
0011d0 0606
0011d1 0706
0011d2 0707      	.DB  0xC,0xC,0x6,0x6,0x6,0x7,0x7,0x7
0011d3 1f0f
0011d4 3e1e
0011d5 7c7e
0011d6 f8fc      	.DB  0xF,0x1F,0x1E,0x3E,0x7E,0x7C,0xFC,0xF8
0011d7 f0f8
0011d8 e0e0
0011d9 80c0
0011da 0000      	.DB  0xF8,0xF0,0xE0,0xE0,0xC0,0x80,0x0,0x0
0011db 0000
0011dc 0000
0011dd 0000
0011de 0000      	.DB  0x0,0x0,0x0,0x0,0x0,0x0,0x0,0x0
0011df 0000
0011e0 0000
0011e1 0000
0011e2 0000      	.DB  0x0,0x0,0x0,0x0,0x0,0x0,0x0,0x0
0011e3 0000
0011e4 0000
0011e5 0000
0011e6 0000      	.DB  0x0,0x0,0x0,0x0,0x0,0x0,0x0,0x0
0011e7 0000
0011e8 0000
0011e9 0000
0011ea 0000      	.DB  0x0,0x0,0x0,0x0,0x0,0x0,0x0,0x0
0011eb 0000
0011ec 0000
0011ed 0000
0011ee 0000      	.DB  0x0,0x0,0x0,0x0,0x0,0x0,0x0,0x0
0011ef 0000
0011f0 0000
0011f1 0000
0011f2 0000      	.DB  0x0,0x0,0x0,0x0,0x0,0x0,0x0,0x0
0011f3 0000
0011f4 0000
0011f5 0000
0011f6 0000      	.DB  0x0,0x0,0x0,0x0,0x0,0x0,0x0,0x0
0011f7 0000
0011f8 0000
0011f9 0000
0011fa 0000      	.DB  0x0,0x0,0x0,0x0,0x0,0x0,0x0,0x0
0011fb 0000
0011fc 0000
0011fd 0000
0011fe 0000      	.DB  0x0,0x0,0x0,0x0,0x0,0x0,0x0,0x0
0011ff 0000
001200 0000
001201 0000
001202 0000      	.DB  0x0,0x0,0x0,0x0,0x0,0x0,0x0,0x0
001203 0000
001204 0000
001205 0000
001206 0000      	.DB  0x0,0x0,0x0,0x0,0x0,0x0,0x0,0x0
001207 0000
001208 0000
001209 0000
00120a 0000      	.DB  0x0,0x0,0x0,0x0,0x0,0x0,0x0,0x0
00120b 0000
00120c 0000
00120d 0000
00120e 0000      	.DB  0x0,0x0,0x0,0x0,0x0,0x0,0x0,0x0
00120f 0000
001210 0000
001211 0000
001212 0000      	.DB  0x0,0x0,0x0,0x0,0x0,0x0,0x0,0x0
001213 0000
001214 0000
001215 0000
001216 0100      	.DB  0x0,0x0,0x0,0x0,0x0,0x0,0x0,0x1
001217 0303
001218 0f07
001219 1f0f
00121a 3f3f      	.DB  0x3,0x3,0x7,0xF,0xF,0x1F,0x3F,0x3F
00121b fc7e
00121c f8fc
00121d f8f8
00121e fcf8      	.DB  0x7E,0xFC,0xFC,0xF8,0xF8,0xF8,0xF8,0xFC
00121f fcfc
001220 fcfc
001221 fcfc
001222 fcfc      	.DB  0xFC,0xFC,0xFC,0xFC,0xFC,0xFC,0xFC,0xFC
001223 fcfc
001224 f8f8
001225 f0f8
001226 e0f0      	.DB  0xFC,0xFC,0xF8,0xF8,0xF8,0xF0,0xF0,0xE0
001227 c0e0
001228 80c0
001229 8080
00122a 0000      	.DB  0xE0,0xC0,0xC0,0x80,0x80,0x80,0x0,0x0
00122b 0000
00122c 0000
00122d 0000
00122e 0000      	.DB  0x0,0x0,0x0,0x0,0x0,0x0,0x0,0x0
00122f 0000
001230 0000
001231 0000
001232 0000      	.DB  0x0,0x0,0x0,0x0,0x0,0x0,0x0,0x0
001233 0000
001234 0000
001235 0000
001236 0000      	.DB  0x0,0x0,0x0,0x0,0x0,0x0,0x0,0x0
001237 7830
001238 f8f8
001239 f8f8
00123a e0f0      	.DB  0x30,0x78,0xF8,0xF8,0xF8,0xF8,0xF0,0xE0
00123b 80c0
00123c 0000
00123d 0000
00123e 0000      	.DB  0xC0,0x80,0x0,0x0,0x0,0x0,0x0,0x0
00123f 0000
001240 0000
001241 0000
001242 0000      	.DB  0x0,0x0,0x0,0x0,0x0,0x0,0x0,0x0
001243 0000
001244 0000
001245 0000
001246 0000      	.DB  0x0,0x0,0x0,0x0,0x0,0x0,0x0,0x0
001247 0000
001248 0000
001249 0000
00124a 0000      	.DB  0x0,0x0,0x0,0x0,0x0,0x0,0x0,0x0
00124b 0000
00124c 0000
00124d 0000
00124e 0000      	.DB  0x0,0x0,0x0,0x0,0x0,0x0,0x0,0x0
00124f 0000
001250 0000
001251 8000
001252 e0c0      	.DB  0x0,0x0,0x0,0x0,0x0,0x80,0xC0,0xE0
001253 f8f0
001254 f8f8
001255 f0f8
001256 c0f0      	.DB  0xF0,0xF8,0xF8,0xF8,0xF8,0xF0,0xF0,0xC0
001257 8080
001258 8080
001259 e080
00125a f8f0      	.DB  0x80,0x80,0x80,0x80,0x80,0xE0,0xF0,0xF8
00125b ffff
00125c ffff
00125d ffff
00125e ffff      	.DB  0xFF,0xFF,0xFF,0xFF,0xFF,0xFF,0xFF,0xFF
00125f ffff
001260 ffff
001261 ffff
001262 ffff      	.DB  0xFF,0xFF,0xFF,0xFF,0xFF,0xFF,0xFF,0xFF
001263 ffff
001264 ffff
001265 ffff
001266 ffff      	.DB  0xFF,0xFF,0xFF,0xFF,0xFF,0xFF,0xFF,0xFF
001267 ffff
001268 ffff
001269 ffff
00126a ffff      	.DB  0xFF,0xFF,0xFF,0xFF,0xFF,0xFF,0xFF,0xFF
00126b fefe
00126c fefe
00126d fefe
00126e fcfe      	.DB  0xFE,0xFE,0xFE,0xFE,0xFE,0xFE,0xFE,0xFC
00126f fcfc
001270 fcfc
001271 fcfc
001272 fcfc      	.DB  0xFC,0xFC,0xFC,0xFC,0xFC,0xFC,0xFC,0xFC
001273 f8f8
001274 f0f8
001275 e0e0
001276 e0e0      	.DB  0xF8,0xF8,0xF8,0xF0,0xE0,0xE0,0xE0,0xE0
001277 e0e0
001278 e3e0
001279 ffff
00127a ffff      	.DB  0xE0,0xE0,0xE0,0xE3,0xFF,0xFF,0xFF,0xFF
00127b ffff
00127c fefe
00127d fefe
00127e fefe      	.DB  0xFF,0xFF,0xFE,0xFE,0xFE,0xFE,0xFE,0xFE
00127f fcfe
001280 f0f8
001281 c0e0
001282 0080      	.DB  0xFE,0xFC,0xF8,0xF0,0xE0,0xC0,0x80,0x0
001283 0000
001284 0000
001285 0000
001286 0000      	.DB  0x0,0x0,0x0,0x0,0x0,0x0,0x0,0x0
001287 0000
001288 0000
001289 0000
00128a e000      	.DB  0x0,0x0,0x0,0x0,0x0,0x0,0x0,0xE0
00128b e0e0
00128c f0f0
00128d f0f0
00128e f8f8      	.DB  0xE0,0xE0,0xF0,0xF0,0xF0,0xF0,0xF8,0xF8
00128f fcfc
001290 7ffe
001291 3f7f
001292 0f1f      	.DB  0xFC,0xFC,0xFE,0x7F,0x7F,0x3F,0x1F,0xF
001293 070f
001294 0707
001295 8f87
001296 ffcf      	.DB  0xF,0x7,0x7,0x7,0x87,0x8F,0xCF,0xFF
001297 ffff
001298 ffff
001299 ffff
00129a ffff      	.DB  0xFF,0xFF,0xFF,0xFF,0xFF,0xFF,0xFF,0xFF
00129b ffff
00129c ffff
00129d ffff
00129e ffff      	.DB  0xFF,0xFF,0xFF,0xFF,0xFF,0xFF,0xFF,0xFF
00129f ffff
0012a0 ffff
0012a1 ffff
0012a2 ffff      	.DB  0xFF,0xFF,0xFF,0xFF,0xFF,0xFF,0xFF,0xFF
0012a3 ffff
0012a4 7fff
0012a5 7f3f
0012a6 ffff      	.DB  0xFF,0xFF,0xFF,0x7F,0x3F,0x7F,0xFF,0xFF
0012a7 ffff
0012a8 ffff
0012a9 ffff
0012aa ffff      	.DB  0xFF,0xFF,0xFF,0xFF,0xFF,0xFF,0xFF,0xFF
0012ab ffff
0012ac ffff
0012ad ffff
0012ae ffff      	.DB  0xFF,0xFF,0xFF,0xFF,0xFF,0xFF,0xFF,0xFF
0012af ffff
0012b0 ffff
0012b1 ffff
0012b2 ffff      	.DB  0xFF,0xFF,0xFF,0xFF,0xFF,0xFF,0xFF,0xFF
0012b3 ffff
0012b4 ffff
0012b5 ffff
0012b6 ffff      	.DB  0xFF,0xFF,0xFF,0xFF,0xFF,0xFF,0xFF,0xFF
0012b7 ffff
0012b8 ffff
0012b9 ffff
0012ba ffff      	.DB  0xFF,0xFF,0xFF,0xFF,0xFF,0xFF,0xFF,0xFF
0012bb ffff
0012bc ffff
0012bd ffff
0012be ffff      	.DB  0xFF,0xFF,0xFF,0xFF,0xFF,0xFF,0xFF,0xFF
0012bf ffff
0012c0 ffff
0012c1 ffff
0012c2 ffff      	.DB  0xFF,0xFF,0xFF,0xFF,0xFF,0xFF,0xFF,0xFF
0012c3 feff
0012c4 7efe
0012c5 0c3c
0012c6 0000      	.DB  0xFF,0xFE,0xFE,0x7E,0x3C,0xC,0x0,0x0
0012c7 0000
0012c8 0000
0012c9 0000
0012ca 0000      	.DB  0x0,0x0,0x0,0x0,0x0,0x0,0x0,0x0
0012cb 0101
0012cc 0303
0012cd 0303
0012ce 0303      	.DB  0x1,0x1,0x3,0x3,0x3,0x3,0x3,0x3
0012cf 0103
0012d0 0000
0012d1 3e1c
0012d2 3e3e      	.DB  0x3,0x1,0x0,0x0,0x1C,0x3E,0x3E,0x3E
0012d3 3f3e
0012d4 1f3f
0012d5 1f1f
0012d6 0f1f      	.DB  0x3E,0x3F,0x3F,0x1F,0x1F,0x1F,0x1F,0xF
0012d7 0f0f
0012d8 0307
0012d9 0303
0012da 0303      	.DB  0xF,0xF,0x7,0x3,0x3,0x3,0x3,0x3
0012db 0303
0012dc 0303
0012dd 0303
0012de 0103      	.DB  0x3,0x3,0x3,0x3,0x3,0x3,0x3,0x1
0012df 0303
0012e0 0303
0012e1 0103
0012e2 0101      	.DB  0x3,0x3,0x3,0x3,0x3,0x1,0x1,0x1
0012e3 0001
0012e4 0000
0012e5 0000
0012e6 0301      	.DB  0x1,0x0,0x0,0x0,0x0,0x0,0x1,0x3
0012e7 0f07
0012e8 1f0f
0012e9 bf1f
0012ea ffff      	.DB  0x7,0xF,0xF,0x1F,0x1F,0xBF,0xFF,0xFF
0012eb ffff
0012ec ffff
0012ed ffff
0012ee ffff      	.DB  0xFF,0xFF,0xFF,0xFF,0xFF,0xFF,0xFF,0xFF
0012ef ffff
0012f0 ffff
0012f1 ffff
0012f2 ffff      	.DB  0xFF,0xFF,0xFF,0xFF,0xFF,0xFF,0xFF,0xFF
0012f3 ffff
0012f4 ffff
0012f5 9fff
0012f6 0f1f      	.DB  0xFF,0xFF,0xFF,0xFF,0xFF,0x9F,0x1F,0xF
0012f7 070f
0012f8 0307
0012f9 0303
0012fa 0101      	.DB  0xF,0x7,0x7,0x3,0x3,0x3,0x1,0x1
0012fb 0101
0012fc 0000
0012fd 0000
0012fe 0101      	.DB  0x1,0x1,0x0,0x0,0x0,0x0,0x1,0x1
0012ff 0303
001300 0303
001301 0303
001302 0303      	.DB  0x3,0x3,0x3,0x3,0x3,0x3,0x3,0x3
001303 0101
001304 0000
001305 0000
001306 0000      	.DB  0x1,0x1,0x0,0x0,0x0,0x0,0x0,0x0
001307 0000
001308 0000
001309 0000
00130a 0000      	.DB  0x0,0x0,0x0,0x0,0x0,0x0,0x0,0x0
00130b 0000
00130c 0000
00130d 0000
00130e 0000      	.DB  0x0,0x0,0x0,0x0,0x0,0x0,0x0,0x0
00130f 0000
001310 0000
001311 0000
001312 0000      	.DB  0x0,0x0,0x0,0x0,0x0,0x0,0x0,0x0
001313 0000
001314 0000
001315 0000
001316 0000      	.DB  0x0,0x0,0x0,0x0,0x0,0x0,0x0,0x0
001317 0000
001318 0000
001319 0000
00131a 0000      	.DB  0x0,0x0,0x0,0x0,0x0,0x0,0x0,0x0
00131b 0000
00131c 0000
00131d 0000
00131e 0000      	.DB  0x0,0x0,0x0,0x0,0x0,0x0,0x0,0x0
00131f 0000
001320 0000
001321 0000
001322 0000      	.DB  0x0,0x0,0x0,0x0,0x0,0x0,0x0,0x0
001323 0000
001324 0000
001325 0000
001326 0000      	.DB  0x0,0x0,0x0,0x0,0x0,0x0,0x0,0x0
001327 c000
001328 fcf0
001329 ffff
00132a ffff      	.DB  0x0,0xC0,0xF0,0xFC,0xFF,0xFF,0xFF,0xFF
00132b 7fff
00132c 1f3f
00132d 070f
00132e 0103      	.DB  0xFF,0x7F,0x3F,0x1F,0xF,0x7,0x3,0x1
00132f 0101
001330 0301
001331 0f0f
001332 3f1f      	.DB  0x1,0x1,0x1,0x3,0xF,0xF,0x1F,0x3F
001333 7f3f
001334 ff7f
001335 ffff
001336 feff      	.DB  0x3F,0x7F,0x7F,0xFF,0xFF,0xFF,0xFF,0xFE
001337 f8fc
001338 e0f0
001339 80c0
00133a 0000      	.DB  0xFC,0xF8,0xF0,0xE0,0xC0,0x80,0x0,0x0
00133b 0000
00133c 0000
00133d 0000
00133e 0000      	.DB  0x0,0x0,0x0,0x0,0x0,0x0,0x0,0x0
00133f 0000
001340 0000
001341 0000
001342 0000      	.DB  0x0,0x0,0x0,0x0,0x0,0x0,0x0,0x0
001343 0000
001344 0000
001345 0000
001346 0000      	.DB  0x0,0x0,0x0,0x0,0x0,0x0,0x0,0x0
001347 0000
001348 0000
001349 0000
00134a 0000      	.DB  0x0,0x0,0x0,0x0,0x0,0x0,0x0,0x0
00134b 0000
00134c 0000
00134d 0000
00134e 0000      	.DB  0x0,0x0,0x0,0x0,0x0,0x0,0x0,0x0
00134f 0000
001350 0000
001351 0000
001352 0000      	.DB  0x0,0x0,0x0,0x0,0x0,0x0,0x0,0x0
001353 0000
001354 0000
001355 0000
001356 0000      	.DB  0x0,0x0,0x0,0x0,0x0,0x0,0x0,0x0
001357 0000
001358 0000
001359 0000
00135a 0000      	.DB  0x0,0x0,0x0,0x0,0x0,0x0,0x0,0x0
00135b 0000
00135c 0000
00135d 0000
00135e 0000      	.DB  0x0,0x0,0x0,0x0,0x0,0x0,0x0,0x0
00135f 0000
001360 0000
001361 0000
001362 0000      	.DB  0x0,0x0,0x0,0x0,0x0,0x0,0x0,0x0
001363 0000
001364 0000
001365 0000
001366 fce0      	.DB  0x0,0x0,0x0,0x0,0x0,0x0,0xE0,0xFC
001367 ffff
001368 3fff
001369 071f
00136a 0103      	.DB  0xFF,0xFF,0xFF,0x3F,0x1F,0x7,0x3,0x1
00136b 0000
00136c 0000
00136d 0000
00136e 0000      	.DB  0x0,0x0,0x0,0x0,0x0,0x0,0x0,0x0
00136f 0000
001370 0000
001371 0000
001372 0000      	.DB  0x0,0x0,0x0,0x0,0x0,0x0,0x0,0x0
001373 0000
001374 0000
001375 0100
001376 0301      	.DB  0x0,0x0,0x0,0x0,0x0,0x1,0x1,0x3
001377 0703
001378 1f0f
001379 3f1f
00137a 7e7f      	.DB  0x3,0x7,0xF,0x1F,0x1F,0x3F,0x7F,0x7E
00137b f8fc
00137c f0f8
00137d e0f0
00137e e0e0      	.DB  0xFC,0xF8,0xF8,0xF0,0xF0,0xE0,0xE0,0xE0
00137f e0e0
001380 c0e0
001381 0080
001382 0000      	.DB  0xE0,0xE0,0xE0,0xC0,0x80,0x0,0x0,0x0
001383 0000
001384 0000
001385 0000
001386 0000      	.DB  0x0,0x0,0x0,0x0,0x0,0x0,0x0,0x0
001387 0000
001388 0000
001389 0000
00138a 0000      	.DB  0x0,0x0,0x0,0x0,0x0,0x0,0x0,0x0
00138b 0000
00138c 0000
00138d 0000
00138e 0000      	.DB  0x0,0x0,0x0,0x0,0x0,0x0,0x0,0x0
00138f 0000
001390 0000
001391 0000
001392 0000      	.DB  0x0,0x0,0x0,0x0,0x0,0x0,0x0,0x0
001393 0000
001394 0000
001395 0000
001396 0000      	.DB  0x0,0x0,0x0,0x0,0x0,0x0,0x0,0x0
001397 0000
001398 0000
001399 0000
00139a 0000      	.DB  0x0,0x0,0x0,0x0,0x0,0x0,0x0,0x0
00139b 0000
00139c 0000
00139d 0000
00139e 0000      	.DB  0x0,0x0,0x0,0x0,0x0,0x0,0x0,0x0
00139f 0000
0013a0 0000
0013a1 0000
0013a2 0000      	.DB  0x0,0x0,0x0,0x0,0x0,0x0,0x0,0x0
0013a3 0000
0013a4 0000
0013a5 0000
0013a6 3f1f      	.DB  0x0,0x0,0x0,0x0,0x0,0x0,0x1F,0x3F
0013a7 7f3f
0013a8 7f7f
0013a9 7c7e
0013aa 0030      	.DB  0x3F,0x7F,0x7F,0x7F,0x7E,0x7C,0x30,0x0
0013ab 0000
0013ac 0000
0013ad 0000
0013ae 0000      	.DB  0x0,0x0,0x0,0x0,0x0,0x0,0x0,0x0
0013af 0000
0013b0 0000
0013b1 0000
0013b2 0000      	.DB  0x0,0x0,0x0,0x0,0x0,0x0,0x0,0x0
0013b3 0000
0013b4 0000
0013b5 0000
0013b6 0000      	.DB  0x0,0x0,0x0,0x0,0x0,0x0,0x0,0x0
0013b7 0000
0013b8 0000
0013b9 0000
0013ba 0000      	.DB  0x0,0x0,0x0,0x0,0x0,0x0,0x0,0x0
0013bb 0100
0013bc 0101
0013bd 0303
0013be 0303      	.DB  0x0,0x1,0x1,0x1,0x3,0x3,0x3,0x3
0013bf 0303
0013c0 0303
0013c1 0003
0013c2 0000      	.DB  0x3,0x3,0x3,0x3,0x3,0x0,0x0,0x0
0013c3 0000
0013c4 0000
0013c5 0000
0013c6 0000      	.DB  0x0,0x0,0x0,0x0,0x0,0x0,0x0,0x0
                 _mishaniya:
0013c7 0000
0013c8 0000
0013c9 0000
0013ca 0000      	.DB  0x0,0x0,0x0,0x0,0x0,0x0,0x0,0x0
0013cb 0000
0013cc 0000
0013cd 0000
0013ce 0000      	.DB  0x0,0x0,0x0,0x0,0x0,0x0,0x0,0x0
0013cf 0000
0013d0 0000
0013d1 0000
0013d2 0000      	.DB  0x0,0x0,0x0,0x0,0x0,0x0,0x0,0x0
0013d3 0000
0013d4 0000
0013d5 0000
0013d6 8000      	.DB  0x0,0x0,0x0,0x0,0x0,0x0,0x0,0x80
0013d7 8080
0013d8 8080
0013d9 0000
0013da 8080      	.DB  0x80,0x80,0x80,0x80,0x0,0x0,0x80,0x80
0013db 8000
0013dc 0000
0013dd 0000
0013de 0000      	.DB  0x0,0x80,0x0,0x0,0x0,0x0,0x0,0x0
0013df 0000
0013e0 0000
0013e1 8000
0013e2 0080      	.DB  0x0,0x0,0x0,0x0,0x0,0x80,0x80,0x0
0013e3 0000
0013e4 0000
0013e5 0000
0013e6 0000      	.DB  0x0,0x0,0x0,0x0,0x0,0x0,0x0,0x0
0013e7 0000
0013e8 0000
0013e9 0000
0013ea 0000      	.DB  0x0,0x0,0x0,0x0,0x0,0x0,0x0,0x0
0013eb 0000
0013ec 0000
0013ed 0000
0013ee 0000      	.DB  0x0,0x0,0x0,0x0,0x0,0x0,0x0,0x0
0013ef 0000
0013f0 0000
0013f1 0000
0013f2 0000      	.DB  0x0,0x0,0x0,0x0,0x0,0x0,0x0,0x0
0013f3 0000
0013f4 0000
0013f5 0000
0013f6 0000      	.DB  0x0,0x0,0x0,0x0,0x0,0x0,0x0,0x0
0013f7 0000
0013f8 0000
0013f9 0000
0013fa 0000      	.DB  0x0,0x0,0x0,0x0,0x0,0x0,0x0,0x0
0013fb 0000
0013fc 0000
0013fd 0000
0013fe 0000      	.DB  0x0,0x0,0x0,0x0,0x0,0x0,0x0,0x0
0013ff 0000
001400 0000
001401 0000
001402 0000      	.DB  0x0,0x0,0x0,0x0,0x0,0x0,0x0,0x0
001403 0000
001404 0000
001405 0000
001406 0000      	.DB  0x0,0x0,0x0,0x0,0x0,0x0,0x0,0x0
001407 0000
001408 0000
001409 0000
00140a 0000      	.DB  0x0,0x0,0x0,0x0,0x0,0x0,0x0,0x0
00140b 0000
00140c 0000
00140d 0000
00140e 0000      	.DB  0x0,0x0,0x0,0x0,0x0,0x0,0x0,0x0
00140f 0000
001410 0000
001411 0000
001412 f0c0      	.DB  0x0,0x0,0x0,0x0,0x0,0x0,0xC0,0xF0
001413 fcf8
001414 fefc
001415 ffff
001416 ffff      	.DB  0xF8,0xFC,0xFC,0xFE,0xFF,0xFF,0xFF,0xFF
001417 ffff
001418 7fff
001419 ff7f
00141a ffff      	.DB  0xFF,0xFF,0xFF,0x7F,0x7F,0xFF,0xFF,0xFF
00141b ffff
00141c ffff
00141d feff
00141e fcfe      	.DB  0xFF,0xFF,0xFF,0xFF,0xFF,0xFE,0xFE,0xFC
00141f fcfc
001420 f0f8
001421 c1e0
001422 0081      	.DB  0xFC,0xFC,0xF8,0xF0,0xE0,0xC1,0x81,0x0
001423 0000
001424 0000
001425 0000
001426 0000      	.DB  0x0,0x0,0x0,0x0,0x0,0x0,0x0,0x0
001427 0000
001428 0000
001429 0000
00142a 0000      	.DB  0x0,0x0,0x0,0x0,0x0,0x0,0x0,0x0
00142b 0000
00142c 0000
00142d 0000
00142e 7f00      	.DB  0x0,0x0,0x0,0x0,0x0,0x0,0x0,0x7F
00142f 3806
001430 1860
001431 7f06
001432 0000      	.DB  0x6,0x38,0x60,0x18,0x6,0x7F,0x0,0x0
001433 307f
001434 020c
001435 007f
001436 7f00      	.DB  0x7F,0x30,0xC,0x2,0x7F,0x0,0x0,0x7F
001437 4040
001438 407f
001439 7f40
00143a 0000      	.DB  0x40,0x40,0x7F,0x40,0x40,0x7F,0x0,0x0
00143b 1c60
00143c 1713
00143d 4038
00143e 7f00      	.DB  0x60,0x1C,0x13,0x17,0x38,0x40,0x0,0x7F
00143f 0808
001440 7f08
001441 4600
001442 0939      	.DB  0x8,0x8,0x8,0x7F,0x0,0x46,0x39,0x9
001443 7f09
001444 0000
001445 0000
001446 0000      	.DB  0x9,0x7F,0x0,0x0,0x0,0x0,0x0,0x0
001447 0000
001448 0000
001449 0000
00144a 0000      	.DB  0x0,0x0,0x0,0x0,0x0,0x0,0x0,0x0
00144b 0000
00144c 0000
00144d 0000
00144e 0000      	.DB  0x0,0x0,0x0,0x0,0x0,0x0,0x0,0x0
00144f 0000
001450 c000
001451 fffc
001452 3fff      	.DB  0x0,0x0,0x0,0xC0,0xFC,0xFF,0xFF,0x3F
001453 1f1f
001454 3f0f
001455 0303
001456 0103      	.DB  0x1F,0x1F,0xF,0x3F,0x3,0x3,0x3,0x1
001457 0103
001458 0000
001459 0000
00145a 0100      	.DB  0x3,0x1,0x0,0x0,0x0,0x0,0x0,0x1
00145b 0303
00145c 1f0f
00145d 3f1f
00145e ff7f      	.DB  0x3,0x3,0xF,0x1F,0x1F,0x3F,0x7F,0xFF
00145f ff7f
001460 ffff
001461 ffff
001462 fcff      	.DB  0x7F,0xFF,0xFF,0xFF,0xFF,0xFF,0xFF,0xFC
001463 c0f0
001464 0000
001465 0000
001466 0000      	.DB  0xF0,0xC0,0x0,0x0,0x0,0x0,0x0,0x0
001467 0000
001468 0000
001469 0800
00146a 020a      	.DB  0x0,0x0,0x0,0x0,0x0,0x8,0xA,0x2
00146b 3232
00146c 3232
00146d 0000
00146e 0000      	.DB  0x32,0x32,0x32,0x32,0x0,0x0,0x0,0x0
00146f 0000
001470 0000
001471 0000
001472 0000      	.DB  0x0,0x0,0x0,0x0,0x0,0x0,0x0,0x0
001473 0000
001474 0000
001475 0000
001476 0000      	.DB  0x0,0x0,0x0,0x0,0x0,0x0,0x0,0x0
001477 0000
001478 0000
001479 0000
00147a 0000      	.DB  0x0,0x0,0x0,0x0,0x0,0x0,0x0,0x0
00147b 0000
00147c 0000
00147d 0000
00147e 0000      	.DB  0x0,0x0,0x0,0x0,0x0,0x0,0x0,0x0
00147f 0000
001480 0000
001481 0000
001482 0000      	.DB  0x0,0x0,0x0,0x0,0x0,0x0,0x0,0x0
001483 0000
001484 0000
001485 0000
001486 0000      	.DB  0x0,0x0,0x0,0x0,0x0,0x0,0x0,0x0
001487 0000
001488 0000
001489 8000
00148a 0000      	.DB  0x0,0x0,0x0,0x0,0x0,0x80,0x0,0x0
00148b 0000
00148c 0000
00148d 0000
00148e 0000      	.DB  0x0,0x0,0x0,0x0,0x0,0x0,0x0,0x0
00148f 00c0
001490 ffff
001491 677f
001492 5cf8      	.DB  0xC0,0x0,0xFF,0xFF,0x7F,0x67,0xF8,0x5C
001493 ccdc
001494 fccc
001495 f8fc
001496 d8d8      	.DB  0xDC,0xCC,0xCC,0xFC,0xFC,0xF8,0xD8,0xD8
001497 40c0
001498 4040
001499 3850
00149a ac38      	.DB  0xC0,0x40,0x40,0x40,0x50,0x38,0x38,0xAC
00149b feac
00149c dede
00149d 9ece
00149e 1c1e      	.DB  0xAC,0xFE,0xDE,0xDE,0xCE,0x9E,0x1E,0x1C
00149f 90d8
0014a0 e1e0
0014a1 ffdf
0014a2 ffff      	.DB  0xD8,0x90,0xE0,0xE1,0xDF,0xFF,0xFF,0xFF
0014a3 ffff
0014a4 70fc
0014a5 70f0
0014a6 e060      	.DB  0xFF,0xFF,0xFC,0x70,0xF0,0x70,0x60,0xE0
0014a7 e0e0
0014a8 e0e0
0014a9 a0e0
0014aa 6060      	.DB  0xE0,0xE0,0xE0,0xE0,0xE0,0xA0,0x60,0x60
0014ab e0e0
0014ac 40e0
0014ad 0000
0014ae 0000      	.DB  0xE0,0xE0,0xE0,0x40,0x0,0x0,0x0,0x0
0014af 0000
0014b0 0000
0014b1 0000
0014b2 0000      	.DB  0x0,0x0,0x0,0x0,0x0,0x0,0x0,0x0
0014b3 0000
0014b4 0000
0014b5 0000
0014b6 0101      	.DB  0x0,0x0,0x0,0x0,0x0,0x0,0x1,0x1
0014b7 0000
0014b8 2000
0014b9 4040
0014ba 0020      	.DB  0x0,0x0,0x0,0x20,0x40,0x40,0x20,0x0
0014bb 0000
0014bc 0000
0014bd 0000
0014be 0000      	.DB  0x0,0x0,0x0,0x0,0x0,0x0,0x0,0x0
0014bf 0000
0014c0 0000
0014c1 0000
0014c2 0000      	.DB  0x0,0x0,0x0,0x0,0x0,0x0,0x0,0x0
0014c3 0000
0014c4 0000
0014c5 0000
0014c6 0000      	.DB  0x0,0x0,0x0,0x0,0x0,0x0,0x0,0x0
0014c7 0000
0014c8 0000
0014c9 40c0
0014ca 8080      	.DB  0x0,0x0,0x0,0x0,0xC0,0x40,0x80,0x80
0014cb a480
0014cc 8888
0014cd 8188
0014ce 9591      	.DB  0x80,0xA4,0x88,0x88,0x88,0x81,0x91,0x95
0014cf 909a
0014d0 0650
0014d1 4361
0014d2 0613      	.DB  0x9A,0x90,0x50,0x6,0x61,0x43,0x13,0x6
0014d3 0303
0014d4 0300
0014d5 0007
0014d6 0983      	.DB  0x3,0x3,0x0,0x3,0x7,0x0,0x83,0x9
0014d7 000e
0014d8 0000
0014d9 0007
0014da 0583      	.DB  0xE,0x0,0x0,0x0,0x7,0x0,0x83,0x5
0014db 0003
0014dc 0303
0014dd 0200
0014de 0003      	.DB  0x3,0x0,0x3,0x3,0x0,0x2,0x3,0x0
0014df 0000
0014e0 0101
0014e1 7f87
0014e2 3f0f      	.DB  0x0,0x0,0x1,0x1,0x87,0x7F,0xF,0x3F
0014e3 1f7f
0014e4 100b
0014e5 1919
0014e6 5610      	.DB  0x7F,0x1F,0xB,0x10,0x19,0x19,0x10,0x56
0014e7 444a
0014e8 4c4c
0014e9 6e4e
0014ea bc7c      	.DB  0x4A,0x44,0x4C,0x4C,0x4E,0x6E,0x7C,0xBC
0014eb f9b6
0014ec 929e
0014ed 0000
0014ee 0000      	.DB  0xB6,0xF9,0x9E,0x92,0x0,0x0,0x0,0x0
0014ef 0000
0014f0 0000
0014f1 0000
0014f2 0000      	.DB  0x0,0x0,0x0,0x0,0x0,0x0,0x0,0x0
0014f3 017f
0014f4 0101
0014f5 7f00
0014f6 4949      	.DB  0x7F,0x1,0x1,0x1,0x0,0x7F,0x49,0x49
0014f7 0049
0014f8 307f
0014f9 020c
0014fa 007f      	.DB  0x49,0x0,0x7F,0x30,0xC,0x2,0x7F,0x0
0014fb 0000
0014fc 0000
0014fd 0808
0014fe 0808      	.DB  0x0,0x0,0x0,0x0,0x8,0x8,0x8,0x8
0014ff 3018
001500 00e0
001501 0000
001502 0000      	.DB  0x18,0x30,0xE0,0x0,0x0,0x0,0x0,0x0
001503 0000
001504 0000
001505 0000
001506 0000      	.DB  0x0,0x0,0x0,0x0,0x0,0x0,0x0,0x0
001507 0000
001508 0c00
001509 0808
00150a 1a08      	.DB  0x0,0x0,0x0,0xC,0x8,0x8,0x8,0x1A
00150b 1018
00150c 1010
00150d 0000
00150e 0000      	.DB  0x18,0x10,0x10,0x10,0x0,0x0,0x0,0x0
00150f 0000
001510 8080
001511 fcd7
001512 787e      	.DB  0x0,0x0,0x80,0x80,0xD7,0xFC,0x7E,0x78
001513 00c0
001514 0000
001515 0000
001516 0c00      	.DB  0xC0,0x0,0x0,0x0,0x0,0x0,0x0,0xC
001517 0808
001518 0000
001519 1814
00151a 0008      	.DB  0x8,0x8,0x0,0x0,0x14,0x18,0x8,0x0
00151b 0000
00151c 0000
00151d 0000
00151e 0000      	.DB  0x0,0x0,0x0,0x0,0x0,0x0,0x0,0x0
00151f 0000
001520 f680
001521 21e2
001522 0110      	.DB  0x0,0x0,0x80,0xF6,0xE2,0x21,0x10,0x1
001523 0101
001524 8101
001525 8280
001526 4a82      	.DB  0x1,0x1,0x1,0x81,0x80,0x82,0x82,0x4A
001527 424a
001528 6041
001529 2262
00152a 2222      	.DB  0x4A,0x42,0x41,0x60,0x62,0x22,0x22,0x22
00152b 5040
00152c a220
00152d 0000
00152e 0000      	.DB  0x40,0x50,0x20,0xA2,0x0,0x0,0x0,0x0
00152f 0000
001530 0000
001531 8000
001532 8080      	.DB  0x0,0x0,0x0,0x0,0x0,0x80,0x80,0x80
001533 8080
001534 c080
001535 0040
001536 0000      	.DB  0x80,0x80,0x80,0xC0,0x40,0x0,0x0,0x0
001537 0000
001538 0000
001539 0000
00153a 0000      	.DB  0x0,0x0,0x0,0x0,0x0,0x0,0x0,0x0
00153b 0000
00153c 0000
00153d 0000
00153e c080      	.DB  0x0,0x0,0x0,0x0,0x0,0x0,0x80,0xC0
00153f 3060
001540 000f
001541 0000
001542 0000      	.DB  0x60,0x30,0xF,0x0,0x0,0x0,0x0,0x0
001543 0000
001544 0000
001545 0000
001546 0000      	.DB  0x0,0x0,0x0,0x0,0x0,0x0,0x0,0x0
001547 0000
001548 9c00
001549 b0bc
00154a b1b0      	.DB  0x0,0x0,0x0,0x9C,0xBC,0xB0,0xB0,0xB1
00154b b8b9
00154c 9cbc
00154d ce9c
00154e e7c6      	.DB  0xB9,0xB8,0xBC,0x9C,0x9C,0xCE,0xC6,0xE7
00154f e7eb
001550 faf5
001551 fdfa
001552 eefd      	.DB  0xEB,0xE7,0xF5,0xFA,0xFA,0xFD,0xFD,0xEE
001553 e6e6
001554 e0e0
001555 8000
001556 0101      	.DB  0xE6,0xE6,0xE0,0xE0,0x0,0x80,0x1,0x1
001557 0101
001558 0901
001559 0301
00155a 0303      	.DB  0x1,0x1,0x1,0x9,0x1,0x3,0x3,0x3
00155b 0002
00155c 0000
00155d 0080
00155e 0040      	.DB  0x2,0x0,0x0,0x0,0x80,0x0,0x40,0x0
00155f 8000
001560 8fff
001561 1e3e
001562 0702      	.DB  0x0,0x80,0xFF,0x8F,0x3E,0x1E,0x2,0x7
001563 0103
001564 0001
001565 0000
001566 0000      	.DB  0x3,0x1,0x1,0x0,0x0,0x0,0x0,0x0
001567 0000
001568 0000
001569 0000
00156a 0000      	.DB  0x0,0x0,0x0,0x0,0x0,0x0,0x0,0x0
00156b 0000
00156c 0200
00156d 0000
00156e 0000      	.DB  0x0,0x0,0x0,0x2,0x0,0x0,0x0,0x0
00156f 1c00
001570 fe3e
001571 bfff
001572 3333      	.DB  0x0,0x1C,0x3E,0xFE,0xFF,0xBF,0x33,0x33
001573 2131
001574 2021
001575 2020
001576 2020      	.DB  0x31,0x21,0x21,0x20,0x20,0x20,0x20,0x20
001577 1020
001578 1010
001579 0810
00157a 0808      	.DB  0x20,0x10,0x10,0x10,0x10,0x8,0x8,0x8
00157b 0408
00157c 0204
00157d 0102
00157e 0001      	.DB  0x8,0x4,0x4,0x2,0x2,0x1,0x1,0x0
00157f 0000
001580 0000
001581 0000
001582 0000      	.DB  0x0,0x0,0x0,0x0,0x0,0x0,0x0,0x0
001583 0000
001584 0000
001585 0000
001586 0000      	.DB  0x0,0x0,0x0,0x0,0x0,0x0,0x0,0x0
001587 0000
001588 0700
001589 0707
00158a 0707      	.DB  0x0,0x0,0x0,0x7,0x7,0x7,0x7,0x7
00158b 0707
00158c 0707
00158d 0707
00158e 0707      	.DB  0x7,0x7,0x7,0x7,0x7,0x7,0x7,0x7
00158f 0707
001590 0707
001591 0707
001592 0707      	.DB  0x7,0x7,0x7,0x7,0x7,0x7,0x7,0x7
001593 0707
001594 0707
001595 0000
001596 0201      	.DB  0x7,0x7,0x7,0x7,0x0,0x0,0x1,0x2
001597 0602
001598 0404
001599 0404
00159a 0004      	.DB  0x2,0x6,0x4,0x4,0x4,0x4,0x4,0x0
00159b 0200
00159c 0100
00159d 0000
00159e 0000      	.DB  0x0,0x2,0x0,0x1,0x0,0x0,0x0,0x0
00159f 0700
0015a0 0307
0015a1 0700
0015a2 0406      	.DB  0x0,0x7,0x7,0x3,0x0,0x7,0x6,0x4
0015a3 0004
0015a4 0000
0015a5 0000
0015a6 0000      	.DB  0x4,0x0,0x0,0x0,0x0,0x0,0x0,0x0
0015a7 0000
0015a8 0000
0015a9 0000
0015aa 0000      	.DB  0x0,0x0,0x0,0x0,0x0,0x0,0x0,0x0
0015ab 0000
0015ac 0000
0015ad 0000
0015ae 0000      	.DB  0x0,0x0,0x0,0x0,0x0,0x0,0x0,0x0
0015af 0000
0015b0 0000
0015b1 0703
0015b2 0c0e      	.DB  0x0,0x0,0x0,0x0,0x3,0x7,0xE,0xC
0015b3 0000
0015b4 0000
0015b5 0000
0015b6 0000      	.DB  0x0,0x0,0x0,0x0,0x0,0x0,0x0,0x0
0015b7 0000
0015b8 0000
0015b9 0000
0015ba 0000      	.DB  0x0,0x0,0x0,0x0,0x0,0x0,0x0,0x0
0015bb 0000
0015bc 0000
0015bd 0000
0015be 0000      	.DB  0x0,0x0,0x0,0x0,0x0,0x0,0x0,0x0
0015bf 0000
0015c0 0000
0015c1 0000
0015c2 0000      	.DB  0x0,0x0,0x0,0x0,0x0,0x0,0x0,0x0
0015c3 0000
0015c4 0000
0015c5 0000
0015c6 0000      	.DB  0x0,0x0,0x0,0x0,0x0,0x0,0x0,0x0
                 
                 ;GLOBAL REGISTER VARIABLES INITIALIZATION
                 __REG_VARS:
0015c7 0101
0015c8 0000      	.DB  0x1,0x1,0x0,0x0
0015c9 0000
0015ca 0000      	.DB  0x0,0x0,0x0,0x0
0015cb 0000      	.DB  0x0,0x0
                 
                 _0x2D:
0015cc eecf
0015cd e0ea
0015ce ed20
0015cf 20e5      	.DB  0xCF,0xEE,0xEA,0xE0,0x20,0xED,0xE5,0x20
0015d0 f0ef
0015d1 f1e8
0015d2 e0eb
0015d3 eeed      	.DB  0xEF,0xF0,0xE8,0xF1,0xEB,0xE0,0xED,0xEE
0015d4 2e2e
C:\Documents and Settings\pav\Рабочий стол\Рабочая_папка\ПРОЕКТЫ\200W_fonarik\MYMODULE2560_DEMO\Debug\List\MY2560_DEMO.asm(2562): warning: .cseg .db misalignment - padding zero byte
0015d5 002e      	.DB  0x2E,0x2E,0x2E
                 _0x2E:
C:\Documents and Settings\pav\Рабочий стол\Рабочая_папка\ПРОЕКТЫ\200W_fonarik\MYMODULE2560_DEMO\Debug\List\MY2560_DEMO.asm(2564): warning: .cseg .db misalignment - padding zero byte
0015d6 0010      	.DB  0x10
                 _0x2F:
0015d7 683c
0015d8 6165
0015d9 3e64
0015da 6c3c      	.DB  0x3C,0x68,0x65,0x61,0x64,0x3E,0x3C,0x6C
0015db 6e69
0015dc 206b
0015dd 6572
0015de 3d6c      	.DB  0x69,0x6E,0x6B,0x20,0x72,0x65,0x6C,0x3D
0015df 6927
0015e0 6f63
0015e1 276e
0015e2 7268      	.DB  0x27,0x69,0x63,0x6F,0x6E,0x27,0x68,0x72
0015e3 6665
0015e4 273d
0015e5 6164
0015e6 6174      	.DB  0x65,0x66,0x3D,0x27,0x64,0x61,0x74,0x61
0015e7 693a
0015e8 616d
0015e9 6567
0015ea 622f      	.DB  0x3A,0x69,0x6D,0x61,0x67,0x65,0x2F,0x62
0015eb 706d
0015ec 623b
0015ed 7361
0015ee 3665      	.DB  0x6D,0x70,0x3B,0x62,0x61,0x73,0x65,0x36
0015ef 2c34
0015f0 6b51
0015f1 2b31
0015f2 4141      	.DB  0x34,0x2C,0x51,0x6B,0x31,0x2B,0x41,0x41
0015f3 4141
0015f4 4141
0015f5 4141
0015f6 4441      	.DB  0x41,0x41,0x41,0x41,0x41,0x41,0x41,0x44
0015f7 4134
0015f8 4141
0015f9 6f41
0015fa 4141      	.DB  0x34,0x41,0x41,0x41,0x41,0x6F,0x41,0x41
0015fb 4141
0015fc 4145
0015fd 4141
0015fe 4241      	.DB  0x41,0x41,0x45,0x41,0x41,0x41,0x41,0x42
0015ff 4141
001600 4141
001601 4241
001602 4141      	.DB  0x41,0x41,0x41,0x41,0x41,0x42,0x41,0x41
001603 4145
001604 4141
001605 4141
001606 4541      	.DB  0x45,0x41,0x41,0x41,0x41,0x41,0x41,0x45
001607 4141
001608 4141
001609 3042
00160a 6745      	.DB  0x41,0x41,0x41,0x41,0x42,0x30,0x45,0x67
00160b 4141
00160c 4264
00160d 4149
00160e 4141      	.DB  0x41,0x41,0x64,0x42,0x49,0x41,0x41,0x41
00160f 4141
001610 4141
001611 4141
001612 4141      	.DB  0x41,0x41,0x41,0x41,0x41,0x41,0x41,0x41
001613 4141
001614 4141
001615 4141
001616 5041      	.DB  0x41,0x41,0x41,0x41,0x41,0x41,0x41,0x50
001617 2f2f
001618 772f
001619 5041
00161a 412f      	.DB  0x2F,0x2F,0x2F,0x77,0x41,0x50,0x2F,0x41
00161b 4141
00161c 2f50
00161d 4134
00161e 4741      	.DB  0x41,0x41,0x50,0x2F,0x34,0x41,0x41,0x47
00161f 4741
001620 4141
001621 4b44
001622 7771      	.DB  0x41,0x47,0x41,0x41,0x44,0x4B,0x71,0x77
001623 4141
001624 7169
001625 416b
001626 4d41      	.DB  0x41,0x41,0x69,0x71,0x6B,0x41,0x41,0x4D
001627 4441
001628 4141
001629 2f44
00162a 772f      	.DB  0x41,0x44,0x41,0x41,0x44,0x2F,0x2F,0x77
00162b 4141
00162c 6a2f
00162d 4138
00162e 4d41      	.DB  0x41,0x41,0x2F,0x6A,0x38,0x41,0x41,0x4D
00162f 6a63
001630 4141
001631 3743
001632 5158      	.DB  0x63,0x6A,0x41,0x41,0x43,0x37,0x58,0x51
001633 4141
001634 3171
001635 4155
001636 4c41      	.DB  0x41,0x41,0x71,0x31,0x55,0x41,0x41,0x4C
001637 6470
001638 4141
001639 4844
00163a 7734      	.DB  0x70,0x64,0x41,0x41,0x44,0x48,0x34,0x77
00163b 4141
00163c 2f50
00163d 4134
00163e 4141      	.DB  0x41,0x41,0x50,0x2F,0x34,0x41,0x41,0x41
00163f 7171
001640 4141
001641 4141
001642 4141      	.DB  0x71,0x71,0x41,0x41,0x41,0x41,0x41,0x41
001643 4141
001644 7427
001645 7079
001646 3d65      	.DB  0x41,0x41,0x27,0x74,0x79,0x70,0x65,0x3D
001647 6927
001648 616d
001649 6567
00164a 782f      	.DB  0x27,0x69,0x6D,0x61,0x67,0x65,0x2F,0x78
00164b 702d
00164c 676e
00164d 2f27
00164e 3c3e      	.DB  0x2D,0x70,0x6E,0x67,0x27,0x2F,0x3E,0x3C
00164f 682f
001650 6165
001651 3e64
001652 733c      	.DB  0x2F,0x68,0x65,0x61,0x64,0x3E,0x3C,0x73
001653 7974
001654 656c
001655 683e
001656 2c31      	.DB  0x74,0x79,0x6C,0x65,0x3E,0x68,0x31,0x2C
001657 3268
001658 682c
001659 2c33
00165a 6e69      	.DB  0x68,0x32,0x2C,0x68,0x33,0x2C,0x69,0x6E
00165b 7570
00165c 2c74
00165d 2c69
00165e 6573      	.DB  0x70,0x75,0x74,0x2C,0x69,0x2C,0x73,0x65
00165f 656c
001660 7463
001661 667b
001662 6e6f      	.DB  0x6C,0x65,0x63,0x74,0x7B,0x66,0x6F,0x6E
001663 2d74
001664 6973
001665 657a
001666 343a      	.DB  0x74,0x2D,0x73,0x69,0x7A,0x65,0x3A,0x34
001667 7030
001668 7d78
001669 3168
00166a 637b      	.DB  0x30,0x70,0x78,0x7D,0x68,0x31,0x7B,0x63
00166b 6c6f
00166c 726f
00166d 233a
00166e 3030      	.DB  0x6F,0x6C,0x6F,0x72,0x3A,0x23,0x30,0x30
00166f 3030
001670 3066
001671 687d
001672 7b32      	.DB  0x30,0x30,0x66,0x30,0x7D,0x68,0x32,0x7B
001673 6f63
001674 6f6c
001675 3a72
001676 6123      	.DB  0x63,0x6F,0x6C,0x6F,0x72,0x3A,0x23,0x61
001677 6130
001678 3030
001679 7d30
00167a 3368      	.DB  0x30,0x61,0x30,0x30,0x30,0x7D,0x68,0x33
00167b 637b
00167c 6c6f
00167d 726f
00167e 233a      	.DB  0x7B,0x63,0x6F,0x6C,0x6F,0x72,0x3A,0x23
00167f 3066
001680 3066
001681 3030
001682 697d      	.DB  0x66,0x30,0x66,0x30,0x30,0x30,0x7D,0x69
001683 637b
001684 6c6f
001685 726f
001686 233a      	.DB  0x7B,0x63,0x6F,0x6C,0x6F,0x72,0x3A,0x23
001687 3939
001688 3030
001689 3337
00168a 697d      	.DB  0x39,0x39,0x30,0x30,0x37,0x33,0x7D,0x69
00168b 706e
00168c 7475
00168d 732c
00168e 6c65      	.DB  0x6E,0x70,0x75,0x74,0x2C,0x73,0x65,0x6C
00168f 6365
001690 7b74
001691 6f63
001692 6f6c      	.DB  0x65,0x63,0x74,0x7B,0x63,0x6F,0x6C,0x6F
001693 3a72
001694 3023
001695 3930
001696 3939      	.DB  0x72,0x3A,0x23,0x30,0x30,0x39,0x39,0x39
001697 7d39
001698 2f3c
001699 7473
00169a 6c79      	.DB  0x39,0x7D,0x3C,0x2F,0x73,0x74,0x79,0x6C
00169b 3e65
00169c 683c
00169d 3e31
00169e 3532      	.DB  0x65,0x3E,0x3C,0x68,0x31,0x3E,0x32,0x35
00169f 3036
0016a0 4f4d
0016a1 5544
0016a2 454c      	.DB  0x36,0x30,0x4D,0x4F,0x44,0x55,0x4C,0x45
0016a3 c420
0016a4 ccc5
0016a5 20ce
0016a6 2f3c      	.DB  0x20,0xC4,0xC5,0xCC,0xCE,0x20,0x3C,0x2F
0016a7 3168
0016a8 3c3e
0016a9 6f66
0016aa 6d72      	.DB  0x68,0x31,0x3E,0x3C,0x66,0x6F,0x72,0x6D
0016ab 3c3e
0016ac 3e69
0016ad 6554
0016ae 7478      	.DB  0x3E,0x3C,0x69,0x3E,0x54,0x65,0x78,0x74
0016af 7420
0016b0 206f
0016b1 4c4f
0016b2 4445      	.DB  0x20,0x74,0x6F,0x20,0x4F,0x4C,0x45,0x44
0016b3 6420
0016b4 7369
0016b5 6c70
0016b6 7961      	.DB  0x20,0x64,0x69,0x73,0x70,0x6C,0x61,0x79
0016b7 3c3a
0016b8 692f
0016b9 3c3e
0016ba 6e69      	.DB  0x3A,0x3C,0x2F,0x69,0x3E,0x3C,0x69,0x6E
0016bb 7570
0016bc 2074
0016bd 616e
0016be 656d      	.DB  0x70,0x75,0x74,0x20,0x6E,0x61,0x6D,0x65
0016bf 273d
0016c0 2754
0016c1 6973
0016c2 657a      	.DB  0x3D,0x27,0x54,0x27,0x73,0x69,0x7A,0x65
0016c3 273d
0016c4 3032
0016c5 6d27
0016c6 7861      	.DB  0x3D,0x27,0x32,0x30,0x27,0x6D,0x61,0x78
0016c7 656c
0016c8 676e
0016c9 6874
0016ca 273d      	.DB  0x6C,0x65,0x6E,0x67,0x74,0x68,0x3D,0x27
0016cb 3032
0016cc 3e27
0016cd 693c
0016ce 706e      	.DB  0x32,0x30,0x27,0x3E,0x3C,0x69,0x6E,0x70
0016cf 7475
0016d0 7420
0016d1 7079
0016d2 3d65      	.DB  0x75,0x74,0x20,0x74,0x79,0x70,0x65,0x3D
0016d3 7327
0016d4 6275
0016d5 696d
0016d6 2774      	.DB  0x27,0x73,0x75,0x62,0x6D,0x69,0x74,0x27
0016d7 6176
0016d8 756c
0016d9 3d65
0016da 5327      	.DB  0x76,0x61,0x6C,0x75,0x65,0x3D,0x27,0x53
0016db 4e45
0016dc 2744
0016dd 3c3e
0016de 662f      	.DB  0x45,0x4E,0x44,0x27,0x3E,0x3C,0x2F,0x66
0016df 726f
0016e0 3e6d
0016e1 663c
0016e2 726f      	.DB  0x6F,0x72,0x6D,0x3E,0x3C,0x66,0x6F,0x72
0016e3 3e6d
0016e4 693c
0016e5 523e
0016e6 4247      	.DB  0x6D,0x3E,0x3C,0x69,0x3E,0x52,0x47,0x42
0016e7 4c20
0016e8 4445
0016e9 4f20
0016ea 2f4e      	.DB  0x20,0x4C,0x45,0x44,0x20,0x4F,0x4E,0x2F
0016eb 464f
0016ec 3a46
0016ed 2f3c
0016ee 3e69      	.DB  0x4F,0x46,0x46,0x3A,0x3C,0x2F,0x69,0x3E
0016ef 693c
0016f0 706e
0016f1 7475
0016f2 7420      	.DB  0x3C,0x69,0x6E,0x70,0x75,0x74,0x20,0x74
0016f3 7079
0016f4 3d65
0016f5 7327
0016f6 6275      	.DB  0x79,0x70,0x65,0x3D,0x27,0x73,0x75,0x62
0016f7 696d
0016f8 2774
0016f9 616e
0016fa 656d      	.DB  0x6D,0x69,0x74,0x27,0x6E,0x61,0x6D,0x65
0016fb 273d
0016fc 274c
0016fd 6176
0016fe 756c      	.DB  0x3D,0x27,0x4C,0x27,0x76,0x61,0x6C,0x75
0016ff 3d65
001700 4c27
001701 4445
001702 3e27      	.DB  0x65,0x3D,0x27,0x4C,0x45,0x44,0x27,0x3E
001703 2f3c
001704 6f66
001705 6d72
C:\Documents and Settings\pav\Рабочий стол\Рабочая_папка\ПРОЕКТЫ\200W_fonarik\MYMODULE2560_DEMO\Debug\List\MY2560_DEMO.asm(2641): warning: .cseg .db misalignment - padding zero byte
001706 003e      	.DB  0x3C,0x2F,0x66,0x6F,0x72,0x6D,0x3E
                 _0x30:
001707 683c
001708 3e33
001709 4554
00170a 5458      	.DB  0x3C,0x68,0x33,0x3E,0x54,0x45,0x58,0x54
00170b 5320
00170c 4f48
00170d 4c55
00170e 2044      	.DB  0x20,0x53,0x48,0x4F,0x55,0x4C,0x44,0x20
00170f 4f47
001710 5420
001711 204f
001712 4c4f      	.DB  0x47,0x4F,0x20,0x54,0x4F,0x20,0x4F,0x4C
001713 4445
001714 2020
001715 3c20
001716 682f      	.DB  0x45,0x44,0x20,0x20,0x20,0x3C,0x2F,0x68
001717 3e33
001718 3c00
001719 3368
00171a 553e      	.DB  0x33,0x3E,0x0,0x3C,0x68,0x33,0x3E,0x55
00171b 424e
00171c 4c45
00171d 4549
00171e 4156      	.DB  0x4E,0x42,0x45,0x4C,0x49,0x45,0x56,0x41
00171f 4c42
001720 2045
001721 5320
001722 4355      	.DB  0x42,0x4C,0x45,0x20,0x20,0x53,0x55,0x43
001723 4543
001724 5353
001725 2120
001726 2121      	.DB  0x43,0x45,0x53,0x53,0x20,0x21,0x21,0x21
001727 2f3c
001728 3368
001729 003e
00172a 683c      	.DB  0x3C,0x2F,0x68,0x33,0x3E,0x0,0x3C,0x68
00172b 3e33
00172c 5920
00172d 5445
00172e 4120      	.DB  0x33,0x3E,0x20,0x59,0x45,0x54,0x20,0x41
00172f 4f4e
001730 4854
001731 5245
001732 5320      	.DB  0x4E,0x4F,0x54,0x48,0x45,0x52,0x20,0x53
001733 4355
001734 4543
001735 5353
001736 2021      	.DB  0x55,0x43,0x43,0x45,0x53,0x53,0x21,0x20
001737 2020
001738 3c20
001739 682f
00173a 3e33      	.DB  0x20,0x20,0x20,0x3C,0x2F,0x68,0x33,0x3E
00173b 3c00
00173c 3368
00173d 573e
00173e 574f      	.DB  0x0,0x3C,0x68,0x33,0x3E,0x57,0x4F,0x57
00173f 2021
001740 4f53
001741 4d20
001742 4355      	.DB  0x21,0x20,0x53,0x4F,0x20,0x4D,0x55,0x43
001743 2048
001744 5553
001745 4343
001746 5345      	.DB  0x48,0x20,0x53,0x55,0x43,0x43,0x45,0x53
001747 2e53
001748 2e2e
001749 2020
00174a 2f3c      	.DB  0x53,0x2E,0x2E,0x2E,0x20,0x20,0x3C,0x2F
00174b 3368
00174c 003e
00174d 683c
00174e 3e33      	.DB  0x68,0x33,0x3E,0x0,0x3C,0x68,0x33,0x3E
00174f 4552
001750 4c41
001751 594c
001752 203f      	.DB  0x52,0x45,0x41,0x4C,0x4C,0x59,0x3F,0x20
001753 5241
001754 4e45
001755 5427
001756 5920      	.DB  0x41,0x52,0x45,0x4E,0x27,0x54,0x20,0x59
001757 554f
001758 5420
001759 5249
00175a 4445      	.DB  0x4F,0x55,0x20,0x54,0x49,0x52,0x45,0x44
00175b 3c3f
00175c 682f
00175d 3e33
00175e 3c00      	.DB  0x3F,0x3C,0x2F,0x68,0x33,0x3E,0x0,0x3C
00175f 3368
001760 593e
001761 554f
001762 4120      	.DB  0x68,0x33,0x3E,0x59,0x4F,0x55,0x20,0x41
001763 4552
001764 5420
001765 4548
001766 4c20      	.DB  0x52,0x45,0x20,0x54,0x48,0x45,0x20,0x4C
001767 4445
001768 5220
001769 4c55
00176a 5245      	.DB  0x45,0x44,0x20,0x52,0x55,0x4C,0x45,0x52
00176b 2121
00176c 2021
00176d 2f3c
00176e 3368      	.DB  0x21,0x21,0x21,0x20,0x3C,0x2F,0x68,0x33
00176f 003e
001770 683c
001771 3e33
001772 5453      	.DB  0x3E,0x0,0x3C,0x68,0x33,0x3E,0x53,0x54
001773 4c49
001774 204c
001775 5546
001776 2c4e      	.DB  0x49,0x4C,0x4C,0x20,0x46,0x55,0x4E,0x2C
001777 4820
001778 3f41
001779 2020
00177a 2020      	.DB  0x20,0x48,0x41,0x3F,0x20,0x20,0x20,0x20
00177b 2020
00177c 2020
00177d 2020
00177e 3c20      	.DB  0x20,0x20,0x20,0x20,0x20,0x20,0x20,0x3C
00177f 682f
001780 3e33      	.DB  0x2F,0x68,0x33,0x3E
                 _0x0:
001781 5441
001782 522b
001783 5453
001784 4100      	.DB  0x41,0x54,0x2B,0x52,0x53,0x54,0x0,0x41
001785 4554
001786 0030
001787 5441
001788 432b      	.DB  0x54,0x45,0x30,0x0,0x41,0x54,0x2B,0x43
001789 5049
00178a 5041
00178b 435f
00178c 5255      	.DB  0x49,0x50,0x41,0x50,0x5F,0x43,0x55,0x52
00178d 223d
00178e 3931
00178f 2e32
001790 3631      	.DB  0x3D,0x22,0x31,0x39,0x32,0x2E,0x31,0x36
001791 2e38
001792 2e30
001793 3031
001794 2230      	.DB  0x38,0x2E,0x30,0x2E,0x31,0x30,0x30,0x22
001795 4100
001796 2b54
001797 5743
001798 4153      	.DB  0x0,0x41,0x54,0x2B,0x43,0x57,0x53,0x41
001799 5f50
00179a 5543
00179b 3d52
00179c 3222      	.DB  0x50,0x5F,0x43,0x55,0x52,0x3D,0x22,0x32
00179d 3635
00179e 4430
00179f 4d45
0017a0 224f      	.DB  0x35,0x36,0x30,0x44,0x45,0x4D,0x4F,0x22
0017a1 222c
0017a2 2c22
0017a3 2c31
0017a4 2c30      	.DB  0x2C,0x22,0x22,0x2C,0x31,0x2C,0x30,0x2C
0017a5 2c31
0017a6 0030
0017a7 5441
0017a8 432b      	.DB  0x31,0x2C,0x30,0x0,0x41,0x54,0x2B,0x43
0017a9 4d57
0017aa 444f
0017ab 3d45
0017ac 0032      	.DB  0x57,0x4D,0x4F,0x44,0x45,0x3D,0x32,0x0
0017ad 5441
0017ae 432b
0017af 5049
0017b0 554d      	.DB  0x41,0x54,0x2B,0x43,0x49,0x50,0x4D,0x55
0017b1 3d58
0017b2 0031
0017b3 5441
0017b4 432b      	.DB  0x58,0x3D,0x31,0x0,0x41,0x54,0x2B,0x43
0017b5 5049
0017b6 4553
0017b7 5652
0017b8 5245      	.DB  0x49,0x50,0x53,0x45,0x52,0x56,0x45,0x52
0017b9 313d
0017ba 382c
0017bb 0030
0017bc 5441      	.DB  0x3D,0x31,0x2C,0x38,0x30,0x0,0x41,0x54
0017bd 432b
0017be 5049
0017bf 4c43
0017c0 534f      	.DB  0x2B,0x43,0x49,0x50,0x43,0x4C,0x4F,0x53
0017c1 3d45
0017c2 4100
0017c3 2b54
0017c4 4943      	.DB  0x45,0x3D,0x0,0x41,0x54,0x2B,0x43,0x49
0017c5 5350
0017c6 4e45
0017c7 3d44
0017c8 4100      	.DB  0x50,0x53,0x45,0x4E,0x44,0x3D,0x0,0x41
0017c9 2b54
0017ca 4155
0017cb 5452
0017cc 435f      	.DB  0x54,0x2B,0x55,0x41,0x52,0x54,0x5F,0x43
0017cd 5255
0017ce 393d
0017cf 3036
0017d0 2c30      	.DB  0x55,0x52,0x3D,0x39,0x36,0x30,0x30,0x2C
0017d1 2c38
0017d2 2c31
0017d3 2c30
0017d4 0030      	.DB  0x38,0x2C,0x31,0x2C,0x30,0x2C,0x30,0x0
0017d5 5441
0017d6 552b
0017d7 5241
0017d8 5f54      	.DB  0x41,0x54,0x2B,0x55,0x41,0x52,0x54,0x5F
0017d9 5543
0017da 3d52
0017db 3131
0017dc 3235      	.DB  0x43,0x55,0x52,0x3D,0x31,0x31,0x35,0x32
0017dd 3030
0017de 382c
0017df 312c
0017e0 302c      	.DB  0x30,0x30,0x2C,0x38,0x2C,0x31,0x2C,0x30
0017e1 302c
0017e2 5700
0017e3 4669
0017e4 2069      	.DB  0x2C,0x30,0x0,0x57,0x69,0x46,0x69,0x20
0017e5 c5d2
0017e6 d1ca
0017e7 3ad2
0017e8 4500      	.DB  0xD2,0xC5,0xCA,0xD1,0xD2,0x3A,0x0,0x45
0017e9 4e00
0017ea 4300
C:\Documents and Settings\pav\Рабочий стол\Рабочая_папка\ПРОЕКТЫ\200W_fonarik\MYMODULE2560_DEMO\Debug\List\MY2560_DEMO.asm(2701): warning: .cseg .db misalignment - padding zero byte
0017eb 0000      	.DB  0x0,0x4E,0x0,0x43,0x0
                 _0x2000003:
C:\Documents and Settings\pav\Рабочий стол\Рабочая_папка\ПРОЕКТЫ\200W_fonarik\MYMODULE2560_DEMO\Debug\List\MY2560_DEMO.asm(2703): warning: .cseg .db misalignment - padding zero byte
0017ec 0007      	.DB  0x7
                 
                 __GLOBAL_INI_TBL:
0017ed 000a      	.DW  0x0A
0017ee 0005      	.DW  0x05
0017ef 2b8e      	.DW  __REG_VARS*2
                 
0017f0 0013      	.DW  0x13
0017f1 0b62      	.DW  _OLED_text
0017f2 2b98      	.DW  _0x2D*2
                 
0017f3 0001      	.DW  0x01
0017f4 0b85      	.DW  _WiFi_reset_no_activity_counter
0017f5 2bac      	.DW  _0x2E*2
                 
0017f6 025f      	.DW  0x25F
0017f7 0c29      	.DW  _HTML_main_code
0017f8 2bae      	.DW  _0x2F*2
                 
0017f9 00f4      	.DW  0xF4
0017fa 0e89      	.DW  _HTML_info_code
0017fb 2e0e      	.DW  _0x30*2
                 
0017fc 0007      	.DW  0x07
0017fd 0a00      	.DW  _0x9C
0017fe 2f02      	.DW  _0x0*2
                 
0017ff 0005      	.DW  0x05
001800 0a07      	.DW  _0x9C+7
001801 2f09      	.DW  _0x0*2+7
                 
001802 001d      	.DW  0x1D
001803 0a0c      	.DW  _0x9C+12
001804 2f0e      	.DW  _0x0*2+12
                 
001805 0023      	.DW  0x23
001806 0a29      	.DW  _0x9C+41
001807 2f2b      	.DW  _0x0*2+41
                 
001808 000c      	.DW  0x0C
001809 0a4c      	.DW  _0x9C+76
00180a 2f4e      	.DW  _0x0*2+76
                 
00180b 000c      	.DW  0x0C
00180c 0a58      	.DW  _0x9C+88
00180d 2f5a      	.DW  _0x0*2+88
                 
00180e 0012      	.DW  0x12
00180f 0a64      	.DW  _0x9C+100
001810 2f66      	.DW  _0x0*2+100
                 
001811 000d      	.DW  0x0D
001812 0a76      	.DW  _0x9C+118
001813 2f78      	.DW  _0x0*2+118
                 
001814 000c      	.DW  0x0C
001815 0a83      	.DW  _0x9C+131
001816 2f85      	.DW  _0x0*2+131
                 
001817 0019      	.DW  0x19
001818 0a8f      	.DW  _0x9C+143
001819 2f91      	.DW  _0x0*2+143
                 
00181a 001b      	.DW  0x1B
00181b 0aa8      	.DW  _0x9C+168
00181c 2faa      	.DW  _0x0*2+168
                 
00181d 000c      	.DW  0x0C
00181e 0ac3      	.DW  _0xAE
00181f 2fc5      	.DW  _0x0*2+195
                 
001820 0002      	.DW  0x02
001821 0acf      	.DW  _0xAE+12
001822 2fd1      	.DW  _0x0*2+207
                 
001823 0002      	.DW  0x02
001824 0ad1      	.DW  _0xAE+14
001825 2fd3      	.DW  _0x0*2+209
                 
001826 0002      	.DW  0x02
001827 0ad3      	.DW  _0xAE+16
001828 2fd5      	.DW  _0x0*2+211
                 
001829 0002      	.DW  0x02
00182a 0ad5      	.DW  _0xAE+18
00182b 2fd1      	.DW  _0x0*2+207
                 
00182c 0002      	.DW  0x02
00182d 0ad7      	.DW  _0xAE+20
00182e 2fd3      	.DW  _0x0*2+209
                 
00182f 0002      	.DW  0x02
001830 0ad9      	.DW  _0xAE+22
001831 2fd5      	.DW  _0x0*2+211
                 
001832 0001      	.DW  0x01
001833 0add      	.DW  _twi_result
001834 2fd8      	.DW  _0x2000003*2
                 
                 _0xFFFFFFFF:
001835 0000      	.DW  0
                 
                 #define __GLOBAL_INI_TBL_PRESENT 1
                 
                 __RESET:
001836 94f8      	CLI
001837 27ee      	CLR  R30
001838 bbef      	OUT  EECR,R30
                 
                 ;INTERRUPT VECTORS ARE PLACED
                 ;AT THE START OF FLASH
001839 e0f1      	LDI  R31,1
00183a bff5      	OUT  MCUCR,R31
00183b bfe5      	OUT  MCUCR,R30
00183c 93e0 0074 	STS  XMCRA,R30
00183e 93e0 0075 	STS  XMCRB,R30
                 
                 ;CLEAR R2-R14
001840 e08d      	LDI  R24,(14-2)+1
001841 e0a2      	LDI  R26,2
001842 27bb      	CLR  R27
                 __CLEAR_REG:
001843 93ed      	ST   X+,R30
001844 958a      	DEC  R24
001845 f7e9      	BRNE __CLEAR_REG
                 
                 ;CLEAR SRAM
001846 e080      	LDI  R24,LOW(__CLEAR_SRAM_SIZE)
001847 e290      	LDI  R25,HIGH(__CLEAR_SRAM_SIZE)
001848 e0a0      	LDI  R26,LOW(__SRAM_START)
001849 e0b2      	LDI  R27,HIGH(__SRAM_START)
                 __CLEAR_SRAM:
00184a 93ed      	ST   X+,R30
00184b 9701      	SBIW R24,1
00184c f7e9      	BRNE __CLEAR_SRAM
                 
                 ;GLOBAL VARIABLES INITIALIZATION
00184d edea      	LDI  R30,LOW(__GLOBAL_INI_TBL*2)
00184e e2ff      	LDI  R31,HIGH(__GLOBAL_INI_TBL*2)
                 __GLOBAL_INI_NEXT:
00184f 9185      	LPM  R24,Z+
001850 9195      	LPM  R25,Z+
001851 9700      	SBIW R24,0
001852 f061      	BREQ __GLOBAL_INI_END
001853 91a5      	LPM  R26,Z+
001854 91b5      	LPM  R27,Z+
001855 9005      	LPM  R0,Z+
001856 9015      	LPM  R1,Z+
001857 01bf      	MOVW R22,R30
001858 01f0      	MOVW R30,R0
                 __GLOBAL_INI_LOOP:
001859 9005      	LPM  R0,Z+
00185a 920d      	ST   X+,R0
00185b 9701      	SBIW R24,1
00185c f7e1      	BRNE __GLOBAL_INI_LOOP
00185d 01fb      	MOVW R30,R22
00185e cff0      	RJMP __GLOBAL_INI_NEXT
                 __GLOBAL_INI_END:
                 
00185f bf8b      	OUT  RAMPZ,R24
                 
001860 bf8c      	OUT  EIND,R24
                 
                 ;GPIOR0 INITIALIZATION
001861 e0e0      	LDI  R30,__GPIOR0_INIT
001862 bbee      	OUT  GPIOR0,R30
                 
                 ;HARDWARE STACK POINTER INITIALIZATION
001863 efef      	LDI  R30,LOW(__SRAM_END-__HEAP_SIZE)
001864 bfed      	OUT  SPL,R30
001865 e2e1      	LDI  R30,HIGH(__SRAM_END-__HEAP_SIZE)
001866 bfee      	OUT  SPH,R30
                 
                 ;DATA STACK POINTER INITIALIZATION
001867 e0c0      	LDI  R28,LOW(__SRAM_START+__DSTACK_SIZE)
001868 e0da      	LDI  R29,HIGH(__SRAM_START+__DSTACK_SIZE)
                 
001869 940c 1faf 	JMP  _main
                 
                 	.ESEG
                 	.ORG 0
                 
                 	.DSEG
                 	.ORG 0xA00
                 
                 	.CSEG
                 ;/*******************************************************
                 ;Демо программа для проверки работоспособности модуля atmega2560 c OLED, ESP-12 и jdy-40
                 ;CVAVR
                 ;11.0592 MHz  Fuse bits все не установлены(1) (кроме SPIEN(0)(В CodeVision SPIEN скрыт , что к лучшему))
                 ;
                 ;Программа выводит на олед дисплей показания энкодера,
                 ;вращение энкодера также меняет цвет RGB LED.
                 ;Нажатие на энкодер ярко-тускло RGB LED.
                 ;Также программа организует Soft AP при подключении к которой
                 ;можно посылать текст(english) на дисплей и ярко-тускло RGB LED.
                 ;текст.
                 ;Чтобы подключиться надо подключится к WiFi 2560DEMO (если с мобилы то выключить передачу данных)
                 ;и зайти из браузера на адрес 192.168.0.100 должна появится простенькая HTML страница.
                 ;
                 ;Также программа постоянно выводит букву 'T' в jdy-40(виртуальный ком 9600),
                 ;можно проверить на компьютере имея другой JDY-40 подключенный к UART-USB...
                 ;*******************************************************/
                 ;
                 ;//Включить кренку!!!!!!!!!!!!!!!!!!!!!
                 ;
                 ;#include <mega2560.h>
                 	#ifndef __SLEEP_DEFINED__
                 	#define __SLEEP_DEFINED__
                 	.EQU __se_bit=0x01
                 	.EQU __sm_mask=0x0E
                 	.EQU __sm_powerdown=0x04
                 	.EQU __sm_powersave=0x06
                 	.EQU __sm_standby=0x0C
                 	.EQU __sm_ext_standby=0x0E
                 	.EQU __sm_adc_noise_red=0x02
                 	.SET power_ctrl_reg=smcr
                 	#endif
                 ;#include <delay.h>
                 ;
                 ;#define I2C_hard
                 ;
                 ;#include <twi.h>
                 ;
                 ;#include <fonts_pictures_oled.c>
                 ;
                 ;flash unsigned char arrow[10]={0b11111111,0b11111111,0b01111110,0b01111110,0b00111100,0b00111100,0b00011000,0b00011000,0 ...
                 ;
                 ;
                 ;flash unsigned char LCD_Buffer[0x0500] =
                 ;{
                 ;0x00, 0x00, 0x00, 0x00, 0x00,// 00
                 ;0x00, 0x00, 0x5F, 0x00, 0x00,// 01
                 ;0x00, 0x07, 0x00, 0x07, 0x00,// 02
                 ;0x14, 0x7F, 0x14, 0x7F, 0x14,// 03
                 ;0x24, 0x2A, 0x7F, 0x2A, 0x12,// 04
                 ;0x23, 0x13, 0x08, 0x64, 0x62,// 05
                 ;0x36, 0x49, 0x55, 0x22, 0x50,// 06
                 ;0x00, 0x05, 0x03, 0x00, 0x00,// 07
                 ;0x00, 0x1C, 0x22, 0x41, 0x00,// 08
                 ;0x00, 0x41, 0x22, 0x1C, 0x00,// 09
                 ;0x14, 0x08, 0x3E, 0x08, 0x14,// 0A
                 ;0x08, 0x08, 0x3E, 0x08, 0x08,// 0B
                 ;0x00, 0x50, 0x30, 0x00, 0x00,// 0C
                 ;0x08, 0x08, 0x08, 0x08, 0x08,// 0D
                 ;0x00, 0x60, 0x60, 0x00, 0x00,// 0E
                 ;0x20, 0x10, 0x08, 0x04, 0x02,// 0F
                 ;0x00, 0x00, 0x00, 0x00, 0x00,// 10
                 ;0x00, 0x00, 0x5F, 0x00, 0x00,// 11
                 ;0x00, 0x07, 0x00, 0x07, 0x00,// 12
                 ;0x14, 0x7F, 0x14, 0x7F, 0x14,// 13
                 ;0x24, 0x2A, 0x7F, 0x2A, 0x12,// 14
                 ;0x23, 0x13, 0x08, 0x64, 0x62,// 15
                 ;0x36, 0x49, 0x55, 0x22, 0x50,// 16
                 ;0x00, 0x05, 0x03, 0x00, 0x00,// 17
                 ;0x00, 0x1C, 0x22, 0x41, 0x00,// 18
                 ;0x00, 0x41, 0x22, 0x1C, 0x00,// 19
                 ;0x14, 0x08, 0x3E, 0x08, 0x14,// 1A
                 ;0x08, 0x08, 0x3E, 0x08, 0x08,// 1B
                 ;0x00, 0x50, 0x30, 0x00, 0x00,// 1C
                 ;0x08, 0x08, 0x08, 0x08, 0x08,// 1D
                 ;0x00, 0x60, 0x60, 0x00, 0x00,// 1E
                 ;0x20, 0x10, 0x08, 0x04, 0x02,// 1F
                 ;0x00, 0x00, 0x00, 0x00, 0x00,// 20 space
                 ;0x00, 0x00, 0x5F, 0x00, 0x00,// 21 !
                 ;0x00, 0x07, 0x00, 0x07, 0x00,// 22 "
                 ;0x14, 0x7F, 0x14, 0x7F, 0x14,// 23 #
                 ;0x24, 0x2A, 0x7F, 0x2A, 0x12,// 24 $
                 ;0x23, 0x13, 0x08, 0x64, 0x62,// 25 %
                 ;0x36, 0x49, 0x55, 0x22, 0x50,// 26 &
                 ;0x00, 0x05, 0x03, 0x00, 0x00,// 27 '
                 ;0x00, 0x1C, 0x22, 0x41, 0x00,// 28 (
                 ;0x00, 0x41, 0x22, 0x1C, 0x00,// 29 )
                 ;0x14, 0x08, 0x3E, 0x08, 0x14,// 2a *
                 ;0x08, 0x08, 0x3E, 0x08, 0x08,// 2b +
                 ;0x00, 0x50, 0x30, 0x00, 0x00,// 2c ,
                 ;0x08, 0x08, 0x08, 0x08, 0x08,// 2d -
                 ;0x00, 0x60, 0x60, 0x00, 0x00,// 2e .
                 ;0x20, 0x10, 0x08, 0x04, 0x02,// 2f /
                 ;0x3E, 0x51, 0x49, 0x45, 0x3E,// 30 0
                 ;0x00, 0x42, 0x7F, 0x40, 0x00,// 31 1
                 ;0x42, 0x61, 0x51, 0x49, 0x46,// 32 2
                 ;0x21, 0x41, 0x45, 0x4B, 0x31,// 33 3
                 ;0x18, 0x14, 0x12, 0x7F, 0x10,// 34 4
                 ;0x27, 0x45, 0x45, 0x45, 0x39,// 35 5
                 ;0x3C, 0x4A, 0x49, 0x49, 0x30,// 36 6
                 ;0x01, 0x71, 0x09, 0x05, 0x03,// 37 7
                 ;0x36, 0x49, 0x49, 0x49, 0x36,// 38 8
                 ;0x06, 0x49, 0x49, 0x29, 0x1E,// 39 9
                 ;0x00, 0x36, 0x36, 0x00, 0x00,// 3a :
                 ;0x00, 0x56, 0x36, 0x00, 0x00,// 3b ;
                 ;0x08, 0x14, 0x22, 0x41, 0x00,// 3c <
                 ;0x14, 0x14, 0x14, 0x14, 0x14,// 3d =
                 ;0x00, 0x41, 0x22, 0x14, 0x08,// 3e >
                 ;0x02, 0x01, 0x51, 0x09, 0x06,// 3f ?
                 ;0x32, 0x49, 0x79, 0x41, 0x3E,// 40 @
                 ;0x7E, 0x11, 0x11, 0x11, 0x7E,// 41 A
                 ;0x7F, 0x49, 0x49, 0x49, 0x36,// 42 B
                 ;0x3E, 0x41, 0x41, 0x41, 0x22,// 43 C
                 ;0x7F, 0x41, 0x41, 0x22, 0x1C,// 44 D
                 ;0x7F, 0x49, 0x49, 0x49, 0x41,// 45 E
                 ;0x7F, 0x09, 0x09, 0x09, 0x01,// 46 F
                 ;0x3E, 0x41, 0x49, 0x49, 0x7A,// 47 G
                 ;0x7F, 0x08, 0x08, 0x08, 0x7F,// 48 H
                 ;0x00, 0x41, 0x7F, 0x41, 0x00,// 49 I
                 ;0x20, 0x40, 0x41, 0x3F, 0x01,// 4a J
                 ;0x7F, 0x08, 0x14, 0x22, 0x41,// 4b K
                 ;0x7F, 0x40, 0x40, 0x40, 0x40,// 4c L
                 ;0x7F, 0x02, 0x0C, 0x02, 0x7F,// 4d M
                 ;0x7F, 0x04, 0x08, 0x10, 0x7F,// 4e N
                 ;0x3E, 0x41, 0x41, 0x41, 0x3E,// 4f O
                 ;0x7F, 0x09, 0x09, 0x09, 0x06,// 50 P
                 ;0x3E, 0x41, 0x51, 0x21, 0x5E,// 51 Q
                 ;0x7F, 0x09, 0x19, 0x29, 0x46,// 52 R
                 ;0x46, 0x49, 0x49, 0x49, 0x31,// 53 S
                 ;0x01, 0x01, 0x7F, 0x01, 0x01,// 54 T
                 ;0x3F, 0x40, 0x40, 0x40, 0x3F,// 55 U
                 ;0x1F, 0x20, 0x40, 0x20, 0x1F,// 56 V
                 ;0x3F, 0x40, 0x38, 0x40, 0x3F,// 57 W
                 ;0x63, 0x14, 0x08, 0x14, 0x63,// 58 X
                 ;0x07, 0x08, 0x70, 0x08, 0x07,// 59 Y
                 ;0x61, 0x51, 0x49, 0x45, 0x43,// 5a Z
                 ;0x00, 0x7F, 0x41, 0x41, 0x00,// 5b [
                 ;0x02, 0x04, 0x08, 0x10, 0x20,// 5c Yen Currency Sign
                 ;0x00, 0x41, 0x41, 0x7F, 0x00,// 5d ]
                 ;0x04, 0x02, 0x01, 0x02, 0x04,// 5e ^
                 ;0x40, 0x40, 0x40, 0x40, 0x40,// 5f _
                 ;0x00, 0x01, 0x02, 0x04, 0x00,// 60 `
                 ;0x20, 0x54, 0x54, 0x54, 0x78,// 61 a
                 ;0x7F, 0x48, 0x44, 0x44, 0x38,// 62 b
                 ;0x38, 0x44, 0x44, 0x44, 0x20,// 63 c
                 ;0x38, 0x44, 0x44, 0x48, 0x7F,// 64 d
                 ;0x38, 0x54, 0x54, 0x54, 0x18,// 65 e
                 ;0x08, 0x7E, 0x09, 0x01, 0x02,// 66 f
                 ;0x0C, 0x52, 0x52, 0x52, 0x3E,// 67 g
                 ;0x7F, 0x08, 0x04, 0x04, 0x78,// 68 h
                 ;0x00, 0x44, 0x7D, 0x40, 0x00,// 69 i
                 ;0x20, 0x40, 0x44, 0x3D, 0x00,// 6a j
                 ;0x7F, 0x10, 0x28, 0x44, 0x00,// 6b k
                 ;0x00, 0x41, 0x7F, 0x40, 0x00,// 6c l
                 ;0x7C, 0x04, 0x18, 0x04, 0x78,// 6d m
                 ;0x7C, 0x08, 0x04, 0x04, 0x78,// 6e n
                 ;0x38, 0x44, 0x44, 0x44, 0x38,// 6f o
                 ;0x7C, 0x14, 0x14, 0x14, 0x08,// 70 p
                 ;0x08, 0x14, 0x14, 0x18, 0x7C,// 71 q
                 ;0x7C, 0x08, 0x04, 0x04, 0x08,// 72 r
                 ;0x08, 0x54, 0x54, 0x54, 0x20,// 73 s
                 ;0x04, 0x3F, 0x44, 0x40, 0x20,// 74 t
                 ;0x3C, 0x40, 0x40, 0x20, 0x7C,// 75 u
                 ;0x1C, 0x20, 0x40, 0x20, 0x1C,// 76 v
                 ;0x3C, 0x40, 0x30, 0x40, 0x3C,// 77 w
                 ;0x44, 0x28, 0x10, 0x28, 0x44,// 78 x
                 ;0x0C, 0x50, 0x50, 0x50, 0x3C,// 79 y
                 ;0x44, 0x64, 0x54, 0x4C, 0x44,// 7a z
                 ;0x00, 0x08, 0x36, 0x41, 0x00,// 7b <
                 ;0x00, 0x00, 0x7F, 0x00, 0x00,// 7c |
                 ;0x00, 0x41, 0x36, 0x08, 0x00,// 7d >
                 ;0x10, 0x08, 0x08, 0x10, 0x08,// 7e Right Arrow ->
                 ;0x78, 0x46, 0x41, 0x46, 0x78,// 7f Left Arrow <-
                 ;0x00, 0x00, 0x00, 0x00, 0x00,// 80
                 ;0x00, 0x00, 0x5F, 0x00, 0x00,// 81
                 ;0x00, 0x07, 0x00, 0x07, 0x00,// 82
                 ;0x14, 0x7F, 0x14, 0x7F, 0x14,// 83
                 ;0x24, 0x2A, 0x7F, 0x2A, 0x12,// 84
                 ;0x23, 0x13, 0x08, 0x64, 0x62,// 85
                 ;0x36, 0x49, 0x55, 0x22, 0x50,// 86
                 ;0x00, 0x05, 0x03, 0x00, 0x00,// 87
                 ;0x00, 0x1C, 0x22, 0x41, 0x00,// 88
                 ;0x00, 0x41, 0x22, 0x1C, 0x00,// 89
                 ;0x14, 0x08, 0x3E, 0x08, 0x14,// 8A
                 ;0x08, 0x08, 0x3E, 0x08, 0x08,// 8B
                 ;0x00, 0x50, 0x30, 0x00, 0x00,// 8C
                 ;0x08, 0x08, 0x08, 0x08, 0x08,// 8D
                 ;0x00, 0x60, 0x60, 0x00, 0x00,// 8E
                 ;0x20, 0x10, 0x08, 0x04, 0x02,// 8F
                 ;0x00, 0x00, 0x00, 0x00, 0x00,// 90
                 ;0x00, 0x00, 0x5F, 0x00, 0x00,// 91
                 ;0x00, 0x07, 0x00, 0x07, 0x00,// 92
                 ;0x14, 0x7F, 0x14, 0x7F, 0x14,// 93
                 ;0x24, 0x2A, 0x7F, 0x2A, 0x12,// 94
                 ;0x23, 0x13, 0x08, 0x64, 0x62,// 95
                 ;0x36, 0x49, 0x55, 0x22, 0x50,// 96
                 ;0x00, 0x05, 0x03, 0x00, 0x00,// 97
                 ;0x00, 0x1C, 0x22, 0x41, 0x00,// 98
                 ;0x00, 0x41, 0x22, 0x1C, 0x00,// 99
                 ;0x14, 0x08, 0x3E, 0x08, 0x14,// 9A
                 ;0x08, 0x08, 0x3E, 0x08, 0x08,// 9B
                 ;0x00, 0x50, 0x30, 0x00, 0x00,// 9C
                 ;0x08, 0x08, 0x08, 0x08, 0x08,// 9D
                 ;0x00, 0x60, 0x60, 0x00, 0x00,// 9E
                 ;0x20, 0x10, 0x08, 0x04, 0x02,// 9F
                 ;0x00, 0x00, 0x00, 0x00, 0x00,// A0
                 ;0x00, 0x00, 0x5F, 0x00, 0x00,// A1
                 ;0x00, 0x07, 0x00, 0x07, 0x00,// A2
                 ;0x14, 0x7F, 0x14, 0x7F, 0x14,// A3
                 ;0x24, 0x2A, 0x7F, 0x2A, 0x12,// A4
                 ;0x23, 0x13, 0x08, 0x64, 0x62,// A5
                 ;0x36, 0x49, 0x55, 0x22, 0x50,// A6
                 ;0x00, 0x05, 0x03, 0x00, 0x00,// A7
                 ;0x00, 0x1C, 0x22, 0x41, 0x00,// A8
                 ;0x00, 0x41, 0x22, 0x1C, 0x00,// A9
                 ;0x14, 0x08, 0x3E, 0x08, 0x14,// AA
                 ;0x08, 0x08, 0x3E, 0x08, 0x08,// AB
                 ;0x00, 0x50, 0x30, 0x00, 0x00,// AC
                 ;0x08, 0x08, 0x08, 0x08, 0x08,// AD
                 ;0x00, 0x60, 0x60, 0x00, 0x00,// AE
                 ;0x20, 0x10, 0x08, 0x04, 0x02,// AF
                 ;//0x3E, 0x51, 0x49, 0x45, 0x3E,// B0
                 ;0x00, 0x06, 0x09, 0x09, 0x06,
                 ;0x00, 0x42, 0x7F, 0x40, 0x00,// B1
                 ;0x42, 0x61, 0x51, 0x49, 0x46,// B2
                 ;0x21, 0x41, 0x45, 0x4B, 0x31,// B3
                 ;0x18, 0x14, 0x12, 0x7F, 0x10,// B4
                 ;0x27, 0x45, 0x45, 0x45, 0x39,// B5
                 ;0x3C, 0x4A, 0x49, 0x49, 0x30,// B6
                 ;0x01, 0x71, 0x09, 0x05, 0x03,// B7
                 ;0x36, 0x49, 0x49, 0x49, 0x36,// B8
                 ;0x06, 0x49, 0x49, 0x29, 0x1E,// B9
                 ;0x00, 0x36, 0x36, 0x00, 0x00,// BA
                 ;0x00, 0x56, 0x36, 0x00, 0x00,// BB
                 ;0x08, 0x14, 0x22, 0x41, 0x00,// BC
                 ;0x14, 0x14, 0x14, 0x14, 0x14,// BD
                 ;0x00, 0x41, 0x22, 0x14, 0x08,// BE
                 ;0x02, 0x01, 0x51, 0x09, 0x06,// BF
                 ;0x7E, 0x11, 0x11, 0x11, 0x7E,// C0 А
                 ;0x7F, 0x49, 0x49, 0x49, 0x31,// C1 Б
                 ;0x7F, 0x49, 0x49, 0x49, 0x36,// C2 В
                 ;0x7F, 0x01, 0x01, 0x01, 0x03,// C3 Г
                 ;0x60, 0x3E, 0x21, 0x21, 0x7F,// C4 Д
                 ;0x7F, 0x49, 0x49, 0x49, 0x41,// C5 Е
                 ;0x77, 0x08, 0x7F, 0x08, 0x77,// C6 Ж
                 ;0x22, 0x41, 0x49, 0x49, 0x36,// C7 З
                 ;0x7F, 0x10, 0x08, 0x04, 0x7F,// C8 И
                 ;0x7F, 0x10, 0x09, 0x04, 0x7F,// C9 И
                 ;0x7F, 0x08, 0x14, 0x22, 0x41,// CA К
                 ;0x40, 0x3E, 0x01, 0x01, 0x7F,// CB Л
                 ;0x7F, 0x02, 0x0C, 0x02, 0x7F,// CC М
                 ;0x7F, 0x08, 0x08, 0x08, 0x7F,// CD Н
                 ;0x3E, 0x41, 0x41, 0x41, 0x3E,// CE О
                 ;0x7F, 0x01, 0x01, 0x01, 0x7F,// CF П
                 ;0x7F, 0x09, 0x09, 0x09, 0x06,// D0 Р
                 ;0x3E, 0x41, 0x41, 0x41, 0x22,// D1 С
                 ;0x01, 0x01, 0x7F, 0x01, 0x01,// D2 Т
                 ;0x27, 0x48, 0x48, 0x48, 0x3F,// D3 У
                 ;0x1E, 0x21, 0x7F, 0x21, 0x1E,// D4 Ф
                 ;0x63, 0x14, 0x08, 0x14, 0x63,// D5 Х
                 ;0x3F, 0x20, 0x20, 0x3F, 0x60,// D6 Ц
                 ;0x07, 0x08, 0x08, 0x08, 0x7F,// D7 Ч
                 ;0x7F, 0x40, 0x7F, 0x40, 0x7F,// D8 Ш
                 ;0x3F, 0x20, 0x3F, 0x20, 0x7F,// D9 Щ
                 ;0x01, 0x7F, 0x48, 0x48, 0x30,// DA Ъ
                 ;0x7F, 0x48, 0x30, 0x00, 0x7F,// DB Ы
                 ;0x00, 0x7F, 0x48, 0x48, 0x30,// DC Ь
                 ;0x22, 0x41, 0x49, 0x49, 0x3E,// DD Э
                 ;0x7F, 0x08, 0x3E, 0x41, 0x3E,// DE Ю
                 ;0x46, 0x29, 0x19, 0x09, 0x7F,// DF Я
                 ;0x20, 0x54, 0x54, 0x54, 0x78,// E0 а
                 ;0x3C, 0x4A, 0x4A, 0x4A, 0x30,// E1 б
                 ;0x7C, 0x54, 0x54, 0x28, 0x00,// E2 в
                 ;0x7C, 0x04, 0x04, 0x04, 0x04,// E3 г
                 ;0x60, 0x38, 0x24, 0x24, 0x7C,// E4 д
                 ;0x38, 0x54, 0x54, 0x54, 0x18,// E5 е
                 ;0x6C, 0x10, 0x7C, 0x10, 0x6C,// E6 ж
                 ;0x00, 0x44, 0x54, 0x54, 0x28,// E7 з
                 ;0x7C, 0x20, 0x10, 0x08, 0x7C,// E8 и
                 ;0x7C, 0x21, 0x12, 0x09, 0x7C,// E9 й
                 ;0x7C, 0x10, 0x28, 0x44, 0x00,// EA к
                 ;0x40, 0x38, 0x04, 0x04, 0x7C,// EB л
                 ;0x7C, 0x08, 0x10, 0x08, 0x7C,// EC м
                 ;0x7C, 0x10, 0x10, 0x10, 0x7C,// ED н
                 ;0x38, 0x44, 0x44, 0x44, 0x38,// EE о
                 ;0x7C, 0x04, 0x04, 0x04, 0x7C,// EF п
                 ;0x7C, 0x14, 0x14, 0x14, 0x08,// F0 р
                 ;0x38, 0x44, 0x44, 0x44, 0x00,// F1 с
                 ;0x04, 0x04, 0x7C, 0x04, 0x04,// F2 т
                 ;0x0C, 0x50, 0x50, 0x50, 0x3C,// F3 у
                 ;0x08, 0x14, 0x7C, 0x14, 0x08,// F4 ф
                 ;0x44, 0x28, 0x10, 0x28, 0x44,// F5 х
                 ;0x3C, 0x20, 0x20, 0x3C, 0x60,// F6 ц
                 ;0x0C, 0x10, 0x10, 0x10, 0x7C,// F7 ч
                 ;0x7C, 0x40, 0x7C, 0x40, 0x7C,// F8 ш
                 ;0x3C, 0x20, 0x3C, 0x20, 0x7C,// F9 щ
                 ;0x04, 0x7C, 0x50, 0x50, 0x20,// FA ъ
                 ;0x7C, 0x50, 0x20, 0x00, 0x7C,// FB ы
                 ;0x00, 0x7C, 0x50, 0x50, 0x20,// FC ь
                 ;0x28, 0x44, 0x54, 0x54, 0x38,// FD э
                 ;0x7C, 0x10, 0x38, 0x44, 0x38,// FE ю
                 ;0x48, 0x54, 0x34, 0x14, 0x7C // FF я
                 ;};
                 ;
                 ;flash unsigned char BigNum[15][96] =
                 ;{ //0
                 ;{0x00, 0x00, 0x00, 0xC0, 0xE0, 0xF0, 0xF0, 0xF0, 0xF0, 0xF0, 0xF0, 0xF0, 0xF0, 0xF0, 0xF0, 0xF0,
                 ;0xF0, 0xF0, 0xF0, 0xE0, 0xC0, 0x00, 0x00, 0x00, 0x00, 0x00, 0x00, 0xFF, 0xFF, 0xFF, 0xFF, 0x01,
                 ;0x00, 0x00, 0x00, 0x00, 0x00, 0x00, 0x00, 0x00, 0x01, 0xFF, 0xFF, 0xFF, 0xFF, 0x00, 0x00, 0x00,
                 ;0x00, 0x00, 0x00, 0xFF, 0xFF, 0xFF, 0xFF, 0x80, 0x00, 0x00, 0x00, 0x00, 0x00, 0x00, 0x00, 0x00,
                 ;0x80, 0xFF, 0xFF, 0xFF, 0xFF, 0x00, 0x00, 0x00, 0x00, 0x00, 0x00, 0x03, 0x07, 0x0F, 0x0F, 0x0F,
                 ;0x0F, 0x0F, 0x0F, 0x0F, 0x0F, 0x0F, 0x0F, 0x0F, 0x0F, 0x0F, 0x0F, 0x07, 0x03, 0x00, 0x00, 0x00},
                 ; //1
                 ;{0x00, 0x00, 0x00, 0x00, 0x00, 0x00, 0x00, 0x00, 0x00, 0x00, 0x00, 0x00, 0x00, 0x00, 0xE0, 0xF0,
                 ;0xF0, 0xE0, 0x00, 0x00, 0x00, 0x00, 0x00, 0x00, 0x00, 0x00, 0x00, 0x00, 0x00, 0x00, 0x00, 0x00,
                 ;0x00, 0x00, 0x00, 0x00, 0x00, 0x00, 0xFF, 0xFF, 0xFF, 0xFF, 0x00, 0x00, 0x00, 0x00, 0x00, 0x00,
                 ;0x00, 0x00, 0x00, 0x00, 0x00, 0x00, 0x00, 0x00, 0x00, 0x00, 0x00, 0x00, 0x00, 0x00, 0xFF, 0xFF,
                 ;0xFF, 0xFF, 0x00, 0x00, 0x00, 0x00, 0x00, 0x00, 0x00, 0x00, 0x00, 0x00, 0x00, 0x00, 0x00, 0x00,
                 ;0x00, 0x00, 0x00, 0x00, 0x00, 0x00, 0x03, 0x07, 0x07, 0x03, 0x00, 0x00, 0x00, 0x00, 0x00, 0x00},
                 ; //2
                 ;{0x00, 0x00, 0x00, 0xE0, 0xF0, 0xF0, 0xF0, 0xF0, 0xF0, 0xF0, 0xF0, 0xF0, 0xF0, 0xF0, 0xF0, 0xF0,
                 ;0xF0, 0xF0, 0xF0, 0xE0, 0x00, 0x00, 0x00, 0x00, 0x00, 0x00, 0x00, 0x81, 0xC1, 0xC0, 0xC0, 0xC0,
                 ;0xC0, 0xC0, 0xC0, 0xC0, 0xC0, 0xC0, 0xC0, 0xE1, 0xFF, 0xFF, 0xFF, 0xFF, 0x00, 0x00, 0x00, 0x00,
                 ;0x00, 0x00, 0x00, 0xFF, 0xFF, 0xFF, 0xFF, 0x87, 0x03, 0x03, 0x03, 0x03, 0x03, 0x03, 0x03, 0x03,
                 ;0x03, 0x03, 0x83, 0x81, 0x00, 0x00, 0x00, 0x00, 0x00, 0x00, 0x00, 0x07, 0x0F, 0x0F, 0x0F, 0x0F,
                 ;0x0F, 0x0F, 0x0F, 0x0F, 0x0F, 0x0F, 0x0F, 0x0F, 0x0F, 0x0F, 0x0F, 0x07, 0x00, 0x00, 0x00, 0x00},
                 ;   //3
                 ;{0x00, 0x00, 0x00, 0xE0, 0xF0, 0xF0, 0xF0, 0xF0, 0xF0, 0xF0, 0xF0, 0xF0, 0xF0, 0xF0, 0xF0, 0xF0,
                 ;0xF0, 0xF0, 0xF0, 0xE0, 0x00, 0x00, 0x00, 0x00, 0x00, 0x00, 0x00, 0x81, 0xC1, 0xC0, 0xC0, 0xC0,
                 ;0xC0, 0xC0, 0xC0, 0xC0, 0xC0, 0xC0, 0xC0, 0xE1, 0xFF, 0xFF, 0xFF, 0x7F, 0x00, 0x00, 0x00, 0x00,
                 ;0x00, 0x00, 0x00, 0x81, 0x83, 0x03, 0x03, 0x03, 0x03, 0x03, 0x03, 0x03, 0x03, 0x03, 0x03, 0x87,
                 ;0xFF, 0xFF, 0xFF, 0xFE, 0x00, 0x00, 0x00, 0x00, 0x00, 0x00, 0x00, 0x07, 0x0F, 0x0F, 0x0F, 0x0F,
                 ;0x0F, 0x0F, 0x0F, 0x0F, 0x0F, 0x0F, 0x0F, 0x0F, 0x0F, 0x0F, 0x0F, 0x07, 0x00, 0x00, 0x00, 0x00},
                 ;  //4
                 ;{0x00, 0x00, 0x00, 0xE0, 0xF0, 0xF0, 0xF0, 0x30, 0x00, 0x00, 0x00, 0x00, 0x00, 0x00, 0x00, 0x30,
                 ;0xF0, 0xF0, 0xF0, 0xE0, 0x00, 0x00, 0x00, 0x00, 0x00, 0x00, 0x00, 0xFF, 0xFF, 0xFF, 0xFF, 0xE0,
                 ;0xC0, 0xC0, 0xC0, 0xC0, 0xC0, 0xC0, 0xC0, 0xE0, 0xFF, 0xFF, 0xFF, 0xFF, 0x00, 0x00, 0x00, 0x00,
                 ;0x00, 0x00, 0x00, 0x01, 0x03, 0x03, 0x03, 0x03, 0x03, 0x03, 0x03, 0x03, 0x03, 0x03, 0x03, 0x07,
                 ;0xFF, 0xFF, 0xFF, 0xFF, 0x00, 0x00, 0x00, 0x00, 0x00, 0x00, 0x00, 0x00, 0x00, 0x00, 0x00, 0x00,
                 ;0x00, 0x00, 0x00, 0x00, 0x00, 0x00, 0x00, 0x0C, 0x0F, 0x0F, 0x0F, 0x07, 0x00, 0x00, 0x00, 0x00},
                 ;  //5
                 ;{0x00, 0x00, 0x00, 0xE0, 0xF0, 0xF0, 0xF0, 0xF0, 0xF0, 0xF0, 0xF0, 0xF0, 0xF0, 0xF0, 0xF0, 0xF0,
                 ;0xF0, 0xF0, 0xF0, 0xE0, 0x00, 0x00, 0x00, 0x00, 0x00, 0x00, 0x00, 0xFF, 0xFF, 0xFF, 0xFF, 0xE1,
                 ;0xC0, 0xC0, 0xC0, 0xC0, 0xC0, 0xC0, 0xC0, 0xC0, 0xC0, 0xC0, 0xC1, 0x81, 0x00, 0x00, 0x00, 0x00,
                 ;0x00, 0x00, 0x00, 0x81, 0x83, 0x03, 0x03, 0x03, 0x03, 0x03, 0x03, 0x03, 0x03, 0x03, 0x03, 0x87,
                 ;0xFF, 0xFF, 0xFF, 0xFF, 0x00, 0x00, 0x00, 0x00, 0x00, 0x00, 0x00, 0x07, 0x0F, 0x0F, 0x0F, 0x0F,
                 ;0x0F, 0x0F, 0x0F, 0x0F, 0x0F, 0x0F, 0x0F, 0x0F, 0x0F, 0x0F, 0x0F, 0x07, 0x00, 0x00, 0x00, 0x00},
                 ; //6
                 ;{0x00, 0x00, 0x00, 0xE0, 0xF0, 0xF0, 0xF0, 0xF0, 0xF0, 0xF0, 0xF0, 0xF0, 0xF0, 0xF0, 0xF0, 0xF0,
                 ;0xF0, 0xF0, 0xF0, 0xE0, 0x00, 0x00, 0x00, 0x00, 0x00, 0x00, 0x00, 0xFF, 0xFF, 0xFF, 0xFF, 0xE1,
                 ;0xC0, 0xC0, 0xC0, 0xC0, 0xC0, 0xC0, 0xC0, 0xC0, 0xC0, 0xC0, 0xC1, 0x81, 0x00, 0x00, 0x00, 0x00,
                 ;0x00, 0x00, 0x00, 0xFF, 0xFF, 0xFF, 0xFF, 0x87, 0x03, 0x03, 0x03, 0x03, 0x03, 0x03, 0x03, 0x87,
                 ;0xFF, 0xFF, 0xFF, 0xFF, 0x00, 0x00, 0x00, 0x00, 0x00, 0x00, 0x00, 0x07, 0x0F, 0x0F, 0x0F, 0x0F,
                 ;0x0F, 0x0F, 0x0F, 0x0F, 0x0F, 0x0F, 0x0F, 0x0F, 0x0F, 0x0F, 0x0F, 0x07, 0x00, 0x00, 0x00, 0x00},
                 ;  //7
                 ;{0x00, 0x00, 0x00, 0xE0, 0xF0, 0xF0, 0xF0, 0xF0, 0xF0, 0xF0, 0xF0, 0xF0, 0xF0, 0xF0, 0xF0, 0xF0,
                 ;0xF0, 0xF0, 0xF0, 0xE0, 0x00, 0x00, 0x00, 0x00, 0x00, 0x00, 0x00, 0x01, 0x01, 0x00, 0x00, 0x00,
                 ;0x00, 0x00, 0x00, 0x00, 0x00, 0x00, 0x00, 0x01, 0xFF, 0xFF, 0xFF, 0xFF, 0x00, 0x00, 0x00, 0x00,
                 ;0x00, 0x00, 0x00, 0x00, 0x00, 0x00, 0x00, 0x00, 0x00, 0x00, 0x00, 0x00, 0x00, 0x00, 0x00, 0x00,
                 ;0xFF, 0xFF, 0xFF, 0xFF, 0x00, 0x00, 0x00, 0x00, 0x00, 0x00, 0x00, 0x00, 0x00, 0x00, 0x00, 0x00,
                 ;0x00, 0x00, 0x00, 0x00, 0x00, 0x00, 0x00, 0x0C, 0x0F, 0x0F, 0x0F, 0x07, 0x00, 0x00, 0x00, 0x00},
                 ;  //8
                 ;{0x00, 0x00, 0x00, 0xE0, 0xF0, 0xF0, 0xF0, 0xF0, 0xF0, 0xF0, 0xF0, 0xF0, 0xF0, 0xF0, 0xF0, 0xF0,
                 ;0xF0, 0xF0, 0xF0, 0xE0, 0x00, 0x00, 0x00, 0x00, 0x00, 0x00, 0x00, 0x7F, 0xFF, 0xFF, 0xFF, 0xE1,
                 ;0xC0, 0xC0, 0xC0, 0xC0, 0xC0, 0xC0, 0xC0, 0xE1, 0xFF, 0xFF, 0xFF, 0x3F, 0x00, 0x00, 0x00, 0x00,
                 ;0x00, 0x00, 0x00, 0xFE, 0xFF, 0xFF, 0xFF, 0x87, 0x03, 0x03, 0x03, 0x03, 0x03, 0x03, 0x03, 0x87,
                 ;0xFF, 0xFF, 0xFF, 0xFE, 0x00, 0x00, 0x00, 0x00, 0x00, 0x00, 0x00, 0x07, 0x0F, 0x0F, 0x0F, 0x0F,
                 ;0x0F, 0x0F, 0x0F, 0x0F, 0x0F, 0x0F, 0x0F, 0x0F, 0x0F, 0x0F, 0x0F, 0x07, 0x00, 0x00, 0x00, 0x00},
                 ;    //9
                 ;{0x00, 0x00, 0x00, 0xE0, 0xF0, 0xF0, 0xF0, 0xF0, 0xF0, 0xF0, 0xF0, 0xF0, 0xF0, 0xF0, 0xF0, 0xF0,
                 ;0xF0, 0xF0, 0xF0, 0xE0, 0x00, 0x00, 0x00, 0x00, 0x00, 0x00, 0x00, 0xFF, 0xFF, 0xFF, 0xFF, 0xE1,
                 ;0xC0, 0xC0, 0xC0, 0xC0, 0xC0, 0xC0, 0xC0, 0xE1, 0xFF, 0xFF, 0xFF, 0xFF, 0x00, 0x00, 0x00, 0x00,
                 ;0x00, 0x00, 0x00, 0x01, 0x03, 0x03, 0x03, 0x03, 0x03, 0x03, 0x03, 0x03, 0x03, 0x03, 0x03, 0x07,
                 ;0xFF, 0xFF, 0xFF, 0xFF, 0x00, 0x00, 0x00, 0x00, 0x00, 0x00, 0x00, 0x00, 0x00, 0x00, 0x00, 0x00,
                 ;0x00, 0x00, 0x00, 0x00, 0x00, 0x00, 0x00, 0x0C, 0x0F, 0x0F, 0x0F, 0x07, 0x00, 0x00, 0x00, 0x00},
                 ;  //:    10
                 ;{0x00, 0x00, 0x00, 0x00, 0x00, 0x00, 0x00, 0x00, 0x00, 0x00, 0x00, 0x00, 0x00, 0x00, 0x00, 0x00, 0x00, 0x00, 0x00, 0x00, ...
                 ; 0x00, 0x00, 0x00, 0x00, 0x00, 0x00, 0x00, 0x00, 0x00, 0x3C, 0x7E, 0x7E, 0x7E, 0x7E, 0x3C, 0x00, 0x00, 0x00, 0x00, 0x00, ...
                 ; 0x00, 0x00, 0x00, 0x00, 0x00, 0x00, 0x00, 0x00, 0x00, 0xF0, 0xF8, 0xF8, 0xF8, 0xF8, 0xF0, 0x00, 0x00, 0x00, 0x00, 0x00, ...
                 ; 0x00, 0x00, 0x00, 0x00, 0x00, 0x00, 0x00, 0x00, 0x00, 0x00, 0x01, 0x01, 0x01, 0x01, 0x00, 0x00, 0x00, 0x00, 0x00, 0x00, ...
                 ;  //.    11
                 ;{0x00, 0x00, 0x00, 0x00, 0x00, 0x00, 0x00, 0x00, 0x00, 0x00, 0x00, 0x00, 0x00, 0x00, 0x00, 0x00, 0x00, 0x00, 0x00, 0x00, ...
                 ; 0x00, 0x00, 0x00, 0x00, 0x00, 0x00, 0x00, 0x00, 0x00, 0x00, 0x00, 0x00, 0x00, 0x00, 0x00, 0x00, 0x00, 0x00, 0x00, 0x00, ...
                 ; 0x00, 0x00, 0x00, 0x00, 0x00, 0x00, 0x00, 0x00, 0x00, 0xc0, 0xc0, 0xc0, 0xc0, 0xc0, 0xc0, 0x00, 0x00, 0x00, 0x00, 0x00, ...
                 ; 0x00, 0x00, 0x00, 0x00, 0x00, 0x00, 0x00, 0x00, 0x00, 0x0f, 0x0f, 0x0f, 0x0f, 0x0f, 0x0f, 0x00, 0x00, 0x00, 0x00, 0x00, ...
                 ; //space   12
                 ;{0x00, 0x00, 0x00, 0x00, 0x00, 0x00, 0x00, 0x00, 0x00, 0x00, 0x00, 0x00, 0x00, 0x00, 0x00, 0x00, 0x00, 0x00, 0x00, 0x00, ...
                 ; 0x00, 0x00, 0x00, 0x00, 0x00, 0x00, 0x00, 0x00, 0x00, 0x00, 0x00, 0x00, 0x00, 0x00, 0x00, 0x00, 0x00, 0x00, 0x00, 0x00, ...
                 ; 0x00, 0x00, 0x00, 0x00, 0x00, 0x00, 0x00, 0x00, 0x00, 0x00, 0x00, 0x00, 0x00, 0x00, 0x00, 0x00, 0x00, 0x00, 0x00, 0x00, ...
                 ; 0x00, 0x00, 0x00, 0x00, 0x00, 0x00, 0x00, 0x00, 0x00, 0x00, 0x00, 0x00, 0x00, 0x00, 0x00, 0x00, 0x00, 0x00, 0x00, 0x00, ...
                 ; //Градусы    13
                 ;{0x00, 0x00, 0x00, 0x00, 0x00, 0x00, 0x00, 0x00, 0x00, 0x1F, 0x11, 0x11, 0x11, 0x1F, 0x00, 0x00, 0x00, 0x00, 0x00, 0x00, ...
                 ; 0x00, 0x00, 0x00, 0x00, 0x00, 0x00, 0x00, 0x00, 0x00, 0x00, 0x00, 0x00, 0x00, 0x00, 0x00, 0x00, 0x00, 0x00, 0x00, 0x00, ...
                 ; 0x00, 0x00, 0x00, 0x00, 0x00, 0x00, 0x00, 0x00, 0x00, 0x00, 0x00, 0x00, 0x00, 0x00, 0x00, 0x00, 0x00, 0x00, 0x00, 0x00, ...
                 ; 0x00, 0x00, 0x00, 0x00, 0x00, 0x00, 0x00, 0x00, 0x00, 0x00, 0x00, 0x00, 0x00, 0x00, 0x00, 0x00, 0x00, 0x00, 0x00, 0x00, ...
                 ;
                 ;};
                 ;
                 ;
                 ;//7 running dog pictures
                 ;flash unsigned char dog0[1024]={
                 ;0x00, 0x00, 0x00, 0x00, 0x00, 0x00, 0x00, 0x00,
                 ;0x00, 0x00, 0x00, 0x00, 0x00, 0x00, 0x00, 0x00,
                 ;0x00, 0x00, 0x00, 0x00, 0x00, 0x00, 0x00, 0x00,
                 ;0x00, 0x00, 0x00, 0x00, 0x00, 0x00, 0x00, 0x00,
                 ;0x00, 0x00, 0x00, 0x00, 0x00, 0x00, 0x00, 0x00,
                 ;0x00, 0x00, 0x00, 0x00, 0x00, 0x00, 0x00, 0x00,
                 ;0x00, 0x80, 0x80, 0x80, 0x80, 0x80, 0x80, 0x00,
                 ;0x00, 0x00, 0x00, 0x00, 0x00, 0x00, 0x00, 0x00,
                 ;0x00, 0x00, 0x00, 0x00, 0x00, 0x00, 0x00, 0x00,
                 ;0x00, 0x00, 0x00, 0x00, 0x00, 0x00, 0x00, 0x00,
                 ;0x00, 0x00, 0x00, 0x00, 0x00, 0x00, 0x00, 0x00,
                 ;0x00, 0x00, 0x00, 0x00, 0x00, 0x00, 0x00, 0x00,
                 ;0x00, 0x00, 0x00, 0x00, 0x00, 0x00, 0x00, 0x00,
                 ;0x00, 0x00, 0x00, 0x00, 0x00, 0x00, 0x00, 0x00,
                 ;0x00, 0x00, 0x00, 0x00, 0x00, 0x00, 0x00, 0x00,
                 ;0x00, 0x00, 0x00, 0x00, 0x00, 0x00, 0x00, 0x00,
                 ;0x00, 0x00, 0x00, 0x02, 0x02, 0x06, 0x0E, 0x0E,
                 ;0x1E, 0x3C, 0x7C, 0xF8, 0xF0, 0xE0, 0xE0, 0xC0,
                 ;0x80, 0x00, 0x00, 0x00, 0x00, 0x00, 0x00, 0x00,
                 ;0x00, 0x00, 0x00, 0x00, 0x00, 0x00, 0x00, 0x00,
                 ;0x00, 0x00, 0x00, 0xC0, 0xC0, 0xE0, 0xF0, 0xF8,
                 ;0xF8, 0xFC, 0xFE, 0xFE, 0xFE, 0xFF, 0xFF, 0xFF,
                 ;0xFF, 0xFF, 0xFF, 0xFF, 0xFF, 0xFF, 0xFF, 0xFF,
                 ;0xFF, 0xFF, 0xFF, 0xFE, 0xFE, 0xFE, 0xFC, 0xFC,
                 ;0xFC, 0xF8, 0xF0, 0xF0, 0xE0, 0xE0, 0xC0, 0xC0,
                 ;0xC0, 0x80, 0x80, 0x80, 0x80, 0x80, 0x00, 0x00,
                 ;0x00, 0x00, 0x00, 0x00, 0x00, 0x00, 0x60, 0xF0,
                 ;0xF0, 0xF0, 0xF0, 0xF0, 0xF0, 0xF0, 0xE0, 0xE0,
                 ;0xE0, 0xE0, 0xE0, 0xE0, 0xE0, 0xF0, 0xF0, 0xF0,
                 ;0xF0, 0xF0, 0xF0, 0xE0, 0xC0, 0x80, 0x00, 0x00,
                 ;0x00, 0x00, 0x00, 0x00, 0x00, 0x00, 0x00, 0x00,
                 ;0x00, 0x00, 0x00, 0x00, 0x00, 0x00, 0x00, 0x00,
                 ;0x00, 0x00, 0x00, 0x00, 0x00, 0x00, 0x00, 0x00,
                 ;0x00, 0x00, 0x00, 0x01, 0x03, 0x07, 0x0F, 0x0F,
                 ;0x1F, 0x3F, 0x7E, 0x7E, 0xFC, 0xFC, 0xF8, 0xF8,
                 ;0xF0, 0xF0, 0xE0, 0xE0, 0xE0, 0xE0, 0xF0, 0xF8,
                 ;0xFC, 0xFE, 0xFF, 0xFF, 0xFF, 0xFF, 0xFF, 0xFF,
                 ;0xFF, 0xFF, 0xFF, 0xFF, 0xFF, 0xFF, 0xFF, 0xFF,
                 ;0xFF, 0xFF, 0xFF, 0xFF, 0xFF, 0xFF, 0xFF, 0xFF,
                 ;0xFF, 0xFF, 0xFF, 0xFF, 0xFF, 0xFF, 0xFF, 0xFF,
                 ;0xFF, 0xFF, 0xFF, 0xFF, 0xFF, 0xFF, 0xFF, 0xFF,
                 ;0xFF, 0xFF, 0xFF, 0xFF, 0xFF, 0xFF, 0xFF, 0xFF,
                 ;0xFF, 0xFE, 0xFE, 0xFC, 0xFC, 0xFC, 0xF8, 0xF9,
                 ;0xFF, 0xFF, 0xFF, 0xFF, 0xFF, 0xFF, 0xFF, 0xFF,
                 ;0xFF, 0xFF, 0xFF, 0xFF, 0xFF, 0xFF, 0xFF, 0xFF,
                 ;0xFF, 0xFF, 0xFF, 0xFF, 0xFF, 0xFF, 0xFF, 0xFF,
                 ;0xFE, 0xFC, 0xF8, 0xF8, 0xF8, 0xF0, 0xF0, 0x00,
                 ;0x00, 0x00, 0x00, 0x00, 0x00, 0x00, 0x00, 0x00,
                 ;0x00, 0x00, 0x00, 0x00, 0x00, 0x00, 0x00, 0x00,
                 ;0x00, 0x00, 0x00, 0x00, 0x00, 0x00, 0x00, 0x00,
                 ;0x00, 0x00, 0x00, 0x00, 0x00, 0x00, 0x01, 0x01,
                 ;0x03, 0x03, 0x07, 0x07, 0x07, 0x03, 0x03, 0x03,
                 ;0x01, 0x01, 0x01, 0x01, 0x03, 0x07, 0x1F, 0x3F,
                 ;0x7F, 0xFF, 0xFF, 0xFF, 0xFF, 0xFF, 0xFF, 0xFF,
                 ;0xFF, 0xFF, 0xFF, 0xFF, 0xFF, 0xFF, 0xFF, 0xFF,
                 ;0xFF, 0xFF, 0xFF, 0xFF, 0xFF, 0xFF, 0xFF, 0xFF,
                 ;0xFF, 0xFF, 0xFF, 0xFF, 0xFF, 0xFF, 0xFF, 0xFF,
                 ;0xFF, 0xFF, 0xFF, 0xFF, 0xFF, 0xFF, 0xFF, 0xFF,
                 ;0xFF, 0xFF, 0xFF, 0xFF, 0xFF, 0xFF, 0xFF, 0xFF,
                 ;0xFF, 0xFF, 0xFF, 0xFF, 0xFF, 0xFF, 0x7F, 0x7F,
                 ;0x3F, 0x1F, 0x1F, 0x0F, 0x0F, 0x0F, 0x0F, 0x0F,
                 ;0x0F, 0x0F, 0x0F, 0x0F, 0x0F, 0x0F, 0x0F, 0x0F,
                 ;0x0F, 0x0F, 0x0F, 0x07, 0x03, 0x01, 0x00, 0x00,
                 ;0x00, 0x00, 0x00, 0x00, 0x00, 0x00, 0x00, 0x00,
                 ;0x00, 0x00, 0x00, 0x00, 0x00, 0x00, 0x00, 0x00,
                 ;0x00, 0x00, 0x00, 0x00, 0x00, 0x00, 0x00, 0x00,
                 ;0x00, 0x00, 0x00, 0x00, 0x00, 0x00, 0x00, 0x00,
                 ;0x00, 0x00, 0x00, 0x00, 0x00, 0x00, 0x00, 0x00,
                 ;0x00, 0x00, 0x1F, 0xFF, 0xFF, 0xFE, 0xFE, 0xBE,
                 ;0x3E, 0x3F, 0x3F, 0x3F, 0x3F, 0x3F, 0x7F, 0xFF,
                 ;0xFF, 0xFF, 0xFF, 0xFF, 0xBF, 0x1F, 0x1F, 0x1F,
                 ;0x1F, 0x1F, 0x0F, 0x03, 0x03, 0x03, 0x03, 0x07,
                 ;0x07, 0xFF, 0xFF, 0xFF, 0xFF, 0xFF, 0xFF, 0xFF,
                 ;0xFF, 0xFF, 0xFF, 0xFF, 0xFF, 0xFF, 0xFF, 0xFF,
                 ;0x7F, 0x7F, 0x3F, 0x3F, 0x1F, 0x1F, 0x0F, 0x0F,
                 ;0x07, 0x03, 0x03, 0x01, 0x00, 0x00, 0x00, 0x00,
                 ;0x00, 0x00, 0x00, 0x00, 0x00, 0x00, 0x00, 0x00,
                 ;0x00, 0x00, 0x00, 0x00, 0x00, 0x00, 0x00, 0x00,
                 ;0x00, 0x00, 0x00, 0x00, 0x00, 0x00, 0x00, 0x00,
                 ;0x00, 0x00, 0x00, 0x00, 0x00, 0x00, 0x00, 0x00,
                 ;0x00, 0x00, 0x00, 0x00, 0x00, 0x00, 0x00, 0x00,
                 ;0x00, 0x00, 0x00, 0x00, 0x00, 0x00, 0x00, 0x00,
                 ;0x00, 0x00, 0x00, 0x00, 0x00, 0x00, 0x00, 0x00,
                 ;0x00, 0x00, 0x00, 0x00, 0x00, 0x00, 0x00, 0x00,
                 ;0x00, 0x00, 0x00, 0x00, 0x1F, 0xFF, 0xFF, 0xFF,
                 ;0xF8, 0xC0, 0x00, 0x00, 0x00, 0x00, 0x00, 0x00,
                 ;0x03, 0x07, 0x0F, 0x3F, 0xFF, 0xFF, 0xFE, 0xFC,
                 ;0xF8, 0xE0, 0x00, 0x00, 0x00, 0x00, 0x00, 0x00,
                 ;0xF0, 0xFF, 0xFF, 0xFF, 0xFF, 0xFF, 0xFF, 0xFF,
                 ;0xFF, 0x7F, 0x3F, 0x1F, 0x0F, 0x07, 0x01, 0x00,
                 ;0x00, 0x00, 0x00, 0x00, 0x00, 0x00, 0x00, 0x00,
                 ;0x00, 0x00, 0x00, 0x00, 0x00, 0x00, 0x00, 0x00,
                 ;0x00, 0x00, 0x00, 0x00, 0x00, 0x00, 0x00, 0x00,
                 ;0x00, 0x00, 0x00, 0x00, 0x00, 0x00, 0x00, 0x00,
                 ;0x00, 0x00, 0x00, 0x00, 0x00, 0x00, 0x00, 0x00,
                 ;0x00, 0x00, 0x00, 0x00, 0x00, 0x00, 0x00, 0x00,
                 ;0x00, 0x00, 0x00, 0x00, 0x00, 0x00, 0x00, 0x00,
                 ;0x00, 0x00, 0x00, 0x00, 0x00, 0x00, 0x00, 0x00,
                 ;0x00, 0x00, 0x00, 0x00, 0x00, 0x00, 0x00, 0x00,
                 ;0x00, 0x00, 0x00, 0x00, 0x00, 0x00, 0x00, 0x00,
                 ;0x00, 0x00, 0x00, 0x00, 0x07, 0x3F, 0x3F, 0x1F,
                 ;0x1F, 0x0F, 0x00, 0x00, 0x00, 0x00, 0x00, 0x00,
                 ;0x00, 0x00, 0x00, 0x00, 0x07, 0x0F, 0xE7, 0xF7,
                 ;0xF3, 0xF1, 0xF0, 0xF0, 0xF0, 0xF8, 0xF8, 0xFE,
                 ;0xFF, 0x7F, 0x3F, 0x1F, 0x0F, 0x03, 0x01, 0x01,
                 ;0x00, 0x00, 0x00, 0x00, 0x00, 0x00, 0x00, 0x00,
                 ;0x00, 0x00, 0x00, 0x00, 0x00, 0x00, 0x00, 0x00,
                 ;0x00, 0x00, 0x00, 0x00, 0x00, 0x00, 0x00, 0x00,
                 ;0x00, 0x00, 0x00, 0x00, 0x00, 0x00, 0x00, 0x00,
                 ;0x00, 0x00, 0x00, 0x00, 0x00, 0x00, 0x00, 0x00,
                 ;0x00, 0x00, 0x00, 0x00, 0x00, 0x00, 0x00, 0x00,
                 ;0x00, 0x00, 0x00, 0x00, 0x00, 0x00, 0x00, 0x00,
                 ;0x00, 0x00, 0x00, 0x00, 0x00, 0x00, 0x00, 0x00,
                 ;0x00, 0x00, 0x00, 0x00, 0x00, 0x00, 0x00, 0x00,
                 ;0x00, 0x00, 0x00, 0x00, 0x00, 0x00, 0x00, 0x00,
                 ;0x00, 0x00, 0x00, 0x00, 0x00, 0x00, 0x00, 0x00,
                 ;0x00, 0x00, 0x00, 0x00, 0x00, 0x00, 0x00, 0x00,
                 ;0x00, 0x00, 0x00, 0x00, 0x00, 0x00, 0x00, 0x00,
                 ;0x00, 0x00, 0x00, 0x00, 0x00, 0x00, 0x00, 0x01,
                 ;0x03, 0x03, 0x0F, 0x7F, 0xFF, 0xFF, 0xFF, 0xFF,
                 ;0xF8, 0xF0, 0xF0, 0x00, 0x00, 0x00, 0x00, 0x00,
                 ;0x00, 0x00, 0x00, 0x00, 0x00, 0x00, 0x00, 0x00,
                 ;0x00, 0x00, 0x00, 0x00, 0x00, 0x00, 0x00, 0x00,
                 ;0x00, 0x00, 0x00, 0x00, 0x00, 0x00, 0x00, 0x00,
                 ;0x00, 0x00, 0x00, 0x00, 0x00, 0x00, 0x00, 0x00,
                 ;0x00, 0x00, 0x00, 0x00, 0x00, 0x00, 0x00, 0x00,
                 ;0x00, 0x00, 0x00, 0x00, 0x00, 0x00, 0x00, 0x00,
                 ;0x00, 0x00, 0x00, 0x00, 0x00, 0x00, 0x00, 0x00
                 ;};
                 ;
                 ;flash unsigned char dog1[1024]={
                 ;0x00, 0x00, 0x00, 0x00, 0x00, 0x00, 0x00, 0x00,
                 ;0x00, 0x00, 0x00, 0x00, 0x00, 0x00, 0x00, 0x00,
                 ;0x00, 0x00, 0x00, 0x00, 0x00, 0x00, 0x00, 0x00,
                 ;0x00, 0x00, 0x00, 0x00, 0x00, 0x00, 0x00, 0x00,
                 ;0x00, 0x00, 0x00, 0x00, 0x00, 0x00, 0x00, 0x00,
                 ;0x00, 0x00, 0x00, 0x00, 0x00, 0x00, 0x00, 0x00,
                 ;0x00, 0x00, 0x00, 0x00, 0x00, 0x00, 0x00, 0x00,
                 ;0x00, 0x00, 0x00, 0x00, 0x00, 0x00, 0x00, 0x00,
                 ;0x00, 0x00, 0x00, 0x00, 0x00, 0x00, 0x00, 0x00,
                 ;0x00, 0x00, 0x00, 0x00, 0x00, 0x00, 0x00, 0x00,
                 ;0x00, 0x00, 0x00, 0x00, 0x00, 0x00, 0x00, 0x00,
                 ;0x00, 0x00, 0x00, 0x00, 0x00, 0x00, 0x00, 0x00,
                 ;0x00, 0x00, 0x00, 0x00, 0x00, 0x00, 0x00, 0x00,
                 ;0x00, 0x00, 0x00, 0x00, 0x00, 0x00, 0x00, 0x00,
                 ;0x00, 0x00, 0x00, 0x00, 0x00, 0x00, 0x00, 0x00,
                 ;0x00, 0x00, 0x00, 0x00, 0x00, 0x00, 0x00, 0x00,
                 ;0x00, 0x00, 0x00, 0x00, 0x00, 0x00, 0x00, 0x00,
                 ;0x00, 0x00, 0x00, 0x00, 0x00, 0x00, 0x00, 0x00,
                 ;0x00, 0x00, 0x00, 0x00, 0x00, 0x00, 0x00, 0x00,
                 ;0x00, 0x00, 0x00, 0x00, 0x00, 0x00, 0x00, 0x00,
                 ;0x00, 0x00, 0x00, 0x00, 0x80, 0xC0, 0xC0, 0xE0,
                 ;0xF0, 0xF0, 0xF0, 0xF8, 0xF8, 0xF8, 0xF8, 0xF8,
                 ;0xF8, 0xF8, 0xF8, 0xF8, 0xF0, 0xF0, 0xF0, 0xF0,
                 ;0xF0, 0xE0, 0xC0, 0xC0, 0x80, 0x80, 0x00, 0x00,
                 ;0x00, 0x00, 0x00, 0x00, 0x00, 0x00, 0x00, 0x00,
                 ;0x00, 0x00, 0x00, 0x00, 0x00, 0x00, 0x00, 0x00,
                 ;0x00, 0x00, 0x00, 0x00, 0x00, 0x00, 0x00, 0x00,
                 ;0x00, 0x00, 0x00, 0x00, 0x00, 0x00, 0x80, 0x80,
                 ;0x80, 0xC0, 0xC0, 0xE0, 0xE0, 0xF0, 0xE0, 0xE0,
                 ;0xC0, 0xC0, 0x80, 0x80, 0x00, 0x00, 0x00, 0x00,
                 ;0x00, 0x00, 0x00, 0x00, 0x00, 0x00, 0x00, 0x00,
                 ;0x00, 0x00, 0x00, 0x00, 0x00, 0x00, 0x00, 0x00,
                 ;0x00, 0x00, 0x00, 0x00, 0x00, 0x00, 0x00, 0x00,
                 ;0x00, 0x00, 0x00, 0x00, 0x00, 0x00, 0x00, 0x00,
                 ;0x00, 0x00, 0x00, 0x00, 0x00, 0x00, 0x00, 0x00,
                 ;0x00, 0x00, 0x00, 0x00, 0x00, 0x00, 0x00, 0x80,
                 ;0xE0, 0xF8, 0xFC, 0xFF, 0xFF, 0xFF, 0xFF, 0xFF,
                 ;0xFF, 0xFF, 0xFF, 0xFF, 0xFF, 0xFF, 0xFF, 0xFF,
                 ;0xFF, 0xFF, 0xFF, 0xFF, 0xFF, 0xFF, 0xFF, 0xFF,
                 ;0xFF, 0xFF, 0xFF, 0xFF, 0xFF, 0xFF, 0xFF, 0xFE,
                 ;0xFE, 0xFC, 0xFC, 0xF8, 0xF8, 0xF8, 0xF0, 0xF8,
                 ;0xF8, 0xF8, 0xF8, 0xF8, 0xF8, 0xF8, 0xF0, 0xF0,
                 ;0xF0, 0xF0, 0xE0, 0xFC, 0xFC, 0xFC, 0xFC, 0xFC,
                 ;0xFC, 0xFE, 0xFE, 0xFF, 0xFF, 0xFF, 0xFF, 0xFF,
                 ;0xFF, 0xFF, 0xFF, 0xFF, 0xFF, 0xFF, 0xFF, 0xFF,
                 ;0xFF, 0xFF, 0xFF, 0xFF, 0xFF, 0xFF, 0xFE, 0xFE,
                 ;0xFE, 0xFE, 0xFE, 0xFE, 0x7E, 0x1E, 0x00, 0x00,
                 ;0x00, 0x00, 0x00, 0x00, 0x00, 0x00, 0x00, 0x00,
                 ;0x00, 0x00, 0x00, 0x00, 0x00, 0x00, 0x00, 0x00,
                 ;0x00, 0x00, 0x00, 0x00, 0x00, 0x00, 0x00, 0x00,
                 ;0x00, 0x00, 0x00, 0x80, 0x80, 0xC0, 0xC0, 0xE0,
                 ;0xE0, 0xF0, 0xF0, 0xF8, 0xFC, 0xFE, 0xFF, 0x7F,
                 ;0x3F, 0x7F, 0x7F, 0xFF, 0xFF, 0xFF, 0xFF, 0xFF,
                 ;0xFF, 0xFF, 0xFF, 0xFF, 0xFF, 0xFF, 0xFF, 0xFF,
                 ;0xFF, 0xFF, 0xFF, 0xFF, 0xFF, 0xFF, 0xFF, 0xFF,
                 ;0xFF, 0xFF, 0xFF, 0xFF, 0xFF, 0xFF, 0xFF, 0xFF,
                 ;0xFF, 0xFF, 0xFF, 0xFF, 0xFF, 0xFF, 0xFF, 0xFF,
                 ;0xFF, 0xFF, 0xFF, 0xFF, 0xFF, 0xFF, 0xFF, 0xFF,
                 ;0xFF, 0xFF, 0xFF, 0xFF, 0xFF, 0xFF, 0xFF, 0xFF,
                 ;0xFF, 0xFF, 0xFF, 0xFF, 0xFF, 0xFF, 0x7F, 0x3F,
                 ;0x1F, 0x0F, 0x0F, 0x0F, 0x0F, 0x0F, 0x0F, 0x0F,
                 ;0x0F, 0x0F, 0x0F, 0x0F, 0x0F, 0x07, 0x07, 0x07,
                 ;0x07, 0x07, 0x03, 0x01, 0x00, 0x00, 0x00, 0x00,
                 ;0x00, 0x00, 0x00, 0x00, 0x00, 0x00, 0x00, 0x00,
                 ;0x00, 0x00, 0x00, 0x00, 0x00, 0x02, 0x02, 0x06,
                 ;0x06, 0x06, 0x06, 0x06, 0x07, 0x07, 0x0F, 0x0F,
                 ;0x0F, 0x0F, 0x0F, 0x0F, 0x0F, 0x07, 0x07, 0x07,
                 ;0x07, 0x03, 0x03, 0x03, 0x01, 0x00, 0x00, 0x00,
                 ;0x00, 0x00, 0x00, 0xC0, 0xE1, 0xF3, 0xF7, 0xFF,
                 ;0xFF, 0xFF, 0xFF, 0xFF, 0xFF, 0xFF, 0xFF, 0x3F,
                 ;0x3F, 0x3F, 0xFF, 0xFF, 0xFF, 0xFF, 0xFF, 0xFF,
                 ;0xFF, 0x0F, 0x1F, 0x3F, 0x3F, 0x7F, 0xFF, 0xFF,
                 ;0xFF, 0xFF, 0xFF, 0xFF, 0xFF, 0xFF, 0xFF, 0xFF,
                 ;0xFF, 0xFF, 0xFF, 0xFF, 0xFF, 0xFF, 0xFF, 0xFF,
                 ;0xFF, 0xFF, 0xFF, 0xFF, 0xFF, 0x7F, 0x3F, 0x1F,
                 ;0x0F, 0x07, 0x03, 0x03, 0x01, 0x00, 0x00, 0x00,
                 ;0x00, 0x00, 0x00, 0x00, 0x00, 0x00, 0x00, 0x00,
                 ;0x00, 0x00, 0x00, 0x00, 0x00, 0x00, 0x00, 0x00,
                 ;0x00, 0x00, 0x00, 0x00, 0x00, 0x00, 0x00, 0x00,
                 ;0x00, 0x00, 0x00, 0x00, 0x00, 0x00, 0x00, 0x00,
                 ;0x00, 0x00, 0x00, 0x00, 0x00, 0x00, 0x00, 0x00,
                 ;0x00, 0x00, 0x00, 0x00, 0x00, 0x00, 0x00, 0x00,
                 ;0x00, 0x00, 0x00, 0x00, 0x00, 0x00, 0x00, 0x00,
                 ;0x00, 0x00, 0x00, 0x00, 0x00, 0x00, 0x00, 0x00,
                 ;0x00, 0x00, 0x00, 0x01, 0x01, 0x03, 0x07, 0x07,
                 ;0x07, 0x0F, 0x0F, 0x1F, 0x1F, 0x1F, 0x3F, 0x3F,
                 ;0x7E, 0x7E, 0x7C, 0xFF, 0xFF, 0xFF, 0xFF, 0xFF,
                 ;0xFF, 0xC0, 0xC0, 0xC0, 0xE0, 0xF8, 0xFF, 0xFF,
                 ;0xFF, 0x7F, 0x3F, 0x1F, 0x0F, 0x07, 0x0F, 0x1F,
                 ;0x3F, 0xFF, 0xFF, 0xFF, 0xFF, 0xFF, 0xFF, 0xFB,
                 ;0xE3, 0x81, 0x01, 0x01, 0x00, 0x00, 0x00, 0x00,
                 ;0x00, 0x00, 0x00, 0x00, 0x00, 0x00, 0x00, 0x00,
                 ;0x00, 0x00, 0x00, 0x00, 0x00, 0x00, 0x00, 0x00,
                 ;0x00, 0x00, 0x00, 0x00, 0x00, 0x00, 0x00, 0x00,
                 ;0x00, 0x00, 0x00, 0x00, 0x00, 0x00, 0x00, 0x00,
                 ;0x00, 0x00, 0x00, 0x00, 0x00, 0x00, 0x00, 0x00,
                 ;0x00, 0x00, 0x00, 0x00, 0x00, 0x00, 0x00, 0x00,
                 ;0x00, 0x00, 0x00, 0x00, 0x00, 0x00, 0x00, 0x00,
                 ;0x00, 0x00, 0x00, 0x00, 0x00, 0x00, 0x00, 0x00,
                 ;0x00, 0x00, 0x00, 0x00, 0x00, 0x00, 0x00, 0x00,
                 ;0x00, 0x00, 0x00, 0x00, 0x00, 0x00, 0x00, 0x00,
                 ;0x00, 0x00, 0x00, 0x00, 0xF0, 0xF0, 0xF0, 0xF0,
                 ;0xF0, 0xF0, 0xF0, 0xF0, 0xF0, 0xF9, 0xF9, 0xFB,
                 ;0xFF, 0x7F, 0x7F, 0x3F, 0x3F, 0x3F, 0x3F, 0x3F,
                 ;0x7E, 0x7C, 0x7C, 0xFC, 0xFC, 0xF8, 0xF0, 0xE0,
                 ;0x80, 0x80, 0xC1, 0xC3, 0xE7, 0xFF, 0xFF, 0xFF,
                 ;0xFF, 0xFF, 0x38, 0x00, 0x00, 0x00, 0x00, 0x00,
                 ;0x00, 0x00, 0x00, 0x00, 0x00, 0x00, 0x00, 0x00,
                 ;0x00, 0x00, 0x00, 0x00, 0x00, 0x00, 0x00, 0x00,
                 ;0x00, 0x00, 0x00, 0x00, 0x00, 0x00, 0x00, 0x00,
                 ;0x00, 0x00, 0x00, 0x00, 0x00, 0x00, 0x00, 0x00,
                 ;0x00, 0x00, 0x00, 0x00, 0x00, 0x00, 0x00, 0x00,
                 ;0x00, 0x00, 0x00, 0x00, 0x00, 0x00, 0x00, 0x00,
                 ;0x00, 0x00, 0x00, 0x00, 0x00, 0x00, 0x00, 0x00,
                 ;0x00, 0x00, 0x00, 0x00, 0x00, 0x00, 0x00, 0x00,
                 ;0x00, 0x00, 0x00, 0x00, 0x00, 0x00, 0x00, 0x00,
                 ;0x00, 0x00, 0x00, 0x00, 0x00, 0x00, 0x00, 0x00,
                 ;0x00, 0x00, 0x00, 0x00, 0x00, 0x00, 0x01, 0x01,
                 ;0x01, 0x01, 0x01, 0x01, 0x01, 0x00, 0x00, 0x00,
                 ;0x00, 0x00, 0x00, 0x00, 0x00, 0x00, 0x00, 0x00,
                 ;0x00, 0x00, 0x00, 0x00, 0x07, 0x07, 0x0F, 0x0F,
                 ;0x0F, 0x0F, 0x0F, 0x0F, 0x0F, 0x07, 0x07, 0x07,
                 ;0x03, 0x01, 0x00, 0x00, 0x00, 0x00, 0x00, 0x00,
                 ;0x00, 0x00, 0x00, 0x00, 0x00, 0x00, 0x00, 0x00,
                 ;0x00, 0x00, 0x00, 0x00, 0x00, 0x00, 0x00, 0x00,
                 ;0x00, 0x00, 0x00, 0x00, 0x00, 0x00, 0x00, 0x00,
                 ;0x00, 0x00, 0x00, 0x00, 0x00, 0x00, 0x00, 0x00,
                 ;0x00, 0x00, 0x00, 0x00, 0x00, 0x00, 0x00, 0x00
                 ;};
                 ;
                 ;
                 ;flash unsigned char dog2[1024]={
                 ;0x00, 0x00, 0x00, 0x00, 0x00, 0x00, 0x00, 0x00,
                 ;0x00, 0x00, 0x00, 0x00, 0x00, 0x00, 0x00, 0x00,
                 ;0x00, 0x00, 0x00, 0x00, 0x00, 0x00, 0x00, 0x00,
                 ;0x00, 0x00, 0x00, 0x00, 0x00, 0x00, 0x00, 0x00,
                 ;0x00, 0x00, 0x00, 0x00, 0x00, 0x00, 0x00, 0x00,
                 ;0x00, 0x00, 0x00, 0x00, 0x00, 0x00, 0x00, 0x00,
                 ;0x00, 0x00, 0x00, 0x00, 0x00, 0x00, 0x00, 0x00,
                 ;0x00, 0x00, 0x00, 0x00, 0x00, 0x00, 0x00, 0x00,
                 ;0x00, 0x00, 0x00, 0x00, 0x00, 0x00, 0x00, 0x00,
                 ;0x00, 0x00, 0x00, 0x00, 0x00, 0x00, 0x00, 0x00,
                 ;0x00, 0x00, 0x00, 0x00, 0x00, 0x00, 0x00, 0x00,
                 ;0x00, 0x00, 0x00, 0x00, 0x00, 0x00, 0x00, 0x00,
                 ;0x00, 0x00, 0x00, 0x00, 0x00, 0x00, 0x00, 0x80,
                 ;0x80, 0x80, 0x00, 0x00, 0x00, 0x00, 0x00, 0x00,
                 ;0x00, 0x00, 0x00, 0x00, 0x00, 0x00, 0x00, 0x00,
                 ;0x00, 0x00, 0x00, 0x00, 0x00, 0x00, 0x00, 0x00,
                 ;0x00, 0x00, 0x00, 0x00, 0x00, 0x00, 0x00, 0x00,
                 ;0x00, 0x00, 0x00, 0x00, 0x00, 0x00, 0x00, 0x00,
                 ;0x00, 0x00, 0x00, 0x00, 0x00, 0x00, 0x00, 0x00,
                 ;0x00, 0x00, 0x00, 0x00, 0x00, 0x00, 0x00, 0x00,
                 ;0x00, 0x00, 0x00, 0x00, 0x00, 0x00, 0x00, 0x00,
                 ;0x00, 0x00, 0x00, 0x00, 0x00, 0x00, 0x80, 0x80,
                 ;0x80, 0x80, 0xC0, 0xC0, 0xC0, 0xC0, 0xC0, 0xC0,
                 ;0xC0, 0xC0, 0xC0, 0x80, 0x80, 0x80, 0x80, 0x00,
                 ;0x00, 0x00, 0x00, 0x00, 0x00, 0x00, 0x00, 0x00,
                 ;0x00, 0x00, 0x00, 0x00, 0x00, 0x00, 0x00, 0x00,
                 ;0x00, 0x00, 0x00, 0x00, 0x00, 0x00, 0x00, 0x00,
                 ;0x00, 0x00, 0x00, 0xF0, 0xF8, 0xFC, 0xFC, 0xFC,
                 ;0xFC, 0xFC, 0xFE, 0xFE, 0xFE, 0xFF, 0xFF, 0xFF,
                 ;0xFF, 0xFF, 0xFF, 0xFF, 0xFE, 0xFC, 0xFC, 0xF8,
                 ;0xF0, 0xF0, 0xF0, 0xF0, 0xF0, 0xF0, 0xF0, 0xF0,
                 ;0x30, 0x00, 0x00, 0x00, 0x00, 0x00, 0x00, 0x00,
                 ;0x00, 0x00, 0x00, 0x00, 0x00, 0x00, 0x00, 0x00,
                 ;0x00, 0x00, 0x00, 0x00, 0x00, 0x00, 0x00, 0x00,
                 ;0x00, 0x00, 0x00, 0x00, 0x00, 0x00, 0x00, 0x00,
                 ;0x00, 0x00, 0x00, 0x00, 0x00, 0x00, 0x00, 0x00,
                 ;0x00, 0x00, 0x00, 0x00, 0xC0, 0xE0, 0xF0, 0xF8,
                 ;0xFC, 0xFC, 0xFE, 0xFE, 0xFF, 0xFF, 0xFF, 0xFF,
                 ;0xFF, 0xFF, 0xFF, 0xFF, 0xFF, 0xFF, 0xFF, 0xFF,
                 ;0xFF, 0xFF, 0xFF, 0xFF, 0xFF, 0xFF, 0xFF, 0xFF,
                 ;0xFF, 0xFF, 0xFF, 0xFF, 0xFF, 0xFF, 0xFF, 0xFF,
                 ;0xFF, 0xFF, 0xFF, 0xFF, 0xFF, 0xFF, 0xFF, 0xFF,
                 ;0xFF, 0xFF, 0xFF, 0xFF, 0xFF, 0xFF, 0xFF, 0xFF,
                 ;0xFF, 0xFF, 0xFF, 0xFF, 0xFF, 0xFF, 0xFF, 0xFF,
                 ;0xFF, 0xFF, 0xFF, 0xFF, 0xFF, 0x7F, 0x7F, 0x7F,
                 ;0x3F, 0x3F, 0x3F, 0x3F, 0x3F, 0x3F, 0x3F, 0x3F,
                 ;0x3F, 0x3F, 0x3F, 0x1F, 0x0F, 0x07, 0x03, 0x00,
                 ;0x00, 0x00, 0x00, 0x00, 0x00, 0x00, 0x00, 0x00,
                 ;0x00, 0x00, 0x00, 0x00, 0x00, 0x00, 0x00, 0x00,
                 ;0x00, 0x00, 0x00, 0x00, 0x00, 0x00, 0x00, 0x00,
                 ;0x00, 0x00, 0x00, 0x00, 0x00, 0x00, 0x00, 0x00,
                 ;0x00, 0x00, 0x00, 0x00, 0x00, 0x00, 0x80, 0xC0,
                 ;0xE0, 0xF8, 0xFC, 0xFF, 0xFF, 0xFF, 0xFF, 0xFF,
                 ;0xFF, 0xFF, 0xFF, 0xFF, 0xFF, 0xFF, 0xFF, 0xFF,
                 ;0xFF, 0xFF, 0xFF, 0xFF, 0xFF, 0xFF, 0xFF, 0xFF,
                 ;0xFF, 0xFF, 0xFF, 0xFF, 0xFF, 0xFF, 0xFF, 0xFF,
                 ;0xFF, 0xFF, 0xFF, 0xFF, 0xFF, 0xFF, 0xFF, 0xFF,
                 ;0xFF, 0xFF, 0xFF, 0xFF, 0xFF, 0xFF, 0xFF, 0xFF,
                 ;0xFF, 0xFF, 0xFF, 0xFF, 0xFF, 0xFF, 0xFF, 0xFF,
                 ;0xFF, 0xFF, 0xFF, 0x7F, 0x7F, 0x3F, 0x3F, 0x1F,
                 ;0x0F, 0x07, 0x03, 0x01, 0x00, 0x00, 0x00, 0x00,
                 ;0x00, 0x00, 0x00, 0x00, 0x00, 0x00, 0x00, 0x00,
                 ;0x00, 0x00, 0x00, 0x00, 0x00, 0x00, 0x00, 0x00,
                 ;0x00, 0x00, 0x00, 0x00, 0x00, 0x00, 0x00, 0x00,
                 ;0x00, 0x04, 0x04, 0x08, 0x18, 0x18, 0x30, 0x30,
                 ;0x70, 0x70, 0xF0, 0xF0, 0xF0, 0xF0, 0xF0, 0xF0,
                 ;0xF0, 0xF0, 0xF0, 0xF0, 0xF0, 0xF0, 0xF0, 0xF0,
                 ;0xF8, 0xF8, 0x7C, 0x7E, 0x3E, 0x3F, 0x1F, 0x0F,
                 ;0x0F, 0x0F, 0x1F, 0x3F, 0x3F, 0x7F, 0x7F, 0xFF,
                 ;0xFF, 0xFF, 0xFF, 0xFF, 0xFF, 0xFF, 0xFF, 0xFF,
                 ;0xFF, 0xFF, 0xFF, 0xFF, 0xFF, 0xFF, 0xFF, 0xFF,
                 ;0xFF, 0x01, 0x03, 0x03, 0x07, 0x07, 0x0F, 0x0F,
                 ;0x1F, 0x1F, 0x3F, 0x3F, 0x7F, 0x7F, 0x7F, 0x7F,
                 ;0xFF, 0xFF, 0xFF, 0xFF, 0xFF, 0xFF, 0xFF, 0xFF,
                 ;0xFF, 0x3F, 0x3F, 0x3F, 0x7F, 0x7F, 0x7F, 0xFF,
                 ;0xFF, 0xFF, 0xFF, 0xFE, 0xFE, 0xFC, 0xF8, 0xF8,
                 ;0xF0, 0xF0, 0xE0, 0xE0, 0xC0, 0xC0, 0x80, 0x00,
                 ;0x00, 0x00, 0x00, 0x00, 0x00, 0x00, 0x00, 0x00,
                 ;0x00, 0x00, 0x00, 0x00, 0x00, 0x00, 0x00, 0x00,
                 ;0x00, 0x00, 0x00, 0x00, 0x00, 0x00, 0x00, 0x00,
                 ;0x00, 0x00, 0x00, 0x00, 0x00, 0x00, 0x00, 0x00,
                 ;0x00, 0x00, 0x00, 0x00, 0x00, 0x01, 0x01, 0x01,
                 ;0x01, 0x01, 0x01, 0x01, 0x01, 0x01, 0x01, 0x01,
                 ;0x00, 0x00, 0x00, 0x00, 0x00, 0x00, 0x00, 0x00,
                 ;0x00, 0x00, 0x00, 0x00, 0x00, 0x00, 0x00, 0x00,
                 ;0x87, 0xFF, 0xFF, 0xFF, 0xFF, 0xFF, 0xFF, 0x3F,
                 ;0x1F, 0x07, 0x07, 0x3F, 0xFF, 0xFF, 0xFF, 0xFF,
                 ;0xFF, 0xF0, 0xC0, 0x80, 0x80, 0x00, 0x00, 0x00,
                 ;0x00, 0x00, 0x80, 0xC0, 0xC0, 0xC0, 0x80, 0x80,
                 ;0x83, 0x07, 0x8F, 0xFF, 0xFF, 0xFF, 0xFF, 0xFF,
                 ;0xFF, 0x00, 0x00, 0x00, 0x00, 0x00, 0x00, 0x00,
                 ;0x00, 0x00, 0x01, 0x01, 0x81, 0x83, 0xC3, 0xC3,
                 ;0xE7, 0xEF, 0xFF, 0xFF, 0xFF, 0xFF, 0xFF, 0x3F,
                 ;0x00, 0x00, 0x00, 0x00, 0x00, 0x00, 0x00, 0x00,
                 ;0x00, 0x00, 0x00, 0x00, 0x00, 0x00, 0x00, 0x00,
                 ;0x00, 0x00, 0x00, 0x00, 0x00, 0x00, 0x00, 0x00,
                 ;0x00, 0x00, 0x00, 0x00, 0x00, 0x00, 0x00, 0x00,
                 ;0x00, 0x00, 0x00, 0x00, 0x00, 0x00, 0x00, 0x00,
                 ;0x00, 0x00, 0x00, 0x00, 0x00, 0x00, 0x00, 0x00,
                 ;0x00, 0x00, 0x00, 0x00, 0x00, 0x00, 0x00, 0x00,
                 ;0x00, 0x00, 0x00, 0x00, 0x00, 0x78, 0xFC, 0xFE,
                 ;0xFF, 0xFF, 0xFF, 0xCF, 0x83, 0x01, 0x00, 0x00,
                 ;0x00, 0x00, 0x00, 0x00, 0x00, 0x01, 0x01, 0x03,
                 ;0x07, 0x0F, 0x0F, 0x1F, 0x3F, 0x7F, 0xFE, 0xFC,
                 ;0xFC, 0xFC, 0xF9, 0xFB, 0xF7, 0xF7, 0xE7, 0xCF,
                 ;0x0F, 0x0F, 0x0F, 0x0F, 0x0F, 0x07, 0x07, 0x03,
                 ;0x00, 0x00, 0x00, 0x00, 0x00, 0x00, 0x00, 0x00,
                 ;0x00, 0x00, 0x02, 0x07, 0x07, 0x0F, 0x0F, 0x0F,
                 ;0x0F, 0x07, 0x07, 0x03, 0x03, 0x01, 0x00, 0x00,
                 ;0x00, 0x00, 0x00, 0x00, 0x00, 0x00, 0x00, 0x00,
                 ;0x00, 0x00, 0x00, 0x00, 0x00, 0x00, 0x00, 0x00,
                 ;0x00, 0x00, 0x00, 0x00, 0x00, 0x00, 0x00, 0x00,
                 ;0x00, 0x00, 0x00, 0x00, 0x00, 0x00, 0x00, 0x00,
                 ;0x00, 0x00, 0x00, 0x00, 0x00, 0x00, 0x00, 0x00,
                 ;0x00, 0x00, 0x00, 0x00, 0x00, 0x00, 0x00, 0x00,
                 ;0x00, 0x00, 0x00, 0x00, 0x00, 0x00, 0x00, 0x00,
                 ;0x00, 0x00, 0x00, 0x00, 0x00, 0x00, 0x00, 0x01,
                 ;0x03, 0x07, 0x0F, 0x1F, 0x1F, 0x3E, 0x7E, 0xFC,
                 ;0xFC, 0xFC, 0xFC, 0xFC, 0xF8, 0x78, 0x60, 0x00,
                 ;0x00, 0x00, 0x00, 0x00, 0x00, 0x00, 0x00, 0x00,
                 ;0x01, 0x01, 0x01, 0x01, 0x01, 0x01, 0x01, 0x01,
                 ;0x00, 0x00, 0x00, 0x00, 0x00, 0x00, 0x00, 0x00,
                 ;0x00, 0x00, 0x00, 0x00, 0x00, 0x00, 0x00, 0x00,
                 ;0x00, 0x00, 0x00, 0x00, 0x00, 0x00, 0x00, 0x00,
                 ;0x00, 0x00, 0x00, 0x00, 0x00, 0x00, 0x00, 0x00,
                 ;0x00, 0x00, 0x00, 0x00, 0x00, 0x00, 0x00, 0x00,
                 ;0x00, 0x00, 0x00, 0x00, 0x00, 0x00, 0x00, 0x00,
                 ;0x00, 0x00, 0x00, 0x00, 0x00, 0x00, 0x00, 0x00
                 ;};
                 ;
                 ;flash unsigned char dog3[1024]={
                 ;0x00, 0x00, 0x00, 0x00, 0x00, 0x00, 0x00, 0x00,
                 ;0x00, 0x00, 0x00, 0x00, 0x00, 0x00, 0x00, 0x00,
                 ;0x00, 0x00, 0x00, 0x00, 0x00, 0x00, 0x00, 0x00,
                 ;0x00, 0x00, 0x00, 0x00, 0x00, 0x00, 0x00, 0x00,
                 ;0x00, 0x00, 0x00, 0x00, 0x00, 0x00, 0x00, 0x00,
                 ;0x00, 0x00, 0x00, 0x00, 0x00, 0x00, 0x00, 0x00,
                 ;0x00, 0x00, 0x00, 0x00, 0x00, 0x00, 0x00, 0x00,
                 ;0x00, 0x00, 0x00, 0x00, 0x00, 0x00, 0x00, 0x00,
                 ;0x00, 0x00, 0x00, 0x00, 0x00, 0x00, 0x00, 0x00,
                 ;0x00, 0x00, 0x00, 0x00, 0x00, 0x00, 0x00, 0x00,
                 ;0x00, 0x00, 0x00, 0x00, 0x00, 0x00, 0x00, 0x00,
                 ;0x00, 0x00, 0x80, 0x80, 0x80, 0x80, 0x80, 0xC0,
                 ;0xC0, 0xC0, 0xC0, 0xC0, 0xC0, 0xE0, 0xE0, 0xE0,
                 ;0xE0, 0xE0, 0xE0, 0xE0, 0xC0, 0x80, 0x80, 0x00,
                 ;0x00, 0x00, 0x00, 0x00, 0x00, 0x00, 0x00, 0x00,
                 ;0x00, 0x00, 0x00, 0x00, 0x00, 0x00, 0x00, 0x00,
                 ;0x00, 0x00, 0x00, 0x00, 0x00, 0x00, 0x00, 0x00,
                 ;0x00, 0x00, 0x00, 0x00, 0x00, 0x00, 0x00, 0x00,
                 ;0x00, 0x00, 0x00, 0x00, 0x00, 0x00, 0x00, 0x00,
                 ;0x00, 0x00, 0x00, 0x00, 0x00, 0x00, 0x00, 0x00,
                 ;0x00, 0x00, 0x00, 0x00, 0x00, 0x00, 0x00, 0x00,
                 ;0x00, 0x00, 0x00, 0x00, 0x00, 0x00, 0x00, 0x00,
                 ;0x00, 0x00, 0x00, 0x00, 0x00, 0x00, 0x00, 0x00,
                 ;0x00, 0x00, 0x00, 0x00, 0x00, 0x00, 0x00, 0x00,
                 ;0x00, 0x00, 0x00, 0x00, 0x00, 0x00, 0x00, 0x00,
                 ;0x80, 0x80, 0x80, 0xC0, 0xC0, 0xC0, 0xC0, 0xC0,
                 ;0xC0, 0xC0, 0xC0, 0xC0, 0xC0, 0xC0, 0xC8, 0xCC,
                 ;0xCE, 0xEF, 0xEF, 0xFF, 0xFF, 0xFF, 0xFF, 0xFF,
                 ;0xFF, 0xFF, 0xFF, 0xFF, 0xFF, 0xFF, 0xFF, 0xFF,
                 ;0xFF, 0xFF, 0xFF, 0xFF, 0xFF, 0xFF, 0xFF, 0xFF,
                 ;0xFE, 0xFC, 0xFC, 0xFC, 0xFC, 0xFC, 0xFC, 0xFC,
                 ;0xFC, 0x1C, 0x00, 0x00, 0x00, 0x00, 0x00, 0x00,
                 ;0x00, 0x00, 0x00, 0x00, 0x00, 0x00, 0x00, 0x00,
                 ;0x00, 0x00, 0x00, 0x00, 0x00, 0x00, 0x00, 0x00,
                 ;0x00, 0x00, 0x00, 0x00, 0x00, 0x00, 0x00, 0x00,
                 ;0x00, 0x00, 0x00, 0x00, 0x00, 0x00, 0x80, 0x80,
                 ;0x80, 0x80, 0x00, 0x80, 0xC0, 0xE0, 0xF0, 0xF0,
                 ;0xF8, 0xF8, 0xFC, 0xFC, 0xFC, 0xFC, 0xFC, 0xFE,
                 ;0xFE, 0xFE, 0xFE, 0xFE, 0xFE, 0xFE, 0xFC, 0xFC,
                 ;0xFC, 0xFC, 0xFC, 0xFC, 0xFC, 0xFC, 0xFC, 0xFC,
                 ;0xFC, 0xFC, 0xFE, 0xFE, 0xFE, 0xFF, 0xFF, 0xFF,
                 ;0xFF, 0xFF, 0xFF, 0xFF, 0xFF, 0xFF, 0xFF, 0xFF,
                 ;0xFF, 0xFF, 0xFF, 0xFF, 0xFF, 0xFF, 0xFF, 0xFF,
                 ;0xFF, 0xFF, 0xFF, 0xFF, 0xFF, 0xFF, 0xFF, 0xFF,
                 ;0xFF, 0xFF, 0xFF, 0x7F, 0x3F, 0x3F, 0x1F, 0x0F,
                 ;0x0F, 0x0F, 0x0F, 0x1F, 0x1F, 0x1F, 0x1F, 0x1F,
                 ;0x1F, 0x0F, 0x0F, 0x0F, 0x0F, 0x07, 0x07, 0x03,
                 ;0x00, 0x00, 0x00, 0x00, 0x00, 0x00, 0x00, 0x00,
                 ;0x00, 0x00, 0x00, 0x00, 0x00, 0x00, 0x00, 0x00,
                 ;0x00, 0x00, 0x00, 0x00, 0x00, 0x00, 0x00, 0x80,
                 ;0xC0, 0xE0, 0xE0, 0xF0, 0xF8, 0xFC, 0x7C, 0x3E,
                 ;0x3E, 0x1F, 0x1F, 0x0F, 0x0F, 0x0F, 0x0F, 0x0F,
                 ;0x0F, 0xFF, 0xFF, 0xFF, 0xFF, 0xFF, 0xFF, 0xFF,
                 ;0xFF, 0xFF, 0xFF, 0xFF, 0xFF, 0xFF, 0xFF, 0xFF,
                 ;0xFF, 0xFF, 0xFF, 0xFF, 0xFF, 0xFF, 0xFF, 0xFF,
                 ;0xFF, 0xFF, 0xFF, 0xFF, 0xFF, 0xFF, 0xFF, 0xFF,
                 ;0xFF, 0xFF, 0xFF, 0xFF, 0xFF, 0xFF, 0xFF, 0xFF,
                 ;0xFF, 0xFF, 0xFF, 0xFF, 0xFF, 0xFF, 0xFF, 0xFF,
                 ;0xFF, 0xFF, 0xFF, 0xFF, 0xFF, 0xFF, 0xFF, 0xFF,
                 ;0xFF, 0xFF, 0xFF, 0xFF, 0xFF, 0xCF, 0x87, 0x87,
                 ;0x83, 0x81, 0x80, 0x80, 0x80, 0x80, 0x80, 0x80,
                 ;0x80, 0xC0, 0xC0, 0xC0, 0xC0, 0x80, 0x80, 0x00,
                 ;0x00, 0x00, 0x00, 0x00, 0x00, 0x00, 0x00, 0x00,
                 ;0x00, 0x00, 0x00, 0x00, 0x00, 0x00, 0x00, 0x00,
                 ;0x00, 0x00, 0x08, 0x08, 0x08, 0x18, 0x18, 0x18,
                 ;0x1C, 0x1C, 0x1C, 0x1C, 0x1E, 0x1F, 0x0F, 0x0F,
                 ;0x07, 0x07, 0x03, 0x01, 0x01, 0x00, 0x00, 0x00,
                 ;0x00, 0x00, 0x00, 0x00, 0x80, 0x80, 0xC0, 0xE0,
                 ;0xF0, 0xF8, 0xFF, 0xFF, 0xFF, 0xFF, 0xFF, 0xFF,
                 ;0xFF, 0xFF, 0xFF, 0xFF, 0xFF, 0xFF, 0xFF, 0xFF,
                 ;0xFF, 0xFF, 0xFF, 0xFF, 0xFF, 0xFF, 0xFF, 0xFF,
                 ;0x0F, 0x0F, 0x0F, 0x1F, 0x1F, 0x3F, 0x3F, 0x3F,
                 ;0x3F, 0x7F, 0x7F, 0x7F, 0x7F, 0x7F, 0xFF, 0xFF,
                 ;0xFF, 0x7F, 0x7F, 0x7F, 0x7F, 0x3F, 0x3F, 0x1F,
                 ;0x1F, 0x3F, 0x7F, 0xFF, 0xFF, 0xFF, 0xFF, 0xFF,
                 ;0xFF, 0xFF, 0xFF, 0xFF, 0xFF, 0xFF, 0xFF, 0xFF,
                 ;0xFF, 0xFF, 0xFF, 0xFF, 0xFF, 0xFF, 0xDF, 0xDF,
                 ;0x8F, 0x0F, 0x0F, 0x0F, 0x0F, 0x1F, 0x3F, 0x7F,
                 ;0x7F, 0xFE, 0xFE, 0xFC, 0xFC, 0xF8, 0xF0, 0xF0,
                 ;0xE0, 0xC0, 0x80, 0x00, 0x00, 0x00, 0x00, 0x00,
                 ;0x00, 0x00, 0x00, 0x00, 0x00, 0x00, 0x00, 0x00,
                 ;0x00, 0x00, 0x00, 0x00, 0x00, 0x00, 0x00, 0x00,
                 ;0x00, 0x00, 0x00, 0x00, 0x00, 0x80, 0xE0, 0xF8,
                 ;0xFC, 0xFC, 0xFE, 0xFF, 0xFF, 0x7F, 0x7F, 0x3F,
                 ;0x3F, 0x1F, 0x1F, 0x0F, 0x0F, 0x07, 0x07, 0x03,
                 ;0x03, 0x03, 0x01, 0x01, 0x03, 0x0F, 0xFF, 0xFF,
                 ;0xFF, 0xFF, 0xFF, 0xFF, 0xFF, 0xFF, 0x3F, 0x0F,
                 ;0x00, 0x00, 0x00, 0x00, 0x00, 0x00, 0x00, 0x00,
                 ;0x00, 0x00, 0x00, 0x00, 0x00, 0x00, 0x00, 0x00,
                 ;0x00, 0x00, 0x00, 0x00, 0x00, 0x00, 0x00, 0x00,
                 ;0x00, 0x00, 0x00, 0x00, 0x00, 0x00, 0x00, 0x00,
                 ;0x00, 0x00, 0x00, 0x00, 0x00, 0x01, 0x01, 0x81,
                 ;0xC1, 0xC1, 0xC3, 0xC3, 0xC3, 0xE7, 0xFF, 0xFF,
                 ;0xFF, 0xFF, 0xFE, 0x38, 0x00, 0x00, 0x00, 0x00,
                 ;0x00, 0x00, 0x01, 0x03, 0x03, 0x03, 0x07, 0x03,
                 ;0x03, 0x03, 0x00, 0x00, 0x00, 0x00, 0x00, 0x00,
                 ;0x00, 0x00, 0x00, 0x00, 0x00, 0x00, 0x00, 0x00,
                 ;0x00, 0x00, 0x00, 0x00, 0x00, 0x00, 0x00, 0x00,
                 ;0x00, 0xE0, 0xF8, 0xFC, 0xFE, 0xFF, 0x7F, 0x1F,
                 ;0x0F, 0x07, 0x03, 0x01, 0x00, 0x00, 0x00, 0x00,
                 ;0x00, 0x00, 0x00, 0x00, 0x00, 0x00, 0x00, 0x00,
                 ;0x00, 0x00, 0x00, 0x00, 0x3C, 0xFF, 0xFF, 0xFF,
                 ;0xFF, 0xFF, 0xFF, 0xFF, 0xE3, 0x80, 0x00, 0x00,
                 ;0x00, 0x00, 0x00, 0x00, 0x00, 0x00, 0x00, 0x00,
                 ;0x00, 0x00, 0x00, 0x00, 0x00, 0x00, 0x00, 0x00,
                 ;0x00, 0x00, 0x00, 0x00, 0x00, 0x00, 0x00, 0x00,
                 ;0x00, 0x00, 0x00, 0x00, 0x00, 0x00, 0x00, 0x00,
                 ;0x00, 0x00, 0x00, 0x00, 0x00, 0x00, 0x00, 0x01,
                 ;0x03, 0x03, 0x07, 0x07, 0x07, 0x07, 0x03, 0x03,
                 ;0x01, 0x01, 0x00, 0x00, 0x00, 0x00, 0x00, 0x00,
                 ;0x00, 0x00, 0x00, 0x00, 0x00, 0x00, 0x00, 0x00,
                 ;0x00, 0x00, 0x00, 0x00, 0x00, 0x00, 0x00, 0x00,
                 ;0x00, 0x00, 0x00, 0x00, 0x00, 0x00, 0x00, 0x00,
                 ;0x00, 0x00, 0x00, 0x00, 0x00, 0x00, 0x00, 0x00,
                 ;0x00, 0x1F, 0x3F, 0x3F, 0x7F, 0x7F, 0x7C, 0x7C,
                 ;0x7C, 0x38, 0x00, 0x00, 0x00, 0x00, 0x00, 0x00,
                 ;0x00, 0x00, 0x00, 0x00, 0x00, 0x00, 0x00, 0x00,
                 ;0x00, 0x00, 0x00, 0x00, 0x00, 0x00, 0x01, 0x01,
                 ;0x03, 0x07, 0x07, 0x0F, 0x1F, 0x3F, 0x7F, 0x7E,
                 ;0x7C, 0x7C, 0x7C, 0x7C, 0x7C, 0x78, 0x70, 0x00,
                 ;0x00, 0x00, 0x00, 0x00, 0x00, 0x00, 0x00, 0x00,
                 ;0x00, 0x00, 0x00, 0x00, 0x00, 0x00, 0x00, 0x00,
                 ;0x00, 0x00, 0x00, 0x00, 0x00, 0x00, 0x00, 0x00,
                 ;0x00, 0x00, 0x00, 0x00, 0x00, 0x00, 0x00, 0x00,
                 ;0x00, 0x00, 0x00, 0x00, 0x00, 0x00, 0x00, 0x00,
                 ;0x00, 0x00, 0x00, 0x00, 0x00, 0x00, 0x00, 0x00,
                 ;0x00, 0x00, 0x00, 0x00, 0x00, 0x00, 0x00, 0x00,
                 ;0x00, 0x00, 0x00, 0x00, 0x00, 0x00, 0x00, 0x00
                 ;};
                 ;
                 ;flash unsigned char dog4[1024]={
                 ;0x00, 0x00, 0x00, 0x00, 0x00, 0x00, 0x00, 0x00,
                 ;0x00, 0x00, 0x00, 0x00, 0x00, 0x00, 0x00, 0x00,
                 ;0x00, 0x00, 0x00, 0x00, 0x00, 0x00, 0x00, 0x00,
                 ;0x00, 0x00, 0x00, 0x00, 0x00, 0x00, 0x00, 0x00,
                 ;0x00, 0x00, 0x00, 0x00, 0x00, 0x00, 0x00, 0x00,
                 ;0x00, 0x00, 0x00, 0x00, 0x00, 0x00, 0x00, 0x00,
                 ;0x00, 0x00, 0x00, 0x00, 0x00, 0x00, 0x00, 0x00,
                 ;0x00, 0x00, 0x00, 0x00, 0x00, 0x00, 0x00, 0x00,
                 ;0x00, 0x00, 0x00, 0x00, 0x00, 0x00, 0x00, 0x00,
                 ;0x00, 0x00, 0x00, 0x00, 0x00, 0x00, 0x00, 0x00,
                 ;0x00, 0x00, 0x00, 0x00, 0x00, 0x00, 0x00, 0x00,
                 ;0x00, 0x00, 0x00, 0x00, 0x00, 0x00, 0x00, 0x00,
                 ;0x00, 0x00, 0x00, 0x00, 0x00, 0x00, 0x00, 0x00,
                 ;0x00, 0x00, 0x00, 0x00, 0x00, 0x00, 0x00, 0x00,
                 ;0x00, 0x00, 0x00, 0x00, 0x00, 0x00, 0x00, 0x00,
                 ;0x00, 0x00, 0x00, 0x00, 0x00, 0x00, 0x00, 0x00,
                 ;0x00, 0x00, 0x00, 0x00, 0x00, 0x00, 0x00, 0x00,
                 ;0x00, 0x00, 0x00, 0x00, 0x00, 0x00, 0x00, 0x00,
                 ;0x00, 0x00, 0x00, 0x00, 0x00, 0x00, 0x00, 0x00,
                 ;0x00, 0x00, 0x00, 0x00, 0x00, 0x00, 0x00, 0x00,
                 ;0x00, 0x00, 0x00, 0x00, 0x00, 0x00, 0x00, 0x00,
                 ;0x00, 0x00, 0x00, 0x00, 0x00, 0x00, 0x00, 0x00,
                 ;0x00, 0x00, 0x00, 0x00, 0x00, 0x00, 0x00, 0x00,
                 ;0x00, 0x00, 0x00, 0x00, 0x00, 0x00, 0x00, 0x00,
                 ;0x00, 0x00, 0x00, 0x00, 0x00, 0x80, 0x80, 0x80,
                 ;0xC0, 0xC0, 0xC0, 0xE0, 0xE0, 0xE0, 0xE0, 0xE0,
                 ;0xE0, 0xE0, 0xE0, 0xE0, 0xC0, 0xC0, 0xC0, 0xC0,
                 ;0xC0, 0xCC, 0xCE, 0xCE, 0xDF, 0xDF, 0xFF, 0xFF,
                 ;0xFF, 0xFF, 0xFF, 0xFF, 0xFE, 0xFE, 0xFE, 0xFF,
                 ;0xFF, 0xFF, 0xFF, 0xFF, 0xFF, 0xFE, 0xFE, 0xFC,
                 ;0xF8, 0xF8, 0xF0, 0xE0, 0xE0, 0xC0, 0xC0, 0xC0,
                 ;0xC0, 0xC0, 0xC0, 0x80, 0x00, 0x00, 0x00, 0x00,
                 ;0x00, 0x00, 0x00, 0x00, 0x00, 0x00, 0x00, 0x80,
                 ;0xC0, 0xE0, 0xE0, 0xF0, 0xF8, 0x78, 0x78, 0x3C,
                 ;0x3C, 0x3C, 0x3E, 0x1E, 0x1E, 0x1E, 0x1F, 0x1F,
                 ;0x0F, 0x0F, 0x1F, 0x1F, 0x1F, 0x1F, 0x3E, 0x3E,
                 ;0x3E, 0x7E, 0xFC, 0xFC, 0xFC, 0xFC, 0xFC, 0xFC,
                 ;0xFE, 0xFE, 0xFE, 0xFE, 0xFF, 0xFF, 0xFF, 0xFF,
                 ;0xFF, 0xFF, 0xFF, 0xFE, 0xFE, 0xFE, 0xFE, 0xFE,
                 ;0xFE, 0xFE, 0xFE, 0xFE, 0xFE, 0xFE, 0xFE, 0xFF,
                 ;0xFF, 0xFF, 0xFF, 0xFF, 0xFF, 0xFF, 0xFF, 0xFF,
                 ;0xFF, 0xFF, 0xFF, 0xFF, 0xFF, 0xFF, 0xFF, 0xFF,
                 ;0xFF, 0xFF, 0xFF, 0xFF, 0xFF, 0xFF, 0xFF, 0xFF,
                 ;0xFF, 0xFF, 0xFF, 0xFF, 0xFF, 0xFF, 0xFF, 0xFF,
                 ;0xFF, 0xFF, 0xFF, 0xFF, 0xFF, 0xFF, 0xFF, 0x7F,
                 ;0x7F, 0x3F, 0x3F, 0x7F, 0x7F, 0x7F, 0x7F, 0xFF,
                 ;0xFF, 0xFF, 0xFF, 0xFF, 0xFF, 0x7F, 0x7F, 0x3F,
                 ;0x1F, 0x0F, 0x07, 0x01, 0x00, 0x00, 0x00, 0x00,
                 ;0x00, 0x20, 0x30, 0x18, 0x0C, 0x0E, 0x07, 0x07,
                 ;0x03, 0x01, 0x01, 0x00, 0x00, 0x00, 0x00, 0x00,
                 ;0x00, 0x00, 0x00, 0x00, 0x00, 0x00, 0x00, 0x00,
                 ;0x00, 0x00, 0x00, 0x00, 0x00, 0xC0, 0xE0, 0xF8,
                 ;0xFC, 0xFF, 0xFF, 0xFF, 0xFF, 0xFF, 0xFF, 0xFF,
                 ;0xFF, 0xFF, 0xFF, 0xFF, 0xFF, 0xFF, 0xFF, 0xFF,
                 ;0xFF, 0xFF, 0xFF, 0xFF, 0xFF, 0xFF, 0xFF, 0xFF,
                 ;0xFF, 0xFF, 0xFF, 0xFF, 0xFF, 0xFF, 0xFF, 0xFF,
                 ;0xFF, 0xFF, 0xFF, 0xFF, 0xFF, 0xFF, 0xFF, 0xFF,
                 ;0xFF, 0xFF, 0xFF, 0xFF, 0xFF, 0xFF, 0xFF, 0xFF,
                 ;0xFF, 0xFF, 0xFF, 0xFF, 0xFF, 0xFF, 0xFF, 0xFF,
                 ;0xFF, 0xFF, 0xFF, 0xFF, 0xFF, 0xFF, 0xFF, 0xFF,
                 ;0xCF, 0xC7, 0xC3, 0xC3, 0xC1, 0xC1, 0xC0, 0xC0,
                 ;0xC0, 0xC0, 0xC0, 0xC0, 0xC0, 0xC0, 0xC0, 0xC0,
                 ;0x80, 0x80, 0x80, 0x00, 0x00, 0x00, 0x00, 0x00,
                 ;0x00, 0x00, 0x00, 0x00, 0x00, 0x00, 0x00, 0x00,
                 ;0x00, 0x00, 0x00, 0x00, 0x00, 0x00, 0x00, 0x00,
                 ;0x00, 0x00, 0x00, 0x00, 0x00, 0x00, 0x80, 0xC0,
                 ;0xE0, 0xE0, 0xE0, 0xE0, 0xF0, 0xF0, 0xF0, 0xF8,
                 ;0xF8, 0xF8, 0xFC, 0xFE, 0xFF, 0xFF, 0xFF, 0xFF,
                 ;0xFF, 0xFF, 0xFF, 0xFF, 0xFF, 0xFF, 0xFF, 0xFF,
                 ;0xFF, 0xFF, 0xFF, 0xFF, 0xFF, 0xFF, 0x7F, 0x1F,
                 ;0x0F, 0x03, 0x01, 0x01, 0x01, 0x01, 0x01, 0x01,
                 ;0x01, 0x01, 0x01, 0x01, 0x03, 0x03, 0x07, 0x07,
                 ;0x0F, 0x0F, 0x1F, 0x1F, 0x1F, 0x3F, 0x3F, 0x3F,
                 ;0x3F, 0x3F, 0x3F, 0x3F, 0x3F, 0x3F, 0x1F, 0x1F,
                 ;0x1F, 0x1F, 0x1F, 0x0F, 0x0F, 0x0F, 0x07, 0x0F,
                 ;0x0F, 0x1F, 0x1F, 0x3F, 0x3F, 0x7F, 0x7F, 0x7F,
                 ;0x7F, 0x7F, 0xFF, 0xFF, 0xFF, 0xFF, 0xF7, 0xE3,
                 ;0xE3, 0xC3, 0xC3, 0x83, 0x83, 0x87, 0x07, 0x07,
                 ;0x0F, 0x0F, 0x0F, 0x1F, 0x1F, 0x1F, 0x1E, 0x9E,
                 ;0x9C, 0x88, 0x80, 0x00, 0x00, 0x00, 0x00, 0x00,
                 ;0x00, 0x00, 0xE0, 0xF0, 0xE0, 0xE0, 0xE0, 0xE0,
                 ;0xF0, 0xF0, 0xF8, 0xFC, 0xFE, 0xFF, 0xFF, 0x7F,
                 ;0x3F, 0x1F, 0x0F, 0x07, 0xC3, 0xF3, 0xFB, 0xFF,
                 ;0xFF, 0xFF, 0xFF, 0xFF, 0x7F, 0x7F, 0x7F, 0x7F,
                 ;0x7F, 0x3F, 0x3F, 0x3F, 0x1F, 0x1F, 0x1F, 0x0F,
                 ;0x0F, 0x07, 0x03, 0x03, 0x01, 0x00, 0x00, 0x00,
                 ;0x00, 0x00, 0x00, 0x00, 0x00, 0x00, 0x00, 0x00,
                 ;0x00, 0x00, 0x00, 0x00, 0x00, 0x00, 0x00, 0x00,
                 ;0x00, 0x00, 0x00, 0x00, 0x00, 0x00, 0x00, 0x00,
                 ;0x00, 0x00, 0x00, 0x00, 0x00, 0x00, 0x00, 0x00,
                 ;0x00, 0x00, 0x00, 0x00, 0x00, 0x00, 0x00, 0x00,
                 ;0x00, 0x00, 0x00, 0x00, 0x00, 0x00, 0x00, 0x00,
                 ;0x00, 0x00, 0x00, 0x00, 0x00, 0x01, 0x01, 0x03,
                 ;0x07, 0x07, 0x0F, 0x0F, 0x0F, 0x0F, 0x0F, 0x0F,
                 ;0x0F, 0x0F, 0x0F, 0x0F, 0x0F, 0x0F, 0x0F, 0x0F,
                 ;0x0F, 0x0F, 0x07, 0x07, 0x00, 0x00, 0x00, 0x00,
                 ;0x00, 0x00, 0x00, 0x01, 0x03, 0x07, 0x07, 0x07,
                 ;0x07, 0x07, 0x07, 0x03, 0x01, 0x01, 0x00, 0x00,
                 ;0x00, 0xF0, 0xFC, 0xFE, 0xFF, 0xFF, 0xFF, 0x3F,
                 ;0x0F, 0x07, 0x01, 0x00, 0x00, 0x00, 0x00, 0x00,
                 ;0x00, 0x00, 0x00, 0x00, 0x00, 0x00, 0x00, 0x00,
                 ;0x00, 0x00, 0x00, 0x00, 0x00, 0x00, 0x00, 0x00,
                 ;0x00, 0x00, 0x00, 0x00, 0x00, 0x00, 0x00, 0x00,
                 ;0x00, 0x00, 0x00, 0x00, 0x00, 0x00, 0x00, 0x00,
                 ;0x00, 0x00, 0x00, 0x00, 0x00, 0x00, 0x00, 0x00,
                 ;0x00, 0x00, 0x00, 0x00, 0x00, 0x00, 0x00, 0x00,
                 ;0x00, 0x00, 0x00, 0x00, 0x00, 0x00, 0x00, 0x00,
                 ;0x00, 0x00, 0x00, 0x00, 0x00, 0x00, 0x00, 0x00,
                 ;0x00, 0x00, 0x00, 0x00, 0x00, 0x00, 0x00, 0x00,
                 ;0x00, 0x00, 0x00, 0x00, 0x00, 0x00, 0x00, 0x00,
                 ;0x00, 0x00, 0x00, 0x00, 0x00, 0x00, 0x00, 0x00,
                 ;0x00, 0x00, 0x00, 0x00, 0x00, 0x00, 0x00, 0x00,
                 ;0x00, 0x00, 0x00, 0x00, 0x00, 0x00, 0x00, 0x00,
                 ;0x00, 0x00, 0x00, 0x00, 0x00, 0x00, 0x00, 0x00,
                 ;0x00, 0x07, 0x1F, 0x3F, 0x3F, 0x7F, 0x7F, 0x7E,
                 ;0x7C, 0x7C, 0x38, 0x00, 0x00, 0x00, 0x00, 0x00,
                 ;0x00, 0x00, 0x00, 0x00, 0x00, 0x00, 0x00, 0x00,
                 ;0x00, 0x00, 0x00, 0x00, 0x00, 0x00, 0x00, 0x00,
                 ;0x00, 0x00, 0x00, 0x00, 0x00, 0x00, 0x00, 0x00,
                 ;0x00, 0x00, 0x00, 0x00, 0x00, 0x00, 0x00, 0x00,
                 ;0x00, 0x00, 0x00, 0x00, 0x00, 0x00, 0x00, 0x00,
                 ;0x00, 0x00, 0x00, 0x00, 0x00, 0x00, 0x00, 0x00,
                 ;0x00, 0x00, 0x00, 0x00, 0x00, 0x00, 0x00, 0x00,
                 ;0x00, 0x00, 0x00, 0x00, 0x00, 0x00, 0x00, 0x00,
                 ;0x00, 0x00, 0x00, 0x00, 0x00, 0x00, 0x00, 0x00,
                 ;0x00, 0x00, 0x00, 0x00, 0x00, 0x00, 0x00, 0x00,
                 ;0x00, 0x00, 0x00, 0x00, 0x00, 0x00, 0x00, 0x00,
                 ;0x00, 0x00, 0x00, 0x00, 0x00, 0x00, 0x00, 0x00
                 ;};
                 ;
                 ;flash unsigned char dog5[1024]={
                 ;0x00, 0x00, 0x00, 0x00, 0x00, 0x00, 0x00, 0x00,
                 ;0x00, 0x00, 0x00, 0x00, 0x00, 0x00, 0x80, 0x80,
                 ;0x80, 0x80, 0xC0, 0xC0, 0xC0, 0xC0, 0xC0, 0xC0,
                 ;0xC0, 0xC0, 0xC0, 0xC0, 0xC0, 0xC0, 0xC0, 0xC0,
                 ;0xC0, 0xC0, 0x80, 0x80, 0x80, 0x00, 0x00, 0x00,
                 ;0x00, 0x00, 0x00, 0x00, 0x00, 0x00, 0x00, 0x00,
                 ;0x00, 0x00, 0x00, 0x00, 0x00, 0x00, 0x00, 0x00,
                 ;0x00, 0x00, 0x00, 0x00, 0x00, 0x00, 0x00, 0x00,
                 ;0x00, 0x00, 0x00, 0x00, 0x00, 0x00, 0x00, 0x00,
                 ;0x00, 0x00, 0x00, 0x00, 0x00, 0x00, 0x00, 0x00,
                 ;0x00, 0x00, 0x00, 0x00, 0x00, 0x00, 0x00, 0x00,
                 ;0x00, 0x00, 0x00, 0x00, 0x00, 0x00, 0x00, 0x00,
                 ;0x00, 0x00, 0x80, 0x80, 0x80, 0x80, 0x80, 0x80,
                 ;0x00, 0x00, 0x00, 0x00, 0x00, 0x00, 0x00, 0x00,
                 ;0x00, 0x00, 0x00, 0x00, 0x00, 0x00, 0x00, 0x00,
                 ;0x00, 0x00, 0x00, 0x00, 0x00, 0x00, 0x00, 0x00,
                 ;0x00, 0x00, 0x00, 0x00, 0x00, 0x00, 0x00, 0x00,
                 ;0x00, 0x02, 0x02, 0x03, 0x01, 0x01, 0x01, 0x01,
                 ;0x01, 0x01, 0x01, 0x01, 0x01, 0x01, 0x01, 0x01,
                 ;0x01, 0x01, 0x01, 0x03, 0x03, 0x03, 0x07, 0x07,
                 ;0x07, 0x0F, 0x0F, 0x1F, 0x3F, 0x3F, 0x7F, 0xFE,
                 ;0xFC, 0xFC, 0xF8, 0xF0, 0xF0, 0xF8, 0xF8, 0xF8,
                 ;0xF8, 0xFC, 0xFC, 0xFC, 0xFC, 0xFC, 0xFC, 0xFC,
                 ;0xFC, 0xF8, 0xF8, 0xF8, 0xF8, 0xF8, 0xF0, 0xF0,
                 ;0xF0, 0xF0, 0xF0, 0xE0, 0xE0, 0xE0, 0xE0, 0xE0,
                 ;0xE0, 0xE0, 0xC0, 0xC0, 0xE0, 0xE0, 0xE0, 0xE0,
                 ;0xE0, 0xE0, 0xE0, 0xE0, 0xE0, 0xF0, 0xF0, 0xE0,
                 ;0xE0, 0xE0, 0xE0, 0xC0, 0xC0, 0x80, 0x80, 0x82,
                 ;0x83, 0x87, 0x87, 0x8F, 0x8F, 0x9F, 0xFF, 0xFF,
                 ;0xFF, 0xFF, 0xFE, 0xFC, 0xF8, 0xF8, 0xF0, 0xF8,
                 ;0xF8, 0xF0, 0xF0, 0xF0, 0xE0, 0xE0, 0xC0, 0x80,
                 ;0x00, 0x00, 0x00, 0x00, 0x00, 0x00, 0x00, 0x00,
                 ;0x00, 0x00, 0x00, 0x00, 0x00, 0x00, 0x00, 0x00,
                 ;0x00, 0x00, 0x00, 0x00, 0x00, 0x00, 0x00, 0x00,
                 ;0x00, 0x00, 0x00, 0x00, 0x00, 0x00, 0x00, 0x00,
                 ;0x00, 0x00, 0x00, 0x00, 0x00, 0x00, 0x00, 0x00,
                 ;0x00, 0x00, 0x00, 0x00, 0x00, 0xC0, 0xF8, 0xFE,
                 ;0xFF, 0xFF, 0xFF, 0xFF, 0xFF, 0xFF, 0xFF, 0xFF,
                 ;0xFF, 0xFF, 0xFF, 0xFF, 0xFF, 0xFF, 0xFF, 0xFF,
                 ;0xFF, 0xFF, 0xFF, 0xFF, 0xFF, 0xFF, 0xFF, 0xFF,
                 ;0xFF, 0xFF, 0xFF, 0xFF, 0xFF, 0xFF, 0xFF, 0xFF,
                 ;0xFF, 0xFF, 0xFF, 0xFF, 0xFF, 0xFF, 0xFF, 0xFF,
                 ;0xFF, 0xFF, 0xFF, 0xFF, 0xFF, 0xFF, 0xFF, 0xFF,
                 ;0xFF, 0xFF, 0xFF, 0xFF, 0xFF, 0xFF, 0xFF, 0xFF,
                 ;0xFF, 0xFF, 0xFF, 0xFF, 0xFF, 0xFF, 0xFF, 0xFF,
                 ;0xFF, 0xFF, 0xFF, 0xFF, 0xFF, 0xFF, 0xFF, 0xFF,
                 ;0xFF, 0xFF, 0xFF, 0xFF, 0xFF, 0xFF, 0xFF, 0xFF,
                 ;0xFF, 0xFF, 0xFE, 0xFC, 0xFC, 0x7C, 0x38, 0x18,
                 ;0x00, 0x00, 0x00, 0x00, 0x00, 0x00, 0x00, 0x00,
                 ;0x00, 0x00, 0x00, 0x00, 0x00, 0x00, 0x00, 0x00,
                 ;0x80, 0x80, 0xC0, 0xE0, 0xF0, 0xFC, 0xFC, 0xFE,
                 ;0x7E, 0x7E, 0xFE, 0xFE, 0xFC, 0xFC, 0xF8, 0xF8,
                 ;0xF0, 0xF0, 0xF8, 0xFC, 0xFE, 0xFF, 0xFF, 0xFF,
                 ;0xFF, 0xFF, 0xFF, 0xFF, 0xFF, 0xFF, 0xFF, 0xFF,
                 ;0xFF, 0xFF, 0xFF, 0xFF, 0xFF, 0x7F, 0x7F, 0x3F,
                 ;0x1F, 0x1F, 0x0F, 0x0F, 0x0F, 0x0F, 0x1F, 0x3F,
                 ;0x7F, 0xFF, 0xFF, 0xFF, 0xFF, 0xFF, 0xFF, 0xFF,
                 ;0xFF, 0xFF, 0xFF, 0xFF, 0xFF, 0xFF, 0xFF, 0xFF,
                 ;0xFF, 0xFF, 0xFF, 0xFF, 0xFF, 0xFF, 0xFF, 0xFF,
                 ;0xFF, 0xFF, 0xFF, 0xFF, 0xFF, 0xFF, 0xFF, 0xFF,
                 ;0xFF, 0x7F, 0x3F, 0x3F, 0x1F, 0x0F, 0x0F, 0x0F,
                 ;0x07, 0x07, 0x07, 0x03, 0x03, 0x03, 0x03, 0x01,
                 ;0x01, 0x01, 0x03, 0x03, 0x03, 0x03, 0x03, 0x03,
                 ;0x03, 0x03, 0x03, 0x01, 0x00, 0x00, 0x00, 0x00,
                 ;0x00, 0x00, 0x00, 0x00, 0x00, 0x00, 0x00, 0x00,
                 ;0x00, 0x00, 0x00, 0x07, 0x1F, 0xBF, 0xFF, 0xFF,
                 ;0xFF, 0xFF, 0xFF, 0xFF, 0xFF, 0xFF, 0xFF, 0x7E,
                 ;0x7E, 0x7F, 0x3F, 0x3F, 0x3F, 0x3F, 0x3F, 0x3F,
                 ;0x7F, 0x7F, 0x7F, 0x7F, 0x3F, 0x3F, 0x3F, 0x1F,
                 ;0x0F, 0x0F, 0x07, 0x07, 0x07, 0x03, 0x03, 0x03,
                 ;0x03, 0x01, 0x01, 0x00, 0x00, 0x00, 0x00, 0x00,
                 ;0x00, 0x00, 0x00, 0x00, 0x00, 0x00, 0x00, 0x00,
                 ;0x00, 0x00, 0x01, 0x03, 0x03, 0x07, 0x07, 0x0F,
                 ;0x0F, 0x0F, 0x1F, 0x1F, 0x1F, 0x1F, 0x1F, 0x1F,
                 ;0x1F, 0x1F, 0x1F, 0x1F, 0x1F, 0x1F, 0xFF, 0xFF,
                 ;0xFF, 0xFF, 0xFF, 0xFF, 0xFF, 0xFF, 0xFF, 0xFF,
                 ;0xFF, 0xFF, 0xFC, 0xF8, 0xF8, 0xF0, 0xF0, 0xF0,
                 ;0xE0, 0xE0, 0xC0, 0xC0, 0x80, 0x80, 0x00, 0x00,
                 ;0x00, 0x00, 0x00, 0x00, 0x00, 0x00, 0x00, 0x00,
                 ;0x00, 0x00, 0x00, 0x00, 0x00, 0x00, 0x00, 0x00,
                 ;0x00, 0x00, 0x70, 0xF0, 0xF8, 0xF8, 0xF8, 0xF8,
                 ;0xFC, 0x7C, 0x7E, 0x7E, 0x3F, 0x1F, 0x1F, 0x0F,
                 ;0x07, 0x07, 0x03, 0x01, 0x01, 0x00, 0x00, 0x00,
                 ;0x00, 0x00, 0x00, 0x00, 0x00, 0x00, 0x00, 0x00,
                 ;0x00, 0x00, 0x00, 0x00, 0x00, 0x00, 0x00, 0x00,
                 ;0x00, 0x00, 0x00, 0x00, 0x00, 0x00, 0x00, 0x00,
                 ;0x00, 0x00, 0x00, 0x00, 0x00, 0x00, 0x00, 0x00,
                 ;0x00, 0x00, 0x00, 0x00, 0x00, 0x00, 0x00, 0x00,
                 ;0x00, 0x00, 0x00, 0x00, 0x00, 0x00, 0x00, 0x00,
                 ;0x00, 0x00, 0x00, 0x00, 0x00, 0x00, 0x00, 0x00,
                 ;0x00, 0x00, 0x00, 0x00, 0x00, 0x00, 0x0F, 0x1F,
                 ;0x7F, 0xFF, 0xFF, 0xFF, 0xFF, 0xFF, 0xFF, 0xF9,
                 ;0xC1, 0x03, 0x03, 0x07, 0x07, 0x0F, 0x0F, 0x0F,
                 ;0x1F, 0x1F, 0x1F, 0x3F, 0x3F, 0x3F, 0x3F, 0x7F,
                 ;0x7E, 0x7E, 0x7C, 0x7C, 0x7C, 0xF8, 0xF8, 0xF8,
                 ;0xFC, 0xFC, 0xFC, 0xFC, 0xFC, 0x7C, 0x3C, 0x18,
                 ;0x00, 0x00, 0x00, 0x00, 0x00, 0x00, 0x00, 0x00,
                 ;0x00, 0x00, 0x00, 0x00, 0x00, 0x00, 0x00, 0x00,
                 ;0x00, 0x00, 0x00, 0x00, 0x00, 0x00, 0x00, 0x00,
                 ;0x00, 0x00, 0x00, 0x00, 0x00, 0x00, 0x00, 0x00,
                 ;0x00, 0x00, 0x00, 0x00, 0x00, 0x00, 0x00, 0x00,
                 ;0x00, 0x00, 0x00, 0x00, 0x00, 0x00, 0x00, 0x00,
                 ;0x00, 0x00, 0x00, 0x00, 0x00, 0x00, 0x00, 0x00,
                 ;0x00, 0x00, 0x00, 0x00, 0x00, 0x00, 0x00, 0x00,
                 ;0x00, 0x00, 0x00, 0x00, 0x00, 0x00, 0x00, 0x00,
                 ;0x00, 0x00, 0x00, 0x00, 0x00, 0x00, 0x00, 0x00,
                 ;0x00, 0x00, 0x00, 0x00, 0x00, 0x00, 0x00, 0x00,
                 ;0x00, 0x00, 0x01, 0x07, 0x0F, 0x1F, 0x3F, 0x7F,
                 ;0xFF, 0xFF, 0xFE, 0xFC, 0xF8, 0xE0, 0xC0, 0x80,
                 ;0x00, 0x00, 0x00, 0x00, 0x00, 0x00, 0x00, 0x00,
                 ;0x00, 0x00, 0x00, 0x00, 0x00, 0x00, 0x00, 0x00,
                 ;0x00, 0x00, 0x00, 0x00, 0x00, 0x00, 0x00, 0x00,
                 ;0x00, 0x00, 0x00, 0x00, 0x00, 0x00, 0x00, 0x00,
                 ;0x00, 0x00, 0x00, 0x00, 0x00, 0x00, 0x00, 0x00,
                 ;0x00, 0x00, 0x00, 0x00, 0x00, 0x00, 0x00, 0x00,
                 ;0x00, 0x00, 0x00, 0x00, 0x00, 0x00, 0x00, 0x00,
                 ;0x00, 0x00, 0x00, 0x00, 0x00, 0x00, 0x00, 0x00,
                 ;0x00, 0x00, 0x00, 0x00, 0x00, 0x00, 0x00, 0x00,
                 ;0x00, 0x00, 0x00, 0x00, 0x00, 0x00, 0x00, 0x00,
                 ;0x00, 0x00, 0x00, 0x00, 0x00, 0x00, 0x00, 0x00,
                 ;0x00, 0x00, 0x00, 0x00, 0x00, 0x00, 0x00, 0x00,
                 ;0x00, 0x00, 0x00, 0x00, 0x00, 0x00, 0x00, 0x00,
                 ;0x00, 0x00, 0x00, 0x00, 0x00, 0x00, 0x00, 0x00,
                 ;0x00, 0x00, 0x00, 0x00, 0x00, 0x00, 0x00, 0x00,
                 ;0x01, 0x03, 0x07, 0x0F, 0x1F, 0x1F, 0x3F, 0x7F,
                 ;0x7F, 0x7E, 0x7C, 0x7C, 0x7C, 0x7C, 0x7C, 0x3C,
                 ;0x3C, 0x38, 0x00, 0x00, 0x00, 0x00, 0x00, 0x00,
                 ;0x00, 0x00, 0x00, 0x00, 0x00, 0x00, 0x00, 0x00
                 ;};
                 ;
                 ;flash unsigned char dog6[1024]={
                 ;0x00, 0x00, 0x00, 0x00, 0x00, 0x00, 0x00, 0x00,
                 ;0x00, 0x00, 0x00, 0x00, 0x00, 0x00, 0x08, 0x08,
                 ;0x0C, 0x0C, 0x06, 0x06, 0x06, 0x07, 0x07, 0x07,
                 ;0x0F, 0x1F, 0x1E, 0x3E, 0x7E, 0x7C, 0xFC, 0xF8,
                 ;0xF8, 0xF0, 0xE0, 0xE0, 0xC0, 0x80, 0x00, 0x00,
                 ;0x00, 0x00, 0x00, 0x00, 0x00, 0x00, 0x00, 0x00,
                 ;0x00, 0x00, 0x00, 0x00, 0x00, 0x00, 0x00, 0x00,
                 ;0x00, 0x00, 0x00, 0x00, 0x00, 0x00, 0x00, 0x00,
                 ;0x00, 0x00, 0x00, 0x00, 0x00, 0x00, 0x00, 0x00,
                 ;0x00, 0x00, 0x00, 0x00, 0x00, 0x00, 0x00, 0x00,
                 ;0x00, 0x00, 0x00, 0x00, 0x00, 0x00, 0x00, 0x00,
                 ;0x00, 0x00, 0x00, 0x00, 0x00, 0x00, 0x00, 0x00,
                 ;0x00, 0x00, 0x00, 0x00, 0x00, 0x00, 0x00, 0x00,
                 ;0x00, 0x00, 0x00, 0x00, 0x00, 0x00, 0x00, 0x00,
                 ;0x00, 0x00, 0x00, 0x00, 0x00, 0x00, 0x00, 0x00,
                 ;0x00, 0x00, 0x00, 0x00, 0x00, 0x00, 0x00, 0x00,
                 ;0x00, 0x00, 0x00, 0x00, 0x00, 0x00, 0x00, 0x00,
                 ;0x00, 0x00, 0x00, 0x00, 0x00, 0x00, 0x00, 0x00,
                 ;0x00, 0x00, 0x00, 0x00, 0x00, 0x00, 0x00, 0x00,
                 ;0x00, 0x00, 0x00, 0x00, 0x00, 0x00, 0x00, 0x01,
                 ;0x03, 0x03, 0x07, 0x0F, 0x0F, 0x1F, 0x3F, 0x3F,
                 ;0x7E, 0xFC, 0xFC, 0xF8, 0xF8, 0xF8, 0xF8, 0xFC,
                 ;0xFC, 0xFC, 0xFC, 0xFC, 0xFC, 0xFC, 0xFC, 0xFC,
                 ;0xFC, 0xFC, 0xF8, 0xF8, 0xF8, 0xF0, 0xF0, 0xE0,
                 ;0xE0, 0xC0, 0xC0, 0x80, 0x80, 0x80, 0x00, 0x00,
                 ;0x00, 0x00, 0x00, 0x00, 0x00, 0x00, 0x00, 0x00,
                 ;0x00, 0x00, 0x00, 0x00, 0x00, 0x00, 0x00, 0x00,
                 ;0x00, 0x00, 0x00, 0x00, 0x00, 0x00, 0x00, 0x00,
                 ;0x30, 0x78, 0xF8, 0xF8, 0xF8, 0xF8, 0xF0, 0xE0,
                 ;0xC0, 0x80, 0x00, 0x00, 0x00, 0x00, 0x00, 0x00,
                 ;0x00, 0x00, 0x00, 0x00, 0x00, 0x00, 0x00, 0x00,
                 ;0x00, 0x00, 0x00, 0x00, 0x00, 0x00, 0x00, 0x00,
                 ;0x00, 0x00, 0x00, 0x00, 0x00, 0x00, 0x00, 0x00,
                 ;0x00, 0x00, 0x00, 0x00, 0x00, 0x00, 0x00, 0x00,
                 ;0x00, 0x00, 0x00, 0x00, 0x00, 0x80, 0xC0, 0xE0,
                 ;0xF0, 0xF8, 0xF8, 0xF8, 0xF8, 0xF0, 0xF0, 0xC0,
                 ;0x80, 0x80, 0x80, 0x80, 0x80, 0xE0, 0xF0, 0xF8,
                 ;0xFF, 0xFF, 0xFF, 0xFF, 0xFF, 0xFF, 0xFF, 0xFF,
                 ;0xFF, 0xFF, 0xFF, 0xFF, 0xFF, 0xFF, 0xFF, 0xFF,
                 ;0xFF, 0xFF, 0xFF, 0xFF, 0xFF, 0xFF, 0xFF, 0xFF,
                 ;0xFF, 0xFF, 0xFF, 0xFF, 0xFF, 0xFF, 0xFF, 0xFF,
                 ;0xFE, 0xFE, 0xFE, 0xFE, 0xFE, 0xFE, 0xFE, 0xFC,
                 ;0xFC, 0xFC, 0xFC, 0xFC, 0xFC, 0xFC, 0xFC, 0xFC,
                 ;0xF8, 0xF8, 0xF8, 0xF0, 0xE0, 0xE0, 0xE0, 0xE0,
                 ;0xE0, 0xE0, 0xE0, 0xE3, 0xFF, 0xFF, 0xFF, 0xFF,
                 ;0xFF, 0xFF, 0xFE, 0xFE, 0xFE, 0xFE, 0xFE, 0xFE,
                 ;0xFE, 0xFC, 0xF8, 0xF0, 0xE0, 0xC0, 0x80, 0x00,
                 ;0x00, 0x00, 0x00, 0x00, 0x00, 0x00, 0x00, 0x00,
                 ;0x00, 0x00, 0x00, 0x00, 0x00, 0x00, 0x00, 0xE0,
                 ;0xE0, 0xE0, 0xF0, 0xF0, 0xF0, 0xF0, 0xF8, 0xF8,
                 ;0xFC, 0xFC, 0xFE, 0x7F, 0x7F, 0x3F, 0x1F, 0x0F,
                 ;0x0F, 0x07, 0x07, 0x07, 0x87, 0x8F, 0xCF, 0xFF,
                 ;0xFF, 0xFF, 0xFF, 0xFF, 0xFF, 0xFF, 0xFF, 0xFF,
                 ;0xFF, 0xFF, 0xFF, 0xFF, 0xFF, 0xFF, 0xFF, 0xFF,
                 ;0xFF, 0xFF, 0xFF, 0xFF, 0xFF, 0xFF, 0xFF, 0xFF,
                 ;0xFF, 0xFF, 0xFF, 0x7F, 0x3F, 0x7F, 0xFF, 0xFF,
                 ;0xFF, 0xFF, 0xFF, 0xFF, 0xFF, 0xFF, 0xFF, 0xFF,
                 ;0xFF, 0xFF, 0xFF, 0xFF, 0xFF, 0xFF, 0xFF, 0xFF,
                 ;0xFF, 0xFF, 0xFF, 0xFF, 0xFF, 0xFF, 0xFF, 0xFF,
                 ;0xFF, 0xFF, 0xFF, 0xFF, 0xFF, 0xFF, 0xFF, 0xFF,
                 ;0xFF, 0xFF, 0xFF, 0xFF, 0xFF, 0xFF, 0xFF, 0xFF,
                 ;0xFF, 0xFF, 0xFF, 0xFF, 0xFF, 0xFF, 0xFF, 0xFF,
                 ;0xFF, 0xFF, 0xFF, 0xFF, 0xFF, 0xFF, 0xFF, 0xFF,
                 ;0xFF, 0xFE, 0xFE, 0x7E, 0x3C, 0x0C, 0x00, 0x00,
                 ;0x00, 0x00, 0x00, 0x00, 0x00, 0x00, 0x00, 0x00,
                 ;0x01, 0x01, 0x03, 0x03, 0x03, 0x03, 0x03, 0x03,
                 ;0x03, 0x01, 0x00, 0x00, 0x1C, 0x3E, 0x3E, 0x3E,
                 ;0x3E, 0x3F, 0x3F, 0x1F, 0x1F, 0x1F, 0x1F, 0x0F,
                 ;0x0F, 0x0F, 0x07, 0x03, 0x03, 0x03, 0x03, 0x03,
                 ;0x03, 0x03, 0x03, 0x03, 0x03, 0x03, 0x03, 0x01,
                 ;0x03, 0x03, 0x03, 0x03, 0x03, 0x01, 0x01, 0x01,
                 ;0x01, 0x00, 0x00, 0x00, 0x00, 0x00, 0x01, 0x03,
                 ;0x07, 0x0F, 0x0F, 0x1F, 0x1F, 0xBF, 0xFF, 0xFF,
                 ;0xFF, 0xFF, 0xFF, 0xFF, 0xFF, 0xFF, 0xFF, 0xFF,
                 ;0xFF, 0xFF, 0xFF, 0xFF, 0xFF, 0xFF, 0xFF, 0xFF,
                 ;0xFF, 0xFF, 0xFF, 0xFF, 0xFF, 0x9F, 0x1F, 0x0F,
                 ;0x0F, 0x07, 0x07, 0x03, 0x03, 0x03, 0x01, 0x01,
                 ;0x01, 0x01, 0x00, 0x00, 0x00, 0x00, 0x01, 0x01,
                 ;0x03, 0x03, 0x03, 0x03, 0x03, 0x03, 0x03, 0x03,
                 ;0x01, 0x01, 0x00, 0x00, 0x00, 0x00, 0x00, 0x00,
                 ;0x00, 0x00, 0x00, 0x00, 0x00, 0x00, 0x00, 0x00,
                 ;0x00, 0x00, 0x00, 0x00, 0x00, 0x00, 0x00, 0x00,
                 ;0x00, 0x00, 0x00, 0x00, 0x00, 0x00, 0x00, 0x00,
                 ;0x00, 0x00, 0x00, 0x00, 0x00, 0x00, 0x00, 0x00,
                 ;0x00, 0x00, 0x00, 0x00, 0x00, 0x00, 0x00, 0x00,
                 ;0x00, 0x00, 0x00, 0x00, 0x00, 0x00, 0x00, 0x00,
                 ;0x00, 0x00, 0x00, 0x00, 0x00, 0x00, 0x00, 0x00,
                 ;0x00, 0x00, 0x00, 0x00, 0x00, 0x00, 0x00, 0x00,
                 ;0x00, 0xC0, 0xF0, 0xFC, 0xFF, 0xFF, 0xFF, 0xFF,
                 ;0xFF, 0x7F, 0x3F, 0x1F, 0x0F, 0x07, 0x03, 0x01,
                 ;0x01, 0x01, 0x01, 0x03, 0x0F, 0x0F, 0x1F, 0x3F,
                 ;0x3F, 0x7F, 0x7F, 0xFF, 0xFF, 0xFF, 0xFF, 0xFE,
                 ;0xFC, 0xF8, 0xF0, 0xE0, 0xC0, 0x80, 0x00, 0x00,
                 ;0x00, 0x00, 0x00, 0x00, 0x00, 0x00, 0x00, 0x00,
                 ;0x00, 0x00, 0x00, 0x00, 0x00, 0x00, 0x00, 0x00,
                 ;0x00, 0x00, 0x00, 0x00, 0x00, 0x00, 0x00, 0x00,
                 ;0x00, 0x00, 0x00, 0x00, 0x00, 0x00, 0x00, 0x00,
                 ;0x00, 0x00, 0x00, 0x00, 0x00, 0x00, 0x00, 0x00,
                 ;0x00, 0x00, 0x00, 0x00, 0x00, 0x00, 0x00, 0x00,
                 ;0x00, 0x00, 0x00, 0x00, 0x00, 0x00, 0x00, 0x00,
                 ;0x00, 0x00, 0x00, 0x00, 0x00, 0x00, 0x00, 0x00,
                 ;0x00, 0x00, 0x00, 0x00, 0x00, 0x00, 0x00, 0x00,
                 ;0x00, 0x00, 0x00, 0x00, 0x00, 0x00, 0x00, 0x00,
                 ;0x00, 0x00, 0x00, 0x00, 0x00, 0x00, 0xE0, 0xFC,
                 ;0xFF, 0xFF, 0xFF, 0x3F, 0x1F, 0x07, 0x03, 0x01,
                 ;0x00, 0x00, 0x00, 0x00, 0x00, 0x00, 0x00, 0x00,
                 ;0x00, 0x00, 0x00, 0x00, 0x00, 0x00, 0x00, 0x00,
                 ;0x00, 0x00, 0x00, 0x00, 0x00, 0x01, 0x01, 0x03,
                 ;0x03, 0x07, 0x0F, 0x1F, 0x1F, 0x3F, 0x7F, 0x7E,
                 ;0xFC, 0xF8, 0xF8, 0xF0, 0xF0, 0xE0, 0xE0, 0xE0,
                 ;0xE0, 0xE0, 0xE0, 0xC0, 0x80, 0x00, 0x00, 0x00,
                 ;0x00, 0x00, 0x00, 0x00, 0x00, 0x00, 0x00, 0x00,
                 ;0x00, 0x00, 0x00, 0x00, 0x00, 0x00, 0x00, 0x00,
                 ;0x00, 0x00, 0x00, 0x00, 0x00, 0x00, 0x00, 0x00,
                 ;0x00, 0x00, 0x00, 0x00, 0x00, 0x00, 0x00, 0x00,
                 ;0x00, 0x00, 0x00, 0x00, 0x00, 0x00, 0x00, 0x00,
                 ;0x00, 0x00, 0x00, 0x00, 0x00, 0x00, 0x00, 0x00,
                 ;0x00, 0x00, 0x00, 0x00, 0x00, 0x00, 0x00, 0x00,
                 ;0x00, 0x00, 0x00, 0x00, 0x00, 0x00, 0x00, 0x00,
                 ;0x00, 0x00, 0x00, 0x00, 0x00, 0x00, 0x1F, 0x3F,
                 ;0x3F, 0x7F, 0x7F, 0x7F, 0x7E, 0x7C, 0x30, 0x00,
                 ;0x00, 0x00, 0x00, 0x00, 0x00, 0x00, 0x00, 0x00,
                 ;0x00, 0x00, 0x00, 0x00, 0x00, 0x00, 0x00, 0x00,
                 ;0x00, 0x00, 0x00, 0x00, 0x00, 0x00, 0x00, 0x00,
                 ;0x00, 0x00, 0x00, 0x00, 0x00, 0x00, 0x00, 0x00,
                 ;0x00, 0x01, 0x01, 0x01, 0x03, 0x03, 0x03, 0x03,
                 ;0x03, 0x03, 0x03, 0x03, 0x03, 0x00, 0x00, 0x00,
                 ;0x00, 0x00, 0x00, 0x00, 0x00, 0x00, 0x00, 0x00
                 ;};
                 ;//end of the running dog pictures
                 ;
                 ;
                 ;//tiger
                 ;flash unsigned char image0[1024]=
                 ;{
                 ;0x00, 0x00, 0x00, 0x00, 0x00, 0x00, 0x00, 0x00,
                 ;0x00, 0x00, 0x00, 0x00, 0x00, 0x00, 0x00, 0x00,
                 ;0x00, 0x00, 0x00, 0x00, 0x00, 0x00, 0x00, 0x00,
                 ;0x00, 0x00, 0x00, 0x00, 0x00, 0x00, 0x00, 0x00,
                 ;0x00, 0x00, 0x00, 0x00, 0x00, 0x00, 0x00, 0x00,
                 ;0x00, 0x00, 0x00, 0x00, 0x00, 0x00, 0x80, 0x00,
                 ;0x00, 0x00, 0x80, 0x00, 0x00, 0x00, 0x00, 0x00,
                 ;0x00, 0x00, 0x00, 0x00, 0x00, 0x00, 0x00, 0x00,
                 ;0x00, 0x00, 0x00, 0x00, 0x00, 0x00, 0x00, 0x00,
                 ;0x00, 0x00, 0x00, 0x00, 0x00, 0x00, 0x00, 0x00,
                 ;0x00, 0x00, 0x00, 0x00, 0x00, 0x00, 0x00, 0x00,
                 ;0x00, 0x00, 0x00, 0x00, 0x00, 0x00, 0x00, 0x00,
                 ;0x00, 0x00, 0x00, 0x00, 0x00, 0x00, 0x00, 0x00,
                 ;0x00, 0x00, 0x00, 0x00, 0x00, 0x00, 0x00, 0x00,
                 ;0x00, 0x00, 0x00, 0x00, 0x00, 0x00, 0x00, 0x00,
                 ;0x00, 0x00, 0x00, 0x00, 0x00, 0x00, 0x00, 0x00,
                 ;0x00, 0x00, 0x00, 0x00, 0x00, 0x00, 0x00, 0x00,
                 ;0x00, 0x00, 0x80, 0x80, 0xC0, 0x80, 0x00, 0x00,
                 ;0x00, 0x00, 0x00, 0x00, 0x00, 0x00, 0x80, 0x00,
                 ;0x02, 0x00, 0x28, 0xEC, 0xEC, 0xF4, 0xF0, 0xF8,
                 ;0xF8, 0x18, 0x48, 0x48, 0xE8, 0xE8, 0x28, 0x10,
                 ;0xD0, 0xD0, 0x90, 0xF0, 0xD0, 0xD1, 0xF8, 0xF8,
                 ;0xFE, 0x61, 0xC2, 0xC0, 0x00, 0x00, 0x00, 0x00,
                 ;0x00, 0x00, 0x00, 0x00, 0x00, 0x00, 0x00, 0x00,
                 ;0x00, 0x00, 0x00, 0x00, 0x00, 0x00, 0x00, 0x00,
                 ;0x00, 0x00, 0x00, 0x00, 0x00, 0x00, 0x00, 0x00,
                 ;0x00, 0x00, 0x00, 0x00, 0x00, 0x00, 0x00, 0x00,
                 ;0x00, 0x00, 0x00, 0x00, 0x00, 0x00, 0x00, 0x00,
                 ;0x00, 0x00, 0x00, 0x00, 0x00, 0x00, 0x00, 0x00,
                 ;0x00, 0x00, 0x00, 0x00, 0x00, 0x00, 0x00, 0x00,
                 ;0x00, 0x00, 0x00, 0x00, 0x00, 0x00, 0x00, 0x00,
                 ;0x00, 0x00, 0x00, 0x00, 0x00, 0x00, 0x00, 0x00,
                 ;0xF0, 0x10, 0x08, 0x00, 0x80, 0xC0, 0xE0, 0xF0,
                 ;0xB0, 0x47, 0x2F, 0x07, 0x0B, 0x05, 0x02, 0x00,
                 ;0x00, 0x00, 0x00, 0x00, 0x00, 0x00, 0x80, 0xC0,
                 ;0xE0, 0xD0, 0xA0, 0x88, 0xE0, 0xE5, 0xFB, 0xE1,
                 ;0x22, 0x06, 0x03, 0x3D, 0xFF, 0xFF, 0xFE, 0x73,
                 ;0x79, 0x79, 0x4C, 0x66, 0xB3, 0x7B, 0xFE, 0xFB,
                 ;0x1A, 0x31, 0xEB, 0x53, 0xEA, 0xF4, 0xEC, 0xF8,
                 ;0xA0, 0x00, 0x80, 0x00, 0x00, 0x00, 0x00, 0x00,
                 ;0x00, 0x00, 0x00, 0x00, 0x00, 0x00, 0x00, 0x00,
                 ;0x00, 0x00, 0x00, 0x00, 0x00, 0x00, 0x00, 0x00,
                 ;0x00, 0x00, 0x00, 0x00, 0x00, 0x00, 0x00, 0x00,
                 ;0x00, 0x00, 0x00, 0x00, 0x00, 0x00, 0x00, 0x00,
                 ;0x00, 0x00, 0x00, 0x00, 0x00, 0x00, 0x00, 0x00,
                 ;0x00, 0x00, 0x00, 0x00, 0x00, 0x00, 0x00, 0x00,
                 ;0x00, 0x00, 0x00, 0x00, 0x00, 0x00, 0x00, 0x00,
                 ;0x00, 0x00, 0x00, 0x00, 0x00, 0x00, 0x00, 0x00,
                 ;0x80, 0x40, 0xB8, 0x7C, 0xFE, 0xFE, 0xFE, 0xFD,
                 ;0xFA, 0xFC, 0xFE, 0xD0, 0x28, 0xD0, 0x80, 0x00,
                 ;0x08, 0x00, 0x80, 0x40, 0xE8, 0xE0, 0xFA, 0xDD,
                 ;0xCF, 0x0D, 0x0F, 0xCF, 0xFF, 0xFF, 0x9F, 0x0F,
                 ;0x0C, 0x18, 0x18, 0xF8, 0xF1, 0x41, 0xE3, 0xC5,
                 ;0xA4, 0x24, 0x40, 0x00, 0x82, 0xC2, 0x81, 0x09,
                 ;0x1B, 0x18, 0x33, 0x7F, 0xFF, 0xFF, 0xFF, 0xFF,
                 ;0xFF, 0xF0, 0xF0, 0xE0, 0x80, 0x00, 0x00, 0x00,
                 ;0x00, 0x00, 0x00, 0x00, 0x00, 0x00, 0x00, 0x00,
                 ;0x00, 0x00, 0x00, 0x00, 0x00, 0x00, 0x00, 0x00,
                 ;0x00, 0x00, 0x00, 0x00, 0x00, 0x00, 0x00, 0x00,
                 ;0x00, 0x00, 0x00, 0x00, 0x00, 0x00, 0x00, 0x00,
                 ;0x00, 0x00, 0x00, 0x00, 0x00, 0x00, 0x00, 0x00,
                 ;0x00, 0x00, 0x00, 0x00, 0x00, 0x00, 0x00, 0x00,
                 ;0x00, 0x00, 0x00, 0x00, 0x00, 0x00, 0x00, 0x00,
                 ;0x00, 0x00, 0x00, 0x00, 0x00, 0x00, 0x00, 0x00,
                 ;0xBE, 0xDC, 0xAA, 0x76, 0xAA, 0x94, 0x8F, 0x17,
                 ;0x22, 0x67, 0x0A, 0x00, 0x08, 0x03, 0x02, 0x00,
                 ;0x00, 0x14, 0xAA, 0xF0, 0xE3, 0x0F, 0xFF, 0xFF,
                 ;0xFF, 0xF0, 0x80, 0x00, 0xE0, 0xF1, 0xFF, 0xF0,
                 ;0xE0, 0x00, 0x00, 0x7F, 0x21, 0x00, 0x08, 0x00,
                 ;0x30, 0x01, 0x80, 0x56, 0xE7, 0x57, 0x2A, 0x37,
                 ;0x16, 0xEC, 0xEE, 0xFF, 0xBA, 0xD9, 0xFB, 0xFF,
                 ;0xDF, 0x1F, 0x3B, 0x7F, 0xFF, 0xFF, 0xFE, 0xFC,
                 ;0xF8, 0xE0, 0x80, 0x00, 0x00, 0x00, 0x00, 0x00,
                 ;0x00, 0x00, 0x00, 0x00, 0x00, 0x00, 0x00, 0x00,
                 ;0x00, 0x00, 0x00, 0x00, 0x00, 0x00, 0x00, 0x00,
                 ;0x00, 0x00, 0x00, 0x00, 0x00, 0x00, 0x00, 0x00,
                 ;0x00, 0x00, 0x00, 0x00, 0x00, 0x00, 0x00, 0x00,
                 ;0x00, 0x00, 0x00, 0x00, 0x00, 0x00, 0x00, 0x00,
                 ;0x00, 0x00, 0x00, 0x00, 0x00, 0x00, 0x00, 0x00,
                 ;0x00, 0x00, 0x00, 0x00, 0x00, 0x00, 0x00, 0x00,
                 ;0xB3, 0x75, 0xF8, 0xC0, 0xC9, 0x85, 0xAA, 0x11,
                 ;0xEB, 0x80, 0x80, 0x00, 0x00, 0x00, 0x00, 0x00,
                 ;0x00, 0x00, 0x0E, 0x04, 0x2B, 0x1F, 0xFE, 0x7F,
                 ;0xE3, 0x1F, 0xBF, 0xF0, 0xE3, 0xCF, 0x2B, 0x61,
                 ;0xA3, 0xC0, 0x20, 0x08, 0x00, 0x00, 0x00, 0x00,
                 ;0x00, 0x00, 0x00, 0x01, 0x01, 0x00, 0x00, 0x04,
                 ;0x13, 0x11, 0x15, 0x15, 0x97, 0x15, 0x97, 0x95,
                 ;0x17, 0x16, 0x1C, 0x18, 0x30, 0x00, 0x00, 0x00,
                 ;0x00, 0x10, 0x08, 0x00, 0x00, 0x00, 0x00, 0x00,
                 ;0x00, 0x00, 0x00, 0x00, 0x00, 0x00, 0x00, 0x00,
                 ;0x00, 0x00, 0x00, 0x00, 0x00, 0x00, 0x00, 0x00,
                 ;0x00, 0x00, 0x00, 0x00, 0x00, 0x00, 0x00, 0x00,
                 ;0x00, 0x00, 0x00, 0x00, 0x00, 0x00, 0x00, 0x00,
                 ;0x00, 0x00, 0x00, 0x00, 0x00, 0x00, 0x00, 0x00,
                 ;0x00, 0x00, 0x00, 0x00, 0x00, 0x00, 0x00, 0x00,
                 ;0x00, 0x00, 0x00, 0x00, 0x00, 0x00, 0x00, 0x00,
                 ;0xF8, 0xF0, 0xA0, 0x61, 0x82, 0x01, 0x8A, 0x8F,
                 ;0x8E, 0x15, 0x0E, 0x14, 0x08, 0x00, 0x80, 0x00,
                 ;0x00, 0x00, 0x00, 0x00, 0x00, 0x00, 0x01, 0x01,
                 ;0x03, 0x00, 0x00, 0x01, 0x2F, 0x07, 0x28, 0x00,
                 ;0x01, 0x01, 0x08, 0x00, 0x00, 0x00, 0x00, 0x00,
                 ;0x00, 0x00, 0x00, 0x00, 0x00, 0x00, 0x00, 0x00,
                 ;0x00, 0x00, 0x00, 0x00, 0x00, 0x00, 0x00, 0x00,
                 ;0x00, 0x00, 0x00, 0x00, 0x00, 0x00, 0x00, 0x00,
                 ;0x00, 0x00, 0x00, 0x00, 0x00, 0x00, 0x00, 0x00,
                 ;0x00, 0x00, 0x00, 0x00, 0x00, 0x00, 0x00, 0x00,
                 ;0x00, 0x00, 0x00, 0x00, 0x00, 0x00, 0x00, 0x00,
                 ;0x00, 0x00, 0x00, 0x00, 0x00, 0x00, 0x00, 0x00,
                 ;0x00, 0x00, 0x00, 0x00, 0x00, 0x00, 0x00, 0x00,
                 ;0x00, 0x00, 0x00, 0x00, 0x00, 0x00, 0x00, 0x00,
                 ;0x00, 0x00, 0x00, 0x00, 0x00, 0x00, 0x00, 0x00,
                 ;0x00, 0x00, 0x00, 0x00, 0x00, 0x00, 0x00, 0x00,
                 ;0xBB, 0x56, 0xAA, 0x76, 0xBA, 0x08, 0xFA, 0x31,
                 ;0xA2, 0x42, 0xC2, 0x00, 0x80, 0x40, 0x02, 0x00,
                 ;0x02, 0x40, 0x00, 0x00, 0x00, 0x00, 0x00, 0x00,
                 ;0x20, 0x00, 0x00, 0x00, 0x00, 0x00, 0x00, 0x00,
                 ;0x00, 0x00, 0x00, 0x00, 0x00, 0x00, 0x00, 0x00,
                 ;0x00, 0x00, 0x00, 0x00, 0x00, 0x00, 0x00, 0x00,
                 ;0x00, 0x00, 0x00, 0x00, 0x00, 0x00, 0x00, 0x00,
                 ;0x00, 0x00, 0x00, 0x00, 0x00, 0x00, 0x00, 0x00,
                 ;0x00, 0x00, 0x00, 0x00, 0x00, 0x00, 0x00, 0x00,
                 ;0x00, 0x00, 0x00, 0x00, 0x00, 0x00, 0x00, 0x00,
                 ;0x00, 0x00, 0x00, 0x00, 0x00, 0x00, 0x00, 0x00,
                 ;0x00, 0x00, 0x00, 0x00, 0x00, 0x00, 0x00, 0x00,
                 ;0x00, 0x00, 0x00, 0x00, 0x00, 0x00, 0x00, 0x00,
                 ;0x00, 0x00, 0x00, 0x00, 0x00, 0x00, 0x00, 0x00,
                 ;0x00, 0x00, 0x00, 0x00, 0x00, 0x00, 0x00, 0x00,
                 ;0x00, 0x00, 0x00, 0x00, 0x00, 0x00, 0x00, 0x00
                 ;};
                 ;
                 ;//avr image
                 ;flash unsigned char image1[1024] =
                 ;{
                 ;0x00,0xFE,0x02,0x02,0x02,0x02,0x02,0x02,
                 ;0x02,0x02,0x02,0x02,0x02,0x02,0x02,0x02,
                 ;0x02,0x02,0x02,0x02,0x02,0x02,0x02,0x02,
                 ;0x02,0x02,0x02,0x02,0x02,0x02,0x02,0x02,
                 ;0x02,0x02,0x02,0x02,0x02,0x02,0x02,0x02,
                 ;0x02,0x02,0x02,0x02,0x02,0x02,0x02,0x02,
                 ;0x02,0x02,0x02,0x02,0x02,0x02,0x02,0x02,
                 ;0x02,0x02,0x02,0x02,0x02,0x02,0x02,0x02,
                 ;0x02,0x02,0x02,0x02,0x02,0x02,0x02,0x02,
                 ;0x02,0x02,0x02,0x02,0x02,0x02,0x02,0x02,
                 ;0x02,0x02,0x02,0x02,0x02,0x02,0x02,0x02,
                 ;0x02,0x02,0x02,0x02,0x02,0x02,0x02,0x02,
                 ;0x02,0x02,0x02,0x02,0x02,0x02,0x02,0x02,
                 ;0x02,0x02,0x02,0x02,0x02,0x02,0x02,0x02,
                 ;0x02,0x02,0x02,0x02,0x02,0x02,0x02,0x02,
                 ;0x02,0x02,0x02,0x02,0x02,0x02,0xFE,0x00,
                 ;0x00,0xFF,0x00,0x00,0x00,0x00,0x00,0xFF,
                 ;0xFF,0x07,0x1E,0x38,0x60,0xC0,0x60,0x30,
                 ;0x1E,0x07,0xFF,0xFF,0x00,0x00,0xFF,0xFF,
                 ;0x83,0x83,0x83,0x83,0x83,0x83,0x83,0x00,
                 ;0x00,0xFC,0xFC,0x06,0x03,0x03,0x83,0x83,
                 ;0x83,0x8F,0x8E,0x00,0x00,0xF0,0xF8,0x8C,
                 ;0x84,0x86,0x83,0x83,0x83,0x86,0x8C,0x8C,
                 ;0xF8,0xF0,0x00,0x00,0x80,0x80,0x80,0x80,
                 ;0x80,0x80,0x00,0x00,0xF0,0xF8,0x9C,0x8C,
                 ;0x86,0x87,0x83,0x83,0x87,0x8E,0x9C,0xF8,
                 ;0xF0,0x00,0x00,0xFF,0xFF,0x00,0x00,0x00,
                 ;0x00,0x00,0x00,0x00,0x00,0x00,0xFF,0xFF,
                 ;0x00,0x00,0xFC,0xFE,0x83,0x83,0x83,0x83,
                 ;0x83,0x83,0x83,0xFE,0x3C,0x00,0x00,0x00,
                 ;0x00,0x00,0x00,0x00,0x00,0x00,0x00,0x00,
                 ;0x00,0x00,0x00,0x00,0x00,0x00,0xFF,0x00,
                 ;0x00,0xFF,0x00,0x00,0x00,0x00,0x00,0xFF,
                 ;0xFF,0x00,0x00,0x00,0x00,0x00,0x00,0x00,
                 ;0x00,0x00,0xFF,0xFF,0x00,0x00,0xFF,0xFF,
                 ;0xC1,0xC1,0xC1,0xC1,0xC1,0xC1,0xC1,0x00,
                 ;0x00,0x1F,0x3F,0x70,0xE0,0xC0,0xC1,0xE1,
                 ;0x31,0x3F,0x0F,0x00,0x00,0xFF,0xFF,0x01,
                 ;0x01,0x01,0x01,0x01,0x01,0x01,0x01,0x01,
                 ;0xFF,0xFF,0x00,0x00,0x01,0x01,0x01,0x01,
                 ;0x01,0x01,0x00,0x00,0xFF,0xFF,0x01,0x01,
                 ;0x01,0x01,0x01,0x01,0x01,0x01,0x01,0xFF,
                 ;0xFF,0x00,0x00,0x03,0x0F,0x18,0x30,0x60,
                 ;0xC0,0x80,0x80,0xC0,0x70,0x18,0x0F,0x03,
                 ;0x00,0x00,0xFF,0xFF,0x01,0x01,0x03,0x07,
                 ;0x0D,0x39,0x71,0xC0,0x80,0x00,0x00,0x00,
                 ;0x00,0x00,0x00,0x00,0x00,0x00,0x00,0x00,
                 ;0x00,0x00,0x00,0x00,0x00,0x00,0xFF,0x00,
                 ;0x00,0xFF,0x00,0x00,0x00,0x00,0x00,0x00,
                 ;0x00,0x00,0x00,0x00,0x00,0x00,0x00,0x00,
                 ;0x00,0x80,0x80,0xC0,0xC0,0xC0,0xC0,0xC0,
                 ;0xC0,0xC0,0xC0,0xC0,0xC0,0xC0,0xC0,0xC0,
                 ;0x80,0x80,0x00,0x00,0x00,0x00,0x00,0x00,
                 ;0x00,0x00,0x00,0x00,0x00,0x00,0x00,0x00,
                 ;0x00,0x00,0x00,0x00,0x00,0x00,0x00,0x00,
                 ;0x00,0x00,0x00,0x00,0x00,0x00,0x00,0x00,
                 ;0x00,0x00,0x00,0x00,0x00,0x00,0x00,0x00,
                 ;0x00,0x20,0x60,0xC0,0xC0,0x80,0x80,0x00,
                 ;0x00,0x00,0x00,0x00,0x00,0x00,0x00,0x00,
                 ;0x00,0x00,0x00,0x00,0x00,0x00,0x00,0x00,
                 ;0x00,0x00,0x00,0x00,0x00,0x00,0x00,0x00,
                 ;0x00,0x00,0x00,0x00,0x00,0x00,0x00,0x80,
                 ;0xC0,0xC0,0x20,0x00,0x00,0x00,0x00,0x00,
                 ;0x00,0x00,0x00,0x00,0x00,0x00,0xFF,0x00,
                 ;0x00,0xFF,0x00,0x00,0x00,0x00,0x00,0x00,
                 ;0x00,0x00,0x00,0x80,0xE0,0xF8,0x3C,0x1E,
                 ;0x06,0x03,0xC1,0x61,0x20,0x20,0x60,0xC0,
                 ;0x00,0x00,0x00,0x80,0xC0,0x41,0x41,0xC1,
                 ;0x03,0x03,0x03,0x06,0x1C,0x18,0x38,0x70,
                 ;0xE0,0x80,0x00,0x00,0x00,0x00,0x00,0x01,
                 ;0x03,0x06,0x0C,0x18,0x30,0xE0,0xC0,0xC0,
                 ;0xC0,0xE0,0x30,0x18,0x0C,0x06,0x03,0x01,
                 ;0x00,0x00,0x00,0x00,0x00,0x00,0x00,0x00,
                 ;0x00,0x00,0x00,0x00,0x00,0x01,0x03,0x07,
                 ;0x0F,0x0E,0x1C,0x3C,0x78,0x78,0xF0,0xF0,
                 ;0xE0,0xC0,0xC0,0x80,0x80,0x00,0x00,0x00,
                 ;0x00,0x00,0x80,0x80,0xC0,0xE0,0xE0,0xF0,
                 ;0xF8,0xF8,0xFC,0xFC,0x7E,0x1F,0x0F,0x03,
                 ;0x01,0x00,0x00,0x00,0x00,0x00,0x00,0x00,
                 ;0x00,0x00,0x00,0x00,0x00,0x00,0xFF,0x00,
                 ;0x00,0xFF,0x00,0x00,0x00,0x00,0x00,0x00,
                 ;0x00,0x00,0xF8,0xFF,0x03,0x00,0x00,0x00,
                 ;0x80,0x87,0x8D,0x0C,0x09,0x0C,0x06,0x03,
                 ;0x00,0x00,0x1F,0x11,0x12,0x18,0x0C,0x87,
                 ;0x80,0x00,0x00,0x00,0x00,0x00,0x00,0xE0,
                 ;0x7F,0x0F,0x00,0x00,0x00,0x00,0x00,0x00,
                 ;0xFF,0xFF,0x03,0x03,0x03,0x03,0x03,0x03,
                 ;0x03,0x03,0x03,0x03,0x03,0x03,0x03,0x03,
                 ;0xFF,0xFF,0x00,0x00,0x00,0x00,0x00,0x00,
                 ;0x00,0x00,0x00,0x00,0x00,0x00,0x00,0x00,
                 ;0x00,0x00,0x00,0x00,0x00,0x00,0x80,0x81,
                 ;0xC3,0xE7,0xE7,0xFF,0xFF,0xFF,0xFF,0xFE,
                 ;0xFE,0xFF,0xFF,0xFF,0xFF,0xFF,0xFF,0xFF,
                 ;0xCF,0x87,0x83,0x00,0x00,0x00,0x00,0x00,
                 ;0x00,0x00,0x00,0x00,0x00,0x00,0x00,0x00,
                 ;0x00,0x00,0x00,0x00,0x00,0x00,0xFF,0x00,
                 ;0x00,0xFF,0x00,0x00,0x00,0x00,0x00,0x00,
                 ;0x00,0x00,0x0F,0x1F,0x7C,0xF8,0xC0,0x80,
                 ;0x81,0x87,0x8D,0x8B,0x0A,0x1A,0x16,0x14,
                 ;0x14,0x14,0x14,0x14,0x16,0x1B,0x0D,0x07,
                 ;0x81,0x80,0xC0,0xE0,0x78,0x3E,0x1F,0x07,
                 ;0x00,0x00,0x00,0x00,0x00,0x00,0x00,0x00,
                 ;0xFF,0xFF,0x80,0x80,0x80,0x80,0x80,0x80,
                 ;0x80,0x80,0x80,0x80,0x80,0x80,0x80,0x80,
                 ;0xFF,0xFF,0x00,0x00,0x00,0x00,0x00,0x00,
                 ;0x00,0x00,0x80,0xC0,0xC0,0xE0,0xF0,0xF0,
                 ;0xF8,0xFC,0xFC,0xFE,0xFF,0xFF,0xFF,0xFF,
                 ;0xFF,0xFF,0xFF,0xFF,0xFF,0xFF,0xFF,0xFF,
                 ;0xFF,0xBF,0x9F,0x8F,0x87,0x8F,0x9F,0xBF,
                 ;0xBF,0xFF,0xFF,0xFF,0xFF,0xFE,0xFE,0xFC,
                 ;0xFC,0xF8,0xF0,0xF0,0xE0,0xE0,0xC0,0xC0,
                 ;0x80,0x00,0x00,0x00,0x00,0x00,0xFF,0x00,
                 ;0x00,0x7F,0x40,0x40,0x40,0x40,0x40,0x40,
                 ;0x40,0x40,0x40,0x40,0x40,0x40,0x40,0x41,
                 ;0x43,0x43,0x43,0x43,0x43,0x43,0x43,0x43,
                 ;0x43,0x43,0x43,0x43,0x43,0x43,0x43,0x43,
                 ;0x41,0x41,0x41,0x40,0x40,0x40,0x40,0x40,
                 ;0x40,0x40,0x40,0x40,0x40,0x40,0x40,0x40,
                 ;0x41,0x41,0x41,0x41,0x41,0x41,0x41,0x41,
                 ;0x41,0x41,0x41,0x41,0x41,0x41,0x41,0x41,
                 ;0x41,0x41,0x40,0x40,0x40,0x40,0x40,0x40,
                 ;0x40,0x40,0x40,0x40,0x40,0x40,0x40,0x40,
                 ;0x40,0x40,0x40,0x40,0x40,0x40,0x40,0x40,
                 ;0x40,0x40,0x40,0x40,0x40,0x40,0x40,0x40,
                 ;0x40,0x40,0x40,0x40,0x40,0x40,0x40,0x40,
                 ;0x40,0x40,0x40,0x40,0x40,0x40,0x40,0x40,
                 ;0x40,0x40,0x40,0x40,0x40,0x40,0x40,0x40,
                 ;0x40,0x40,0x40,0x40,0x40,0x40,0x7F,0x00
                 ;};
                 ;
                 ;
                 ;flash unsigned char mishaniya[1024] ={
                 ;0x00, 0x00, 0x00, 0x00, 0x00, 0x00, 0x00, 0x00,
                 ;0x00, 0x00, 0x00, 0x00, 0x00, 0x00, 0x00, 0x00,
                 ;0x00, 0x00, 0x00, 0x00, 0x00, 0x00, 0x00, 0x00,
                 ;0x00, 0x00, 0x00, 0x00, 0x00, 0x00, 0x00, 0x80,
                 ;0x80, 0x80, 0x80, 0x80, 0x00, 0x00, 0x80, 0x80,
                 ;0x00, 0x80, 0x00, 0x00, 0x00, 0x00, 0x00, 0x00,
                 ;0x00, 0x00, 0x00, 0x00, 0x00, 0x80, 0x80, 0x00,
                 ;0x00, 0x00, 0x00, 0x00, 0x00, 0x00, 0x00, 0x00,
                 ;0x00, 0x00, 0x00, 0x00, 0x00, 0x00, 0x00, 0x00,
                 ;0x00, 0x00, 0x00, 0x00, 0x00, 0x00, 0x00, 0x00,
                 ;0x00, 0x00, 0x00, 0x00, 0x00, 0x00, 0x00, 0x00,
                 ;0x00, 0x00, 0x00, 0x00, 0x00, 0x00, 0x00, 0x00,
                 ;0x00, 0x00, 0x00, 0x00, 0x00, 0x00, 0x00, 0x00,
                 ;0x00, 0x00, 0x00, 0x00, 0x00, 0x00, 0x00, 0x00,
                 ;0x00, 0x00, 0x00, 0x00, 0x00, 0x00, 0x00, 0x00,
                 ;0x00, 0x00, 0x00, 0x00, 0x00, 0x00, 0x00, 0x00,
                 ;0x00, 0x00, 0x00, 0x00, 0x00, 0x00, 0x00, 0x00,
                 ;0x00, 0x00, 0x00, 0x00, 0x00, 0x00, 0x00, 0x00,
                 ;0x00, 0x00, 0x00, 0x00, 0x00, 0x00, 0xC0, 0xF0,
                 ;0xF8, 0xFC, 0xFC, 0xFE, 0xFF, 0xFF, 0xFF, 0xFF,
                 ;0xFF, 0xFF, 0xFF, 0x7F, 0x7F, 0xFF, 0xFF, 0xFF,
                 ;0xFF, 0xFF, 0xFF, 0xFF, 0xFF, 0xFE, 0xFE, 0xFC,
                 ;0xFC, 0xFC, 0xF8, 0xF0, 0xE0, 0xC1, 0x81, 0x00,
                 ;0x00, 0x00, 0x00, 0x00, 0x00, 0x00, 0x00, 0x00,
                 ;0x00, 0x00, 0x00, 0x00, 0x00, 0x00, 0x00, 0x00,
                 ;0x00, 0x00, 0x00, 0x00, 0x00, 0x00, 0x00, 0x7F,
                 ;0x06, 0x38, 0x60, 0x18, 0x06, 0x7F, 0x00, 0x00,
                 ;0x7F, 0x30, 0x0C, 0x02, 0x7F, 0x00, 0x00, 0x7F,
                 ;0x40, 0x40, 0x7F, 0x40, 0x40, 0x7F, 0x00, 0x00,
                 ;0x60, 0x1C, 0x13, 0x17, 0x38, 0x40, 0x00, 0x7F,
                 ;0x08, 0x08, 0x08, 0x7F, 0x00, 0x46, 0x39, 0x09,
                 ;0x09, 0x7F, 0x00, 0x00, 0x00, 0x00, 0x00, 0x00,
                 ;0x00, 0x00, 0x00, 0x00, 0x00, 0x00, 0x00, 0x00,
                 ;0x00, 0x00, 0x00, 0x00, 0x00, 0x00, 0x00, 0x00,
                 ;0x00, 0x00, 0x00, 0xC0, 0xFC, 0xFF, 0xFF, 0x3F,
                 ;0x1F, 0x1F, 0x0F, 0x3F, 0x03, 0x03, 0x03, 0x01,
                 ;0x03, 0x01, 0x00, 0x00, 0x00, 0x00, 0x00, 0x01,
                 ;0x03, 0x03, 0x0F, 0x1F, 0x1F, 0x3F, 0x7F, 0xFF,
                 ;0x7F, 0xFF, 0xFF, 0xFF, 0xFF, 0xFF, 0xFF, 0xFC,
                 ;0xF0, 0xC0, 0x00, 0x00, 0x00, 0x00, 0x00, 0x00,
                 ;0x00, 0x00, 0x00, 0x00, 0x00, 0x08, 0x0A, 0x02,
                 ;0x32, 0x32, 0x32, 0x32, 0x00, 0x00, 0x00, 0x00,
                 ;0x00, 0x00, 0x00, 0x00, 0x00, 0x00, 0x00, 0x00,
                 ;0x00, 0x00, 0x00, 0x00, 0x00, 0x00, 0x00, 0x00,
                 ;0x00, 0x00, 0x00, 0x00, 0x00, 0x00, 0x00, 0x00,
                 ;0x00, 0x00, 0x00, 0x00, 0x00, 0x00, 0x00, 0x00,
                 ;0x00, 0x00, 0x00, 0x00, 0x00, 0x00, 0x00, 0x00,
                 ;0x00, 0x00, 0x00, 0x00, 0x00, 0x00, 0x00, 0x00,
                 ;0x00, 0x00, 0x00, 0x00, 0x00, 0x80, 0x00, 0x00,
                 ;0x00, 0x00, 0x00, 0x00, 0x00, 0x00, 0x00, 0x00,
                 ;0xC0, 0x00, 0xFF, 0xFF, 0x7F, 0x67, 0xF8, 0x5C,
                 ;0xDC, 0xCC, 0xCC, 0xFC, 0xFC, 0xF8, 0xD8, 0xD8,
                 ;0xC0, 0x40, 0x40, 0x40, 0x50, 0x38, 0x38, 0xAC,
                 ;0xAC, 0xFE, 0xDE, 0xDE, 0xCE, 0x9E, 0x1E, 0x1C,
                 ;0xD8, 0x90, 0xE0, 0xE1, 0xDF, 0xFF, 0xFF, 0xFF,
                 ;0xFF, 0xFF, 0xFC, 0x70, 0xF0, 0x70, 0x60, 0xE0,
                 ;0xE0, 0xE0, 0xE0, 0xE0, 0xE0, 0xA0, 0x60, 0x60,
                 ;0xE0, 0xE0, 0xE0, 0x40, 0x00, 0x00, 0x00, 0x00,
                 ;0x00, 0x00, 0x00, 0x00, 0x00, 0x00, 0x00, 0x00,
                 ;0x00, 0x00, 0x00, 0x00, 0x00, 0x00, 0x01, 0x01,
                 ;0x00, 0x00, 0x00, 0x20, 0x40, 0x40, 0x20, 0x00,
                 ;0x00, 0x00, 0x00, 0x00, 0x00, 0x00, 0x00, 0x00,
                 ;0x00, 0x00, 0x00, 0x00, 0x00, 0x00, 0x00, 0x00,
                 ;0x00, 0x00, 0x00, 0x00, 0x00, 0x00, 0x00, 0x00,
                 ;0x00, 0x00, 0x00, 0x00, 0xC0, 0x40, 0x80, 0x80,
                 ;0x80, 0xA4, 0x88, 0x88, 0x88, 0x81, 0x91, 0x95,
                 ;0x9A, 0x90, 0x50, 0x06, 0x61, 0x43, 0x13, 0x06,
                 ;0x03, 0x03, 0x00, 0x03, 0x07, 0x00, 0x83, 0x09,
                 ;0x0E, 0x00, 0x00, 0x00, 0x07, 0x00, 0x83, 0x05,
                 ;0x03, 0x00, 0x03, 0x03, 0x00, 0x02, 0x03, 0x00,
                 ;0x00, 0x00, 0x01, 0x01, 0x87, 0x7F, 0x0F, 0x3F,
                 ;0x7F, 0x1F, 0x0B, 0x10, 0x19, 0x19, 0x10, 0x56,
                 ;0x4A, 0x44, 0x4C, 0x4C, 0x4E, 0x6E, 0x7C, 0xBC,
                 ;0xB6, 0xF9, 0x9E, 0x92, 0x00, 0x00, 0x00, 0x00,
                 ;0x00, 0x00, 0x00, 0x00, 0x00, 0x00, 0x00, 0x00,
                 ;0x7F, 0x01, 0x01, 0x01, 0x00, 0x7F, 0x49, 0x49,
                 ;0x49, 0x00, 0x7F, 0x30, 0x0C, 0x02, 0x7F, 0x00,
                 ;0x00, 0x00, 0x00, 0x00, 0x08, 0x08, 0x08, 0x08,
                 ;0x18, 0x30, 0xE0, 0x00, 0x00, 0x00, 0x00, 0x00,
                 ;0x00, 0x00, 0x00, 0x00, 0x00, 0x00, 0x00, 0x00,
                 ;0x00, 0x00, 0x00, 0x0C, 0x08, 0x08, 0x08, 0x1A,
                 ;0x18, 0x10, 0x10, 0x10, 0x00, 0x00, 0x00, 0x00,
                 ;0x00, 0x00, 0x80, 0x80, 0xD7, 0xFC, 0x7E, 0x78,
                 ;0xC0, 0x00, 0x00, 0x00, 0x00, 0x00, 0x00, 0x0C,
                 ;0x08, 0x08, 0x00, 0x00, 0x14, 0x18, 0x08, 0x00,
                 ;0x00, 0x00, 0x00, 0x00, 0x00, 0x00, 0x00, 0x00,
                 ;0x00, 0x00, 0x80, 0xF6, 0xE2, 0x21, 0x10, 0x01,
                 ;0x01, 0x01, 0x01, 0x81, 0x80, 0x82, 0x82, 0x4A,
                 ;0x4A, 0x42, 0x41, 0x60, 0x62, 0x22, 0x22, 0x22,
                 ;0x40, 0x50, 0x20, 0xA2, 0x00, 0x00, 0x00, 0x00,
                 ;0x00, 0x00, 0x00, 0x00, 0x00, 0x80, 0x80, 0x80,
                 ;0x80, 0x80, 0x80, 0xC0, 0x40, 0x00, 0x00, 0x00,
                 ;0x00, 0x00, 0x00, 0x00, 0x00, 0x00, 0x00, 0x00,
                 ;0x00, 0x00, 0x00, 0x00, 0x00, 0x00, 0x80, 0xC0,
                 ;0x60, 0x30, 0x0F, 0x00, 0x00, 0x00, 0x00, 0x00,
                 ;0x00, 0x00, 0x00, 0x00, 0x00, 0x00, 0x00, 0x00,
                 ;0x00, 0x00, 0x00, 0x9C, 0xBC, 0xB0, 0xB0, 0xB1,
                 ;0xB9, 0xB8, 0xBC, 0x9C, 0x9C, 0xCE, 0xC6, 0xE7,
                 ;0xEB, 0xE7, 0xF5, 0xFA, 0xFA, 0xFD, 0xFD, 0xEE,
                 ;0xE6, 0xE6, 0xE0, 0xE0, 0x00, 0x80, 0x01, 0x01,
                 ;0x01, 0x01, 0x01, 0x09, 0x01, 0x03, 0x03, 0x03,
                 ;0x02, 0x00, 0x00, 0x00, 0x80, 0x00, 0x40, 0x00,
                 ;0x00, 0x80, 0xFF, 0x8F, 0x3E, 0x1E, 0x02, 0x07,
                 ;0x03, 0x01, 0x01, 0x00, 0x00, 0x00, 0x00, 0x00,
                 ;0x00, 0x00, 0x00, 0x00, 0x00, 0x00, 0x00, 0x00,
                 ;0x00, 0x00, 0x00, 0x02, 0x00, 0x00, 0x00, 0x00,
                 ;0x00, 0x1C, 0x3E, 0xFE, 0xFF, 0xBF, 0x33, 0x33,
                 ;0x31, 0x21, 0x21, 0x20, 0x20, 0x20, 0x20, 0x20,
                 ;0x20, 0x10, 0x10, 0x10, 0x10, 0x08, 0x08, 0x08,
                 ;0x08, 0x04, 0x04, 0x02, 0x02, 0x01, 0x01, 0x00,
                 ;0x00, 0x00, 0x00, 0x00, 0x00, 0x00, 0x00, 0x00,
                 ;0x00, 0x00, 0x00, 0x00, 0x00, 0x00, 0x00, 0x00,
                 ;0x00, 0x00, 0x00, 0x07, 0x07, 0x07, 0x07, 0x07,
                 ;0x07, 0x07, 0x07, 0x07, 0x07, 0x07, 0x07, 0x07,
                 ;0x07, 0x07, 0x07, 0x07, 0x07, 0x07, 0x07, 0x07,
                 ;0x07, 0x07, 0x07, 0x07, 0x00, 0x00, 0x01, 0x02,
                 ;0x02, 0x06, 0x04, 0x04, 0x04, 0x04, 0x04, 0x00,
                 ;0x00, 0x02, 0x00, 0x01, 0x00, 0x00, 0x00, 0x00,
                 ;0x00, 0x07, 0x07, 0x03, 0x00, 0x07, 0x06, 0x04,
                 ;0x04, 0x00, 0x00, 0x00, 0x00, 0x00, 0x00, 0x00,
                 ;0x00, 0x00, 0x00, 0x00, 0x00, 0x00, 0x00, 0x00,
                 ;0x00, 0x00, 0x00, 0x00, 0x00, 0x00, 0x00, 0x00,
                 ;0x00, 0x00, 0x00, 0x00, 0x03, 0x07, 0x0E, 0x0C,
                 ;0x00, 0x00, 0x00, 0x00, 0x00, 0x00, 0x00, 0x00,
                 ;0x00, 0x00, 0x00, 0x00, 0x00, 0x00, 0x00, 0x00,
                 ;0x00, 0x00, 0x00, 0x00, 0x00, 0x00, 0x00, 0x00,
                 ;0x00, 0x00, 0x00, 0x00, 0x00, 0x00, 0x00, 0x00,
                 ;0x00, 0x00, 0x00, 0x00, 0x00, 0x00, 0x00, 0x00};
                 ;#include <ssd1306_lib_new.c>
                 ;/*
                 ;Библиотека для светодиодного
                 ;OLED LCD SSD1306 дисплея.
                 ;Библиотека сделана под CVAVR.
                 ;22.12.2015 Виниченко А.В.
                 ;
                 ;Подправлено 04.06.2020 другим чуваком
                 ;*/
                 ;
                 ;
                 ;void LCD_init(void);  //начальная инициализация дисплея
                 ;void LCD_Commmand(unsigned char ControByte, unsigned char DataByte); //команды дисплею или данные
                 ;void LCD_Goto(unsigned char x, unsigned char y);    //установить координаты
                 ;void LCD_DrawImage(flash unsigned char *image); //выводит картинку из флеш  (0)- очистка всего дисплея
                 ;void LCD_Contrast(char set_contrast); //настройка контраста от 0 до 255
                 ;void LCD_BigNum(unsigned char num);  //вывод больших цифр
                 ;void LCD_Char(unsigned char c,unsigned char doublewidth); //вывод символа (doublewidth=1 - двойная ширина)
                 ;void LCD_Printf(unsigned char* buf, unsigned char size); //печатает строку с размерами - 0 самый мелкий 2 - увеличиный - ...
                 ;
                 ;
                 ;
                 ;unsigned char LCD_X,LCD_Y;
                 ;unsigned char tx_buffer[129];
                 ;#define SSD1306_I2C_ADDRESS					 0x78
                 ;#define SSD1306_I2C_H_ADDRESS				 0x3C
                 ;// size
                 ;#define SSD1306_LCDWIDTH                      128
                 ;#define SSD1306_LCDHEIGHT                     64
                 ;// Commands
                 ;#define SSD1306_SETCONTRAST                  0x81
                 ;#define SSD1306_DISPLAYALLON_RESUME          0xA4
                 ;#define SSD1306_DISPLAYALLON                 0xA5
                 ;#define SSD1306_NORMALDISPLAY                0xA6
                 ;#define SSD1306_INVERTDISPLAY                0xA7
                 ;#define SSD1306_DISPLAYOFF                   0xAE
                 ;#define SSD1306_DISPLAYON                    0xAF
                 ;#define SSD1306_SETDISPLAYOFFSET             0xD3
                 ;#define SSD1306_SETCOMPINS                   0xDA
                 ;#define SSD1306_SETVCOMDETECT                0xDB
                 ;#define SSD1306_SETDISPLAYCLOCKDIV           0xD5
                 ;#define SSD1306_SETPRECHARGE                 0xD9
                 ;#define SSD1306_SETMULTIPLEX                 0xA8
                 ;#define SSD1306_SETLOWCOLUMN                 0x00
                 ;#define SSD1306_SETHIGHCOLUMN                0x10
                 ;#define SSD1306_SETSTARTLINE                 0x40
                 ;#define SSD1306_MEMORYMODE                   0x20
                 ;#define SSD1306_COLUMNADDR                   0x21
                 ;#define SSD1306_PAGEADDR                     0x22
                 ;#define SSD1306_COMSCANINC                   0xC0
                 ;#define SSD1306_COMSCANDEC                   0xC8
                 ;#define SSD1306_SEGREMAP                     0xA0
                 ;#define SSD1306_CHARGEPUMP                   0x8D
                 ;#define SSD1306_EXTERNALVCC                   0x1
                 ;#define SSD1306_SWITCHCAPVCC                  0x2
                 ;// Scrolling #defines
                 ;#define SSD1306_ACTIVATE_SCROLL               0x2F
                 ;#define SSD1306_DEACTIVATE_SCROLL             0x2E
                 ;#define SSD1306_SET_VERTICAL_SCROLL_AREA      0xA3
                 ;#define SSD1306_RIGHT_HORIZONTAL_SCROLL       0x26
                 ;#define SSD1306_LEFT_HORIZONTAL_SCROLL        0x27
                 ;#define SSD1306_VERT_AND_RIGHT_HORIZ_SCROLL   0x29
                 ;#define SSD1306_VERT_AND_LEFT_HORIZ_SCROLL    0x2A
                 ;
                 ;#define COMAND		                          0x00
                 ;#define DATA		                          0x40
                 ;
                 ;
                 ;
                 ;void LCD_init(void)
                 ; 0000 001D {
                 
                 	.CSEG
                 _LCD_init:
                 ; .FSTART _LCD_init
                 ;  //return;
                 ;//  delay_ms(10);
                 ;  LCD_Commmand(COMAND, SSD1306_SETDISPLAYCLOCKDIV);
00186b e0e0      	LDI  R30,LOW(0)
00186c 93ea      	ST   -Y,R30
00186d eda5      	LDI  R26,LOW(213)
00186e d057      	RCALL _LCD_Commmand
                 ;  LCD_Commmand(COMAND, 0x80);
00186f e0e0      	LDI  R30,LOW(0)
001870 93ea      	ST   -Y,R30
001871 e8a0      	LDI  R26,LOW(128)
001872 d053      	RCALL _LCD_Commmand
                 ;
                 ;  LCD_Commmand(COMAND, SSD1306_SETMULTIPLEX);
001873 e0e0      	LDI  R30,LOW(0)
001874 93ea      	ST   -Y,R30
001875 eaa8      	LDI  R26,LOW(168)
001876 d04f      	RCALL _LCD_Commmand
                 ;  LCD_Commmand(COMAND, 0x3F);
001877 e0e0      	LDI  R30,LOW(0)
001878 93ea      	ST   -Y,R30
001879 e3af      	LDI  R26,LOW(63)
00187a d04b      	RCALL _LCD_Commmand
                 ;
                 ;  LCD_Commmand(COMAND, SSD1306_SETDISPLAYOFFSET);
00187b e0e0      	LDI  R30,LOW(0)
00187c 93ea      	ST   -Y,R30
00187d eda3      	LDI  R26,LOW(211)
00187e d047      	RCALL _LCD_Commmand
                 ;  LCD_Commmand(COMAND, 0x00);
00187f e0e0      	LDI  R30,LOW(0)
001880 93ea      	ST   -Y,R30
001881 e0a0      	LDI  R26,LOW(0)
001882 d043      	RCALL _LCD_Commmand
                 ;
                 ;  LCD_Commmand(COMAND, SSD1306_SETSTARTLINE | 0x00);
001883 e0e0      	LDI  R30,LOW(0)
001884 93ea      	ST   -Y,R30
001885 e4a0      	LDI  R26,LOW(64)
001886 d03f      	RCALL _LCD_Commmand
                 ;
                 ;    // We use internal charge pump
                 ;  LCD_Commmand(COMAND, SSD1306_CHARGEPUMP);
001887 e0e0      	LDI  R30,LOW(0)
001888 93ea      	ST   -Y,R30
001889 e8ad      	LDI  R26,LOW(141)
00188a d03b      	RCALL _LCD_Commmand
                 ;  LCD_Commmand(COMAND, 0x14);
00188b e0e0      	LDI  R30,LOW(0)
00188c 93ea      	ST   -Y,R30
00188d e1a4      	LDI  R26,LOW(20)
00188e d037      	RCALL _LCD_Commmand
                 ;
                 ;    // Horizontal memory mode
                 ;  LCD_Commmand(COMAND, SSD1306_MEMORYMODE);
00188f e0e0      	LDI  R30,LOW(0)
001890 93ea      	ST   -Y,R30
001891 e2a0      	LDI  R26,LOW(32)
001892 d033      	RCALL _LCD_Commmand
                 ;  LCD_Commmand(COMAND, 2);
001893 e0e0      	LDI  R30,LOW(0)
001894 93ea      	ST   -Y,R30
001895 e0a2      	LDI  R26,LOW(2)
001896 d02f      	RCALL _LCD_Commmand
                 ;
                 ;  LCD_Commmand(COMAND, SSD1306_SEGREMAP | 0x1);
001897 e0e0      	LDI  R30,LOW(0)
001898 93ea      	ST   -Y,R30
001899 eaa1      	LDI  R26,LOW(161)
00189a d02b      	RCALL _LCD_Commmand
                 ;
                 ;  LCD_Commmand(COMAND, SSD1306_COMSCANDEC);
00189b e0e0      	LDI  R30,LOW(0)
00189c 93ea      	ST   -Y,R30
00189d eca8      	LDI  R26,LOW(200)
00189e d027      	RCALL _LCD_Commmand
                 ;
                 ;  LCD_Commmand(COMAND, SSD1306_SETCOMPINS);
00189f e0e0      	LDI  R30,LOW(0)
0018a0 93ea      	ST   -Y,R30
0018a1 edaa      	LDI  R26,LOW(218)
0018a2 d023      	RCALL _LCD_Commmand
                 ;  LCD_Commmand(COMAND, 0x12);
0018a3 e0e0      	LDI  R30,LOW(0)
0018a4 93ea      	ST   -Y,R30
0018a5 e1a2      	LDI  R26,LOW(18)
0018a6 d01f      	RCALL _LCD_Commmand
                 ;
                 ;  LCD_Commmand(COMAND, SSD1306_SETPRECHARGE);
0018a7 e0e0      	LDI  R30,LOW(0)
0018a8 93ea      	ST   -Y,R30
0018a9 eda9      	LDI  R26,LOW(217)
0018aa d01b      	RCALL _LCD_Commmand
                 ;  LCD_Commmand(COMAND, 0xF1);
0018ab e0e0      	LDI  R30,LOW(0)
0018ac 93ea      	ST   -Y,R30
0018ad efa1      	LDI  R26,LOW(241)
0018ae d017      	RCALL _LCD_Commmand
                 ;
                 ;  LCD_Commmand(COMAND, SSD1306_SETVCOMDETECT);
0018af e0e0      	LDI  R30,LOW(0)
0018b0 93ea      	ST   -Y,R30
0018b1 edab      	LDI  R26,LOW(219)
0018b2 d013      	RCALL _LCD_Commmand
                 ;  LCD_Commmand(COMAND, 0x40);
0018b3 e0e0      	LDI  R30,LOW(0)
0018b4 93ea      	ST   -Y,R30
0018b5 e4a0      	LDI  R26,LOW(64)
0018b6 d00f      	RCALL _LCD_Commmand
                 ;
                 ;  LCD_Commmand(COMAND, SSD1306_DISPLAYALLON_RESUME);
0018b7 e0e0      	LDI  R30,LOW(0)
0018b8 93ea      	ST   -Y,R30
0018b9 eaa4      	LDI  R26,LOW(164)
0018ba d00b      	RCALL _LCD_Commmand
                 ;    // Non-inverted display
                 ;  //LCD_Commmand(COMAND, SSD1306_NORMALDISPLAY);
                 ;    // Turn display on
                 ;
                 ;  LCD_Contrast(255);
0018bb efaf      	LDI  R26,LOW(255)
0018bc d038      	RCALL _LCD_Contrast
                 ;  LCD_Commmand(COMAND,SSD1306_DISPLAYON);
0018bd e0e0      	LDI  R30,LOW(0)
0018be 93ea      	ST   -Y,R30
0018bf eaaf      	LDI  R26,LOW(175)
0018c0 d005      	RCALL _LCD_Commmand
                 ;
                 ;  LCD_Goto(0,0);
0018c1 e0e0      	LDI  R30,LOW(0)
0018c2 93ea      	ST   -Y,R30
0018c3 e0a0      	LDI  R26,LOW(0)
0018c4 d018      	RCALL _LCD_Goto
                 ;}
0018c5 9508      	RET
                 ; .FEND
                 ;void LCD_Commmand(unsigned char ControByte, unsigned char DataByte)
                 ;{
                 _LCD_Commmand:
                 ; .FSTART _LCD_Commmand
                 ; #ifdef I2C_hard
                 ;  tx_buffer[0]=ControByte;
0018c6 93aa      	ST   -Y,R26
                 ;	ControByte -> Y+1
                 ;	DataByte -> Y+0
0018c7 81e9      	LDD  R30,Y+1
0018c8 93e0 0ade 	STS  _tx_buffer,R30
                 ;  tx_buffer[1]=DataByte;
0018ca 81e8      	LD   R30,Y
                +
0018cb 93e0 0adf+STS _tx_buffer + ( 1 ) , R30
                 	__PUTB1MN _tx_buffer,1
                 ;  twi_master_trans(SSD1306_I2C_H_ADDRESS,tx_buffer,2,0,0);
0018cd e3ec      	LDI  R30,LOW(60)
0018ce 93ea      	ST   -Y,R30
0018cf edee      	LDI  R30,LOW(_tx_buffer)
0018d0 e0fa      	LDI  R31,HIGH(_tx_buffer)
0018d1 93fa      	ST   -Y,R31
0018d2 93ea      	ST   -Y,R30
0018d3 e0e2      	LDI  R30,LOW(2)
0018d4 93ea      	ST   -Y,R30
0018d5 e0e0      	LDI  R30,LOW(0)
0018d6 e0f0      	LDI  R31,HIGH(0)
0018d7 93fa      	ST   -Y,R31
0018d8 93ea      	ST   -Y,R30
0018d9 e0a0      	LDI  R26,LOW(0)
0018da 940e 22d6 	CALL _twi_master_trans
                 ; #else
                 ;  i2c_start();
                 ;  i2c_write(SSD1306_I2C_ADDRESS);
                 ;  i2c_write(ControByte);
                 ;  i2c_write(DataByte);
                 ;  i2c_stop();
                 ; #endif
                 ;}
0018dc c016      	RJMP _0x2040007
                 ; .FEND
                 ;
                 ;void LCD_Goto(unsigned char x, unsigned char y)
                 ;{
                 _LCD_Goto:
                 ; .FSTART _LCD_Goto
                 ;
                 ;	LCD_X = x;
0018dd 93aa      	ST   -Y,R26
                 ;	x -> Y+1
                 ;	y -> Y+0
0018de 8049      	LDD  R4,Y+1
                 ;	LCD_Y = y;
0018df 8038      	LDD  R3,Y+0
                 ;	// установка  и настройка
                 ; 	LCD_Commmand(COMAND, 0xB0 + y);//установить адрес начала координат
0018e0 e0e0      	LDI  R30,LOW(0)
0018e1 93ea      	ST   -Y,R30
0018e2 81a9      	LDD  R26,Y+1
0018e3 55a0      	SUBI R26,-LOW(176)
0018e4 dfe1      	RCALL _LCD_Commmand
                 ;	LCD_Commmand(COMAND,x & 0x0f );//младший
0018e5 e0e0      	LDI  R30,LOW(0)
0018e6 93ea      	ST   -Y,R30
0018e7 81ea      	LDD  R30,Y+2
0018e8 70ef      	ANDI R30,LOW(0xF)
0018e9 2fae      	MOV  R26,R30
0018ea dfdb      	RCALL _LCD_Commmand
                 ;	LCD_Commmand(COMAND,0x10 | (x >> 4));//старший
0018eb e0e0      	LDI  R30,LOW(0)
0018ec 93ea      	ST   -Y,R30
0018ed 81ea      	LDD  R30,Y+2
0018ee 95e2      	SWAP R30
0018ef 70ef      	ANDI R30,0xF
0018f0 61e0      	ORI  R30,0x10
0018f1 2fae      	MOV  R26,R30
0018f2 dfd3      	RCALL _LCD_Commmand
                 ;}
                 _0x2040007:
0018f3 9622      	ADIW R28,2
0018f4 9508      	RET
                 ; .FEND
                 ;
                 ;void LCD_Contrast(char set_contrast)
                 ;{
                 _LCD_Contrast:
                 ; .FSTART _LCD_Contrast
                 ;  LCD_Commmand(COMAND, SSD1306_SETCONTRAST);
0018f5 93aa      	ST   -Y,R26
                 ;	set_contrast -> Y+0
0018f6 e0e0      	LDI  R30,LOW(0)
0018f7 93ea      	ST   -Y,R30
0018f8 e8a1      	LDI  R26,LOW(129)
0018f9 dfcc      	RCALL _LCD_Commmand
                 ;  LCD_Commmand(COMAND, set_contrast);
0018fa e0e0      	LDI  R30,LOW(0)
0018fb 93ea      	ST   -Y,R30
0018fc 81a9      	LDD  R26,Y+1
0018fd dfc8      	RCALL _LCD_Commmand
                 ;}
0018fe 9621      	ADIW R28,1
0018ff 9508      	RET
                 ; .FEND
                 ;
                 ;void LCD_DrawImage(flash unsigned char *image)//if (0) - clear screen
                 ;{
                 _LCD_DrawImage:
                 ; .FSTART _LCD_DrawImage
                 ; unsigned int x;
                 ; unsigned char tmp;
                 ; for(tmp=0;tmp<8;tmp++)
001900 93ba      	ST   -Y,R27
001901 93aa      	ST   -Y,R26
001902 940e 2509 	CALL __SAVELOCR4
                 ;	*image -> Y+4
                 ;	x -> R16,R17
                 ;	tmp -> R19
001904 e030      	LDI  R19,LOW(0)
                 _0x4:
001905 3038      	CPI  R19,8
001906 f5e0      	BRSH _0x5
                 ; {
                 ;  LCD_Commmand(COMAND, 0xB0 + tmp);//установить адрес начала координат
001907 e0e0      	LDI  R30,LOW(0)
001908 93ea      	ST   -Y,R30
001909 2fa3      	MOV  R26,R19
00190a 55a0      	SUBI R26,-LOW(176)
00190b dfba      	RCALL _LCD_Commmand
                 ;
                 ;  #ifdef I2C_hard
                 ;  tx_buffer[0]=0b01000000;
00190c e4e0      	LDI  R30,LOW(64)
00190d 93e0 0ade 	STS  _tx_buffer,R30
                 ;  for (x=0; x<128; x++)
                +
00190f e000     +LDI R16 , LOW ( 0 )
001910 e010     +LDI R17 , HIGH ( 0 )
                 	__GETWRN 16,17,0
                 _0x7:
                +
001911 3800     +CPI R16 , LOW ( 128 )
001912 e0e0     +LDI R30 , HIGH ( 128 )
001913 071e     +CPC R17 , R30
                 	__CPWRN 16,17,128
001914 f4e8      	BRSH _0x8
                 ;  {
                 ;   if(image==0)//clear
001915 81ec      	LDD  R30,Y+4
001916 81fd      	LDD  R31,Y+4+1
001917 9730      	SBIW R30,0
001918 f431      	BRNE _0x9
                 ;    tx_buffer[x+1]=0;
001919 01f8      	MOVW R30,R16
                +
00191a 52e1     +SUBI R30 , LOW ( - _tx_buffer - ( 1 ) )
00191b 4ff5     +SBCI R31 , HIGH ( - _tx_buffer - ( 1 ) )
                 	__ADDW1MN _tx_buffer,1
00191c e0a0      	LDI  R26,LOW(0)
00191d 83a0      	STD  Z+0,R26
                 ;   else
00191e c010      	RJMP _0xA
                 _0x9:
                 ;    tx_buffer[x+1]=image[tmp*128+x];
00191f 01f8      	MOVW R30,R16
                +
001920 52e1     +SUBI R30 , LOW ( - _tx_buffer - ( 1 ) )
001921 4ff5     +SBCI R31 , HIGH ( - _tx_buffer - ( 1 ) )
                 	__ADDW1MN _tx_buffer,1
001922 01bf      	MOVW R22,R30
001923 e8e0      	LDI  R30,LOW(128)
001924 9fe3      	MUL  R30,R19
001925 01f0      	MOVW R30,R0
001926 0fe0      	ADD  R30,R16
001927 1ff1      	ADC  R31,R17
001928 81ac      	LDD  R26,Y+4
001929 81bd      	LDD  R27,Y+4+1
00192a 0fea      	ADD  R30,R26
00192b 1ffb      	ADC  R31,R27
00192c 91e4      	LPM  R30,Z
00192d 01db      	MOVW R26,R22
00192e 93ec      	ST   X,R30
                 ;  }
                 _0xA:
                +
00192f 5f0f     +SUBI R16 , LOW ( - 1 )
001930 4f1f     +SBCI R17 , HIGH ( - 1 )
                 	__ADDWRN 16,17,1
001931 cfdf      	RJMP _0x7
                 _0x8:
                 ;  twi_master_trans(SSD1306_I2C_H_ADDRESS,tx_buffer,129,0,0);
001932 e3ec      	LDI  R30,LOW(60)
001933 93ea      	ST   -Y,R30
001934 edee      	LDI  R30,LOW(_tx_buffer)
001935 e0fa      	LDI  R31,HIGH(_tx_buffer)
001936 93fa      	ST   -Y,R31
001937 93ea      	ST   -Y,R30
001938 e8e1      	LDI  R30,LOW(129)
001939 93ea      	ST   -Y,R30
00193a e0e0      	LDI  R30,LOW(0)
00193b e0f0      	LDI  R31,HIGH(0)
00193c 93fa      	ST   -Y,R31
00193d 93ea      	ST   -Y,R30
00193e e0a0      	LDI  R26,LOW(0)
00193f 940e 22d6 	CALL _twi_master_trans
                 ;  #else
                 ;   i2c_start();
                 ;   i2c_write(SSD1306_I2C_ADDRESS);
                 ;   i2c_write(0b01000000);
                 ;   for (x=tmp*128; x<((tmp+1)*128); x++)
                 ;   {
                 ;    if(image==0)//clear
                 ;     i2c_write(0);
                 ;    else
                 ;     i2c_write(image[x]);
                 ;   }
                 ;   i2c_stop();
                 ;  #endif
                 ; }
001941 5f3f      	SUBI R19,-1
001942 cfc2      	RJMP _0x4
                 _0x5:
                 ;}
001943 940e 2510 	CALL __LOADLOCR4
001945 9626      	ADIW R28,6
001946 9508      	RET
                 ; .FEND
                 ;
                 ;void LCD_Char(unsigned char c,unsigned char doublewidth)
                 ;{
                 _LCD_Char:
                 ; .FSTART _LCD_Char
                 ;  unsigned char x = 0,ch;
                 ;
                 ; #ifdef I2C_hard
                 ;  tx_buffer[0]=DATA;
001947 93aa      	ST   -Y,R26
001948 931a      	ST   -Y,R17
001949 930a      	ST   -Y,R16
                 ;	c -> Y+3
                 ;	doublewidth -> Y+2
                 ;	x -> R17
                 ;	ch -> R16
00194a e010      	LDI  R17,0
00194b e4e0      	LDI  R30,LOW(64)
00194c 93e0 0ade 	STS  _tx_buffer,R30
                 ;  if(doublewidth==0)
00194e 81ea      	LDD  R30,Y+2
00194f 30e0      	CPI  R30,0
001950 f4c9      	BRNE _0xB
                 ;  {
                 ;   for (x=0; x<5; x++)
001951 e010      	LDI  R17,LOW(0)
                 _0xD:
001952 3015      	CPI  R17,5
001953 f4a8      	BRSH _0xE
                 ;   {
                 ;    tx_buffer[x+1]=LCD_Buffer[c*5+x];
001954 2fe1      	MOV  R30,R17
001955 e0f0      	LDI  R31,0
                +
001956 52e1     +SUBI R30 , LOW ( - _tx_buffer - ( 1 ) )
001957 4ff5     +SBCI R31 , HIGH ( - _tx_buffer - ( 1 ) )
                 	__ADDW1MN _tx_buffer,1
001958 01bf      	MOVW R22,R30
001959 81ab      	LDD  R26,Y+3
00195a e0e5      	LDI  R30,LOW(5)
00195b 9fea      	MUL  R30,R26
00195c 01f0      	MOVW R30,R0
00195d 01df      	MOVW R26,R30
00195e 2fe1      	MOV  R30,R17
00195f e0f0      	LDI  R31,0
001960 0fea      	ADD  R30,R26
001961 1ffb      	ADC  R31,R27
001962 51e2      	SUBI R30,LOW(-_LCD_Buffer*2)
001963 4fff      	SBCI R31,HIGH(-_LCD_Buffer*2)
001964 91e4      	LPM  R30,Z
001965 01db      	MOVW R26,R22
001966 93ec      	ST   X,R30
                 ;   }
001967 5f1f      	SUBI R17,-1
001968 cfe9      	RJMP _0xD
                 _0xE:
                 ;  }
                 ;  else
001969 c01d      	RJMP _0xF
                 _0xB:
                 ;  {
                 ;    for (x=0; x<10; x++)
00196a e010      	LDI  R17,LOW(0)
                 _0x11:
00196b 301a      	CPI  R17,10
00196c f4d0      	BRSH _0x12
                 ;   {
                 ;    tx_buffer[x+1]=LCD_Buffer[c*5+x/2];
00196d 2fe1      	MOV  R30,R17
00196e e0f0      	LDI  R31,0
                +
00196f 52e1     +SUBI R30 , LOW ( - _tx_buffer - ( 1 ) )
001970 4ff5     +SBCI R31 , HIGH ( - _tx_buffer - ( 1 ) )
                 	__ADDW1MN _tx_buffer,1
001971 93ff      	PUSH R31
001972 93ef      	PUSH R30
001973 81ab      	LDD  R26,Y+3
001974 e0e5      	LDI  R30,LOW(5)
001975 9fea      	MUL  R30,R26
001976 01b0      	MOVW R22,R0
001977 2fa1      	MOV  R26,R17
001978 e0b0      	LDI  R27,0
001979 e0e2      	LDI  R30,LOW(2)
00197a e0f0      	LDI  R31,HIGH(2)
00197b 940e 24ea 	CALL __DIVW21
00197d 0fe6      	ADD  R30,R22
00197e 1ff7      	ADC  R31,R23
00197f 51e2      	SUBI R30,LOW(-_LCD_Buffer*2)
001980 4fff      	SBCI R31,HIGH(-_LCD_Buffer*2)
001981 91e4      	LPM  R30,Z
001982 91af      	POP  R26
001983 91bf      	POP  R27
001984 93ec      	ST   X,R30
                 ;   }
001985 5f1f      	SUBI R17,-1
001986 cfe4      	RJMP _0x11
                 _0x12:
                 ;  }
                 _0xF:
                 ;  tx_buffer[x+1]=0;
001987 2fe1      	MOV  R30,R17
001988 e0f0      	LDI  R31,0
                +
001989 52e1     +SUBI R30 , LOW ( - _tx_buffer - ( 1 ) )
00198a 4ff5     +SBCI R31 , HIGH ( - _tx_buffer - ( 1 ) )
                 	__ADDW1MN _tx_buffer,1
00198b e0a0      	LDI  R26,LOW(0)
00198c 83a0      	STD  Z+0,R26
                 ;  twi_master_trans(SSD1306_I2C_H_ADDRESS,tx_buffer,7+doublewidth*5,0,0);
00198d e3ec      	LDI  R30,LOW(60)
00198e 93ea      	ST   -Y,R30
00198f edee      	LDI  R30,LOW(_tx_buffer)
001990 e0fa      	LDI  R31,HIGH(_tx_buffer)
001991 93fa      	ST   -Y,R31
001992 93ea      	ST   -Y,R30
001993 81ed      	LDD  R30,Y+5
001994 e0a5      	LDI  R26,LOW(5)
001995 02ea      	MULS R30,R26
001996 01f0      	MOVW R30,R0
001997 5fe9      	SUBI R30,-LOW(7)
001998 93ea      	ST   -Y,R30
001999 e0e0      	LDI  R30,LOW(0)
00199a e0f0      	LDI  R31,HIGH(0)
00199b 93fa      	ST   -Y,R31
00199c 93ea      	ST   -Y,R30
00199d e0a0      	LDI  R26,LOW(0)
00199e 940e 22d6 	CALL _twi_master_trans
                 ; #else
                 ;  i2c_start();
                 ;  i2c_write(SSD1306_I2C_ADDRESS);
                 ;  i2c_write(DATA);//data mode
                 ;  for (x=0; x<5; x++)
                 ;	{
                 ;     ch=LCD_Buffer[c*5+x];
                 ;     i2c_write(ch);
                 ;     if(doublewidth==1) i2c_write(ch);
                 ;    }
                 ;  i2c_write(0x00);
                 ;  i2c_stop();
                 ; #endif
                 ; if(doublewidth==1)
0019a0 81aa      	LDD  R26,Y+2
0019a1 30a1      	CPI  R26,LOW(0x1)
0019a2 f411      	BRNE _0x13
                 ;  LCD_X += 11;
0019a3 e0eb      	LDI  R30,LOW(11)
0019a4 c001      	RJMP _0x120
                 ; else
                 _0x13:
                 ;  LCD_X += 8;
0019a5 e0e8      	LDI  R30,LOW(8)
                 _0x120:
0019a6 0e4e      	ADD  R4,R30
                 ;}
0019a7 8119      	LDD  R17,Y+1
0019a8 8108      	LDD  R16,Y+0
0019a9 c191      	RJMP _0x2040006
                 ; .FEND
                 ;
                 ;
                 ;
                 ;
                 ;
                 ;void LCD_BigNum(unsigned char num)
                 ;{
                 _LCD_BigNum:
                 ; .FSTART _LCD_BigNum
                 ;  unsigned char x = 0;
                 ;  unsigned char z = 0;
                 ;
                 ;  unsigned char y_s = LCD_Y;
                 ;
                 ;  if(num!=46&&num!=32&&num!=32&&num!=67){num = num - 48;}
0019aa 93aa      	ST   -Y,R26
0019ab 940e 2509 	CALL __SAVELOCR4
                 ;	num -> Y+4
                 ;	x -> R17
                 ;	z -> R16
                 ;	y_s -> R19
0019ad e010      	LDI  R17,0
0019ae e000      	LDI  R16,0
0019af 2d33      	MOV  R19,R3
0019b0 81ac      	LDD  R26,Y+4
0019b1 32ae      	CPI  R26,LOW(0x2E)
0019b2 f031      	BREQ _0x16
0019b3 32a0      	CPI  R26,LOW(0x20)
0019b4 f021      	BREQ _0x16
0019b5 32a0      	CPI  R26,LOW(0x20)
0019b6 f011      	BREQ _0x16
0019b7 34a3      	CPI  R26,LOW(0x43)
0019b8 f409      	BRNE _0x17
                 _0x16:
0019b9 c003      	RJMP _0x15
                 _0x17:
0019ba 81ec      	LDD  R30,Y+4
0019bb 53e0      	SUBI R30,LOW(48)
0019bc c00e      	RJMP _0x121
                 ;  else
                 _0x15:
                 ;   {
                 ;   if(num==46){ num = 11; }  // .
0019bd 81ac      	LDD  R26,Y+4
0019be 32ae      	CPI  R26,LOW(0x2E)
0019bf f411      	BRNE _0x19
0019c0 e0eb      	LDI  R30,LOW(11)
0019c1 83ec      	STD  Y+4,R30
                 ;   if(num==32){ num = 12; }  // space
                 _0x19:
0019c2 81ac      	LDD  R26,Y+4
0019c3 32a0      	CPI  R26,LOW(0x20)
0019c4 f411      	BRNE _0x1A
0019c5 e0ec      	LDI  R30,LOW(12)
0019c6 83ec      	STD  Y+4,R30
                 ;   if(num==67){ num = 13; }  // градусы
                 _0x1A:
0019c7 81ac      	LDD  R26,Y+4
0019c8 34a3      	CPI  R26,LOW(0x43)
0019c9 f411      	BRNE _0x1B
0019ca e0ed      	LDI  R30,LOW(13)
                 _0x121:
0019cb 83ec      	STD  Y+4,R30
                 ;   }
                 _0x1B:
                 ;
                 ; #ifdef I2C_hard
                 ;  for (z=0; z<4; z++)
0019cc e000      	LDI  R16,LOW(0)
                 _0x1D:
0019cd 3004      	CPI  R16,4
0019ce f5b0      	BRSH _0x1E
                 ;  {
                 ;   tx_buffer[0]=DATA;
0019cf e4e0      	LDI  R30,LOW(64)
0019d0 93e0 0ade 	STS  _tx_buffer,R30
                 ;   for (x=0; x<24; x++)
0019d2 e010      	LDI  R17,LOW(0)
                 _0x20:
0019d3 3118      	CPI  R17,24
0019d4 f4d8      	BRSH _0x21
                 ;   {
                 ;    tx_buffer[x+1]=BigNum[num][z*24+x];
0019d5 2fe1      	MOV  R30,R17
0019d6 e0f0      	LDI  R31,0
                +
0019d7 52e1     +SUBI R30 , LOW ( - _tx_buffer - ( 1 ) )
0019d8 4ff5     +SBCI R31 , HIGH ( - _tx_buffer - ( 1 ) )
                 	__ADDW1MN _tx_buffer,1
0019d9 01cf      	MOVW R24,R30
0019da 81ec      	LDD  R30,Y+4
0019db e6a0      	LDI  R26,LOW(96)
0019dc 9fea      	MUL  R30,R26
0019dd 01f0      	MOVW R30,R0
0019de 51e2      	SUBI R30,LOW(-_BigNum*2)
0019df 4ffa      	SBCI R31,HIGH(-_BigNum*2)
0019e0 01bf      	MOVW R22,R30
0019e1 e1e8      	LDI  R30,LOW(24)
0019e2 9fe0      	MUL  R30,R16
0019e3 01f0      	MOVW R30,R0
0019e4 01df      	MOVW R26,R30
0019e5 2fe1      	MOV  R30,R17
0019e6 e0f0      	LDI  R31,0
0019e7 0fea      	ADD  R30,R26
0019e8 1ffb      	ADC  R31,R27
0019e9 0fe6      	ADD  R30,R22
0019ea 1ff7      	ADC  R31,R23
0019eb 91e4      	LPM  R30,Z
0019ec 01dc      	MOVW R26,R24
0019ed 93ec      	ST   X,R30
                 ;   }
0019ee 5f1f      	SUBI R17,-1
0019ef cfe3      	RJMP _0x20
                 _0x21:
                 ;   twi_master_trans(SSD1306_I2C_H_ADDRESS,tx_buffer,25,0,0);
0019f0 e3ec      	LDI  R30,LOW(60)
0019f1 93ea      	ST   -Y,R30
0019f2 edee      	LDI  R30,LOW(_tx_buffer)
0019f3 e0fa      	LDI  R31,HIGH(_tx_buffer)
0019f4 93fa      	ST   -Y,R31
0019f5 93ea      	ST   -Y,R30
0019f6 e1e9      	LDI  R30,LOW(25)
0019f7 93ea      	ST   -Y,R30
0019f8 e0e0      	LDI  R30,LOW(0)
0019f9 e0f0      	LDI  R31,HIGH(0)
0019fa 93fa      	ST   -Y,R31
0019fb 93ea      	ST   -Y,R30
0019fc e0a0      	LDI  R26,LOW(0)
0019fd 940e 22d6 	CALL _twi_master_trans
                 ;   LCD_Goto(LCD_X,LCD_Y+1);
0019ff 924a      	ST   -Y,R4
001a00 2da3      	MOV  R26,R3
001a01 5faf      	SUBI R26,-LOW(1)
001a02 deda      	RCALL _LCD_Goto
                 ;  }
001a03 5f0f      	SUBI R16,-1
001a04 cfc8      	RJMP _0x1D
                 _0x1E:
                 ; #else
                 ;  for (z=0; z<4; z++)
                 ;  {
                 ;   i2c_start();
                 ;   i2c_write(SSD1306_I2C_ADDRESS);
                 ;   i2c_write(DATA);//data mode
                 ;   for (x=0; x<24; x++)
                 ;   {
                 ;    i2c_write(BigNum[num][z*24+x]);
                 ;   }
                 ;  i2c_stop();    // stop transmitting
                 ;  LCD_Goto(LCD_X,LCD_Y+1);
                 ;  }
                 ; #endif
                 ;  LCD_X +=23;
001a05 e1e7      	LDI  R30,LOW(23)
001a06 0e4e      	ADD  R4,R30
                 ;  LCD_Goto(LCD_X,y_s);
001a07 924a      	ST   -Y,R4
001a08 2fa3      	MOV  R26,R19
001a09 ded3      	RCALL _LCD_Goto
                 ;}
001a0a 940e 2510 	CALL __LOADLOCR4
001a0c 9625      	ADIW R28,5
001a0d 9508      	RET
                 ; .FEND
                 ;
                 ;void LCD_Printf(unsigned char* buf, unsigned char size) //выводим строку из буфера
                 ;{
                 _LCD_Printf:
                 ; .FSTART _LCD_Printf
                 ;
                 ;	while (*buf!=0)
001a0e 93aa      	ST   -Y,R26
                 ;	*buf -> Y+1
                 ;	size -> Y+0
                 _0x22:
001a0f 81a9      	LDD  R26,Y+1
001a10 81ba      	LDD  R27,Y+1+1
001a11 91ec      	LD   R30,X
001a12 30e0      	CPI  R30,0
001a13 f0f9      	BREQ _0x24
                 ;	{
                 ;       if(size==0)
001a14 81e8      	LD   R30,Y
001a15 30e0      	CPI  R30,0
001a16 f431      	BRNE _0x25
                 ;       {
                 ;		LCD_Char(*buf++,0);
001a17 91ed      	LD   R30,X+
001a18 83a9      	STD  Y+1,R26
001a19 83ba      	STD  Y+1+1,R27
001a1a 93ea      	ST   -Y,R30
001a1b e0a0      	LDI  R26,LOW(0)
001a1c df2a      	RCALL _LCD_Char
                 ;       }
                 ;       if(size==1)
                 _0x25:
001a1d 81a8      	LD   R26,Y
001a1e 30a1      	CPI  R26,LOW(0x1)
001a1f f441      	BRNE _0x26
                 ;       {
                 ;        LCD_Char(*buf++,1);
001a20 81a9      	LDD  R26,Y+1
001a21 81ba      	LDD  R27,Y+1+1
001a22 91ed      	LD   R30,X+
001a23 83a9      	STD  Y+1,R26
001a24 83ba      	STD  Y+1+1,R27
001a25 93ea      	ST   -Y,R30
001a26 e0a1      	LDI  R26,LOW(1)
001a27 df1f      	RCALL _LCD_Char
                 ;       }
                 ;       if(size==2)
                 _0x26:
001a28 81a8      	LD   R26,Y
001a29 30a2      	CPI  R26,LOW(0x2)
001a2a f439      	BRNE _0x27
                 ;       {
                 ;        LCD_BigNum(*buf++);
001a2b 81a9      	LDD  R26,Y+1
001a2c 81ba      	LDD  R27,Y+1+1
001a2d 91ed      	LD   R30,X+
001a2e 83a9      	STD  Y+1,R26
001a2f 83ba      	STD  Y+1+1,R27
001a30 2fae      	MOV  R26,R30
001a31 df78      	RCALL _LCD_BigNum
                 ;       }
                 ;	}
                 _0x27:
001a32 cfdc      	RJMP _0x22
                 _0x24:
                 ;}
001a33 9623      	ADIW R28,3
001a34 9508      	RET
                 ; .FEND
                 ;
                 ;void LCD_DrawArrow(unsigned char del)
                 ;{
                 ;  unsigned char x;
                 ;  #ifdef I2C_hard
                 ;  tx_buffer[0]=0b01000000;
                 ;	del -> Y+1
                 ;	x -> R17
                 ;   for (x=0; x<10; x++)
                 ;   {
                 ;    if(del==0)
                 ;     tx_buffer[x+1]=arrow[x];
                 ;    else
                 ;     tx_buffer[x+1]=0;
                 ;   }
                 ;   twi_master_trans(SSD1306_I2C_H_ADDRESS,tx_buffer,11,0,0);
                 ;  #else
                 ;  i2c_start();
                 ;  i2c_write(SSD1306_I2C_ADDRESS);
                 ;  i2c_write(0b01000000);
                 ;  for (x=0; x<10; x++)
                 ;  {
                 ;   if(del==0)
                 ;    i2c_write(arrow[x]);
                 ;   else
                 ;    i2c_write(0);
                 ;  }
                 ;  i2c_stop();
                 ;  #endif
                 ;}
                 ;
                 ;
                 ;
                 ;
                 ;
                 ;
                 ;
                 ;//#include <demo_WIFI.c> included later after variables.......
                 ;
                 ;#define RGBPIN PORTA.7 //rgb led
                 ;
                 ;#define WIFIOFF DDRD.4 //open drain 1-off 0-on
                 ;#define WIFIRES DDRD.5 //open drain 1-res 0-norm working
                 ;#define WiFi_reset_time 2000 //1000seconds after any activity
                 ;
                 ;#define WiFi_ON
                 ;//#define WiFi_UART0_OUT
                 ;
                 ;void uCsetup(void);
                 ;void UART_setup(unsigned char UART_N,unsigned char baud_N);//baud_N=0 - 9600 baud_N=1 - 115200
                 ;void putchar0(char c);//jdy-40
                 ;void putchar1(char c);//Wifi
                 ;void putstr(char com_n,const char* S);
                 ;void IntToStr(char* st,int n);//16 bit int to str char
                 ;//OLED and encoder interrupts
                 ;interrupt [PC_INT0] void pin_change_isr0(void);
                 ;interrupt [PC_INT1] void pin_change_isr1(void);
                 ;void Led(char R, char G, char B);
                 ;void hue_to_rgb(unsigned char hue);
                 ;void T3_delay(unsigned char d);//1-255 * 23.7ms
                 ;void T3_timeout(unsigned char d);//1-255 * 23.7ms
                 ;//Encoder
                 ;unsigned char PB4_B=1,PB5_B=1,ENC_counter=0;
                 ;//Encoder
                 ;
                 ;unsigned char T3_ready=0;
                 ;
                 ;unsigned char GLOBAL_GRB[3]={0,0,0};
                 ;unsigned char OLED_text[30]="Пока не прислано...";
                 
                 	.DSEG
                 ;unsigned char Ledon=0;
                 ;
                 ;#include <demo_WIFI.c>
                 ;//WiFi функции для демо программы 2560модуля
                 ;//ESP-12f стандартная прошивка скорость по умолчанию 115200
                 ;
                 ;void WiFi_main_processing(void);
                 ;void WiFi_send_command(unsigned char id, unsigned char Connection, unsigned int Send_N);
                 ;
                 ;unsigned char WiFi_Current_Connection;//connection number 0-4
                 ;//unsigned int WiFi_Send_N;//symbols number 2048 max
                 ;//unsigned char WiFi_Error=0;
                 ;unsigned char WiFi_what_to_read=0,WiFi_buf[5],WiFi_answer_ID=0,WiFi_symbol_counter=0;
                 ;unsigned char WiFi_Busy=0;
                 ;unsigned char WiFi_reset_no_activity_counter=16;//if no activity - reset and reinit wifi (initial 8s)
                 ;unsigned char HTML_info_N=0;
                 ;
                 ;//what each connection wants 0-nothing
                 ;//1-request known proceed to process value
                 ;//.....
                 ;//100-request unknown just close the connection
                 ;unsigned char WiFi_Connection_Request[5]={0,0,0,0,0};
                 ;unsigned char WiFi_Request_Value[5][30];
                 ;unsigned char WiFi_Connection_CommandID[5];
                 ;unsigned int WiFi_reset_flag=0;
                 ;
                 ;
                 ;
                 ;
                 ;
                 ;//now the code is in RAM, if code is more than 4k turn it into const(flash) ram is not enough !!!!!!!!!!!!!!!!!!!
                 ;char HTML_main_code[246+63+17+17+16+60+113+75+1]=
                 ;//246
                 ;"<head><link rel='icon'href='data:image/bmp;base64,Qk1+AAAAAAAAAD4AAAAoAAAAEAAAABAAAAABAAEAAAAAAEAAAAB0EgAAdBIAAAAAAAAAA ...
                 ;//63
                 ;"<style>h1,h2,h3,input,i,select{font-size:40px}h1{color:#0000f0}"
                 ;//17   HTML_main_code[246+63+10]= er color[0] (00a000)
                 ;"h2{color:#a0a000}"
                 ;//17   HTML_main_code[246+63+17+10]= color[0]
                 ;"h3{color:#f0f000}"
                 ;//16
                 ;"i{color:#990073}"
                 ;//60
                 ;"input,select{color:#009999}</style><h1>2560MODULE ДЕМО </h1>"
                 ;//113
                 ;"<form><i>Text to OLED display:</i><input name='T'size='20'maxlength='20'><input type='submit'value='SEND'></form>"
                 ;//75
                 ;"<form><i>RGB LED ON/OFF:</i><input type='submit'name='L'value='LED'></form>";
                 ;
                 ;char HTML_info_code[7][34+1]=
                 ;{
                 ;"<h3>TEXT SHOULD GO TO OLED   </h3>",
                 ;"<h3>UNBELIEVABLE  SUCCESS !!!</h3>",
                 ;"<h3> YET ANOTHER SUCCESS!    </h3>",
                 ;"<h3>WOW! SO MUCH SUCCESS...  </h3>",
                 ;"<h3>REALLY? AREN'T YOU TIRED?</h3>",
                 ;"<h3>YOU ARE THE LED RULER!!! </h3>",
                 ;"<h3>STILL FUN, HA?           </h3>"
                 ;};
                 ;
                 ;
                 ;
                 ;
                 ;//change parameters and colors in HTML_main_code according to the actual
                 ;void Edit_HTML(void)
                 ; 0000 0040 {
                 
                 	.CSEG
                 _Edit_HTML:
                 ; .FSTART _Edit_HTML
                 ; //set info text color
                 ; HTML_main_code[246+63+17+10]='0';//R
001a35 e3e0      	LDI  R30,LOW(48)
                +
001a36 93e0 0d79+STS _HTML_main_code + ( 336 ) , R30
                 	__PUTB1MN _HTML_main_code,336
                 ; HTML_main_code[246+63+17+10+2]='0';//G
                +
001a38 93e0 0d7b+STS _HTML_main_code + ( 338 ) , R30
                 	__PUTB1MN _HTML_main_code,338
                 ; HTML_main_code[246+63+17+10+4]='0';//B
                +
001a3a 93e0 0d7d+STS _HTML_main_code + ( 340 ) , R30
                 	__PUTB1MN _HTML_main_code,340
                 ; switch(HTML_info_N)
001a3c 91e0 0b86 	LDS  R30,_HTML_info_N
001a3e e0f0      	LDI  R31,0
                 ; {
                 ;  case 0:
001a3f 9730      	SBIW R30,0
001a40 f149      	BREQ _0x122
                 ;  HTML_main_code[246+63+17+10+4]='f';
                 ;  break;
                 ;  case 5:
001a41 30e5      	CPI  R30,LOW(0x5)
001a42 e0a0      	LDI  R26,HIGH(0x5)
001a43 07fa      	CPC  R31,R26
001a44 f021      	BREQ _0x36
                 ;  case 1:
001a45 30e1      	CPI  R30,LOW(0x1)
001a46 e0a0      	LDI  R26,HIGH(0x1)
001a47 07fa      	CPC  R31,R26
001a48 f421      	BRNE _0x37
                 _0x36:
                 ;  HTML_main_code[246+63+17+10+2]='f';
001a49 e6e6      	LDI  R30,LOW(102)
                +
001a4a 93e0 0d7b+STS _HTML_main_code + ( 338 ) , R30
                 	__PUTB1MN _HTML_main_code,338
                 ;  break;
001a4c c020      	RJMP _0x33
                 ;  case 6:
                 _0x37:
001a4d 30e6      	CPI  R30,LOW(0x6)
001a4e e0a0      	LDI  R26,HIGH(0x6)
001a4f 07fa      	CPC  R31,R26
001a50 f021      	BREQ _0x39
                 ;  case 2:
001a51 30e2      	CPI  R30,LOW(0x2)
001a52 e0a0      	LDI  R26,HIGH(0x2)
001a53 07fa      	CPC  R31,R26
001a54 f421      	BRNE _0x3A
                 _0x39:
                 ;  HTML_main_code[246+63+17+10]='f';
001a55 e6e6      	LDI  R30,LOW(102)
                +
001a56 93e0 0d79+STS _HTML_main_code + ( 336 ) , R30
                 	__PUTB1MN _HTML_main_code,336
                 ;  break;
001a58 c014      	RJMP _0x33
                 ;  case 3:
                 _0x3A:
001a59 30e3      	CPI  R30,LOW(0x3)
001a5a e0a0      	LDI  R26,HIGH(0x3)
001a5b 07fa      	CPC  R31,R26
001a5c f431      	BRNE _0x3B
                 ;  HTML_main_code[246+63+17+10]='f';
001a5d e6e6      	LDI  R30,LOW(102)
                +
001a5e 93e0 0d79+STS _HTML_main_code + ( 336 ) , R30
                 	__PUTB1MN _HTML_main_code,336
                 ;  HTML_main_code[246+63+17+10+2]='f';
                +
001a60 93e0 0d7b+STS _HTML_main_code + ( 338 ) , R30
                 	__PUTB1MN _HTML_main_code,338
                 ;  break;
001a62 c00a      	RJMP _0x33
                 ;  case 4:
                 _0x3B:
001a63 30e4      	CPI  R30,LOW(0x4)
001a64 e0a0      	LDI  R26,HIGH(0x4)
001a65 07fa      	CPC  R31,R26
001a66 f431      	BRNE _0x33
                 ;  HTML_main_code[246+63+17+10+2]='f';
001a67 e6e6      	LDI  R30,LOW(102)
                +
001a68 93e0 0d7b+STS _HTML_main_code + ( 338 ) , R30
                 	__PUTB1MN _HTML_main_code,338
                 ;  HTML_main_code[246+63+17+10+4]='f';
                 _0x122:
001a6a e6e6      	LDI  R30,LOW(102)
                +
001a6b 93e0 0d7d+STS _HTML_main_code + ( 340 ) , R30
                 	__PUTB1MN _HTML_main_code,340
                 ;  break;
                 ; }
                 _0x33:
                 ;}
001a6d 9508      	RET
                 ; .FEND
                 ;
                 ;
                 ;void WiFi_processing_clear(void)
                 ;{
                 ; char tmp;
                 ; WiFi_answer_ID=0;
                 ;	tmp -> R17
                 ; WiFi_what_to_read=1;
                 ; for(tmp=0;tmp<5;tmp++) WiFi_Connection_Request[tmp]=0;
                 ;
                 ;void WiFi_main_processing(void)
                 ;{
                 _WiFi_main_processing:
                 ; .FSTART _WiFi_main_processing
                 ; char tmp,tmp2,tmp_flag;
                 ;        for(tmp=0;tmp<5;tmp++)//if there is any request
001a6e 940e 2509 	CALL __SAVELOCR4
                 ;	tmp -> R17
                 ;	tmp2 -> R16
                 ;	tmp_flag -> R19
001a70 e010      	LDI  R17,LOW(0)
                 _0x41:
001a71 3015      	CPI  R17,5
001a72 f008      	BRLO PC+2
001a73 c0c5      	RJMP _0x42
                 ;        {
                 ;         if(WiFi_Connection_Request[tmp]>0)
001a74 2fe1      	MOV  R30,R17
001a75 e0f0      	LDI  R31,0
001a76 57e9      	SUBI R30,LOW(-_WiFi_Connection_Request)
001a77 4ff4      	SBCI R31,HIGH(-_WiFi_Connection_Request)
001a78 81a0      	LD   R26,Z
001a79 30a1      	CPI  R26,LOW(0x1)
001a7a f408      	BRSH PC+2
001a7b c0bb      	RJMP _0x43
                 ;         {
                 ;          WiFi_reset_no_activity_counter=WiFi_reset_time;
001a7c ede0      	LDI  R30,LOW(208)
001a7d 93e0 0b85 	STS  _WiFi_reset_no_activity_counter,R30
                 ;          if(WiFi_Connection_CommandID[tmp]>0)//known command (should send data)
001a7f 2fe1      	MOV  R30,R17
001a80 e0f0      	LDI  R31,0
001a81 5dee      	SUBI R30,LOW(-_WiFi_Connection_CommandID)
001a82 4ff3      	SBCI R31,HIGH(-_WiFi_Connection_CommandID)
001a83 81a0      	LD   R26,Z
001a84 30a1      	CPI  R26,LOW(0x1)
001a85 f408      	BRSH PC+2
001a86 c0a9      	RJMP _0x44
                 ;          {
                 ;           T3_timeout(42);//42=1s
001a87 e2aa      	LDI  R26,LOW(42)
001a88 940e 2298 	CALL _T3_timeout
                 ;           if(WiFi_Connection_CommandID[tmp]==6)//text to oled
001a8a 2fe1      	MOV  R30,R17
001a8b e0f0      	LDI  R31,0
001a8c 5dee      	SUBI R30,LOW(-_WiFi_Connection_CommandID)
001a8d 4ff3      	SBCI R31,HIGH(-_WiFi_Connection_CommandID)
001a8e 81a0      	LD   R26,Z
001a8f 30a6      	CPI  R26,LOW(0x6)
001a90 f009      	BREQ PC+2
001a91 c054      	RJMP _0x45
                 ;           {
                 ;            tmp_flag=0;
001a92 e030      	LDI  R19,LOW(0)
                 ;            for(tmp2=0;tmp2<20;tmp2++)
001a93 e000      	LDI  R16,LOW(0)
                 _0x47:
001a94 3104      	CPI  R16,20
001a95 f008      	BRLO PC+2
001a96 c040      	RJMP _0x48
                 ;            {
                 ;             if(WiFi_Request_Value[tmp][tmp2]==0)tmp_flag=1;//if shorter than 20 letters put ' '
001a97 e1ae      	LDI  R26,LOW(30)
001a98 9f1a      	MUL  R17,R26
001a99 01f0      	MOVW R30,R0
001a9a 57e4      	SUBI R30,LOW(-_WiFi_Request_Value)
001a9b 4ff4      	SBCI R31,HIGH(-_WiFi_Request_Value)
001a9c 01df      	MOVW R26,R30
001a9d 27ee      	CLR  R30
001a9e 0fa0      	ADD  R26,R16
001a9f 1fbe      	ADC  R27,R30
001aa0 91ec      	LD   R30,X
001aa1 30e0      	CPI  R30,0
001aa2 f409      	BRNE _0x49
001aa3 e031      	LDI  R19,LOW(1)
                 ;             if(WiFi_Request_Value[tmp][tmp2]=='+')WiFi_Request_Value[tmp][tmp2]=' ';
                 _0x49:
001aa4 e1ae      	LDI  R26,LOW(30)
001aa5 9f1a      	MUL  R17,R26
001aa6 01f0      	MOVW R30,R0
001aa7 57e4      	SUBI R30,LOW(-_WiFi_Request_Value)
001aa8 4ff4      	SBCI R31,HIGH(-_WiFi_Request_Value)
001aa9 01df      	MOVW R26,R30
001aaa 27ee      	CLR  R30
001aab 0fa0      	ADD  R26,R16
001aac 1fbe      	ADC  R27,R30
001aad 91ac      	LD   R26,X
001aae 32ab      	CPI  R26,LOW(0x2B)
001aaf f459      	BRNE _0x4A
001ab0 e1ae      	LDI  R26,LOW(30)
001ab1 9f1a      	MUL  R17,R26
001ab2 01f0      	MOVW R30,R0
001ab3 57e4      	SUBI R30,LOW(-_WiFi_Request_Value)
001ab4 4ff4      	SBCI R31,HIGH(-_WiFi_Request_Value)
001ab5 01df      	MOVW R26,R30
001ab6 27ee      	CLR  R30
001ab7 0fa0      	ADD  R26,R16
001ab8 1fbe      	ADC  R27,R30
001ab9 e2e0      	LDI  R30,LOW(32)
001aba 93ec      	ST   X,R30
                 ;
                 ;             if(tmp_flag==0)
                 _0x4A:
001abb 3030      	CPI  R19,0
001abc f491      	BRNE _0x4B
                 ;              OLED_text[tmp2]=WiFi_Request_Value[tmp][tmp2];
001abd 2fe0      	MOV  R30,R16
001abe e0f0      	LDI  R31,0
001abf 59ee      	SUBI R30,LOW(-_OLED_text)
001ac0 4ff4      	SBCI R31,HIGH(-_OLED_text)
001ac1 01bf      	MOVW R22,R30
001ac2 e1ae      	LDI  R26,LOW(30)
001ac3 9f1a      	MUL  R17,R26
001ac4 01f0      	MOVW R30,R0
001ac5 57e4      	SUBI R30,LOW(-_WiFi_Request_Value)
001ac6 4ff4      	SBCI R31,HIGH(-_WiFi_Request_Value)
001ac7 01df      	MOVW R26,R30
001ac8 27ee      	CLR  R30
001ac9 0fa0      	ADD  R26,R16
001aca 1fbe      	ADC  R27,R30
001acb 91ec      	LD   R30,X
001acc 01db      	MOVW R26,R22
001acd 93ec      	ST   X,R30
                 ;             else
001ace c006      	RJMP _0x4C
                 _0x4B:
                 ;              OLED_text[tmp2]=' ';
001acf 2fe0      	MOV  R30,R16
001ad0 e0f0      	LDI  R31,0
001ad1 59ee      	SUBI R30,LOW(-_OLED_text)
001ad2 4ff4      	SBCI R31,HIGH(-_OLED_text)
001ad3 e2a0      	LDI  R26,LOW(32)
001ad4 83a0      	STD  Z+0,R26
                 ;            }
                 _0x4C:
001ad5 5f0f      	SUBI R16,-1
001ad6 cfbd      	RJMP _0x47
                 _0x48:
                 ;            OLED_text[20]=0;//20 letters anyway
001ad7 e0e0      	LDI  R30,LOW(0)
                +
001ad8 93e0 0b76+STS _OLED_text + ( 20 ) , R30
                 	__PUTB1MN _OLED_text,20
                 ;            HTML_info_N++;
001ada 91e0 0b86 	LDS  R30,_HTML_info_N
001adc 5fef      	SUBI R30,-LOW(1)
001add 93e0 0b86 	STS  _HTML_info_N,R30
                 ;             if(HTML_info_N>4) HTML_info_N=1;
001adf 91a0 0b86 	LDS  R26,_HTML_info_N
001ae1 30a5      	CPI  R26,LOW(0x5)
001ae2 f018      	BRLO _0x4D
001ae3 e0e1      	LDI  R30,LOW(1)
001ae4 93e0 0b86 	STS  _HTML_info_N,R30
                 ;           }
                 _0x4D:
                 ;           if(WiFi_Connection_CommandID[tmp]==7)//led on off
                 _0x45:
001ae6 2fe1      	MOV  R30,R17
001ae7 e0f0      	LDI  R31,0
001ae8 5dee      	SUBI R30,LOW(-_WiFi_Connection_CommandID)
001ae9 4ff3      	SBCI R31,HIGH(-_WiFi_Connection_CommandID)
001aea 81a0      	LD   R26,Z
001aeb 30a7      	CPI  R26,LOW(0x7)
001aec f479      	BRNE _0x4E
                 ;           {
                 ;            if(Ledon==0)Ledon=1;
001aed 20aa      	TST  R10
001aee f419      	BRNE _0x4F
001aef e0e1      	LDI  R30,LOW(1)
001af0 2eae      	MOV  R10,R30
                 ;            else Ledon=0;
001af1 c001      	RJMP _0x50
                 _0x4F:
001af2 24aa      	CLR  R10
                 ;            if(HTML_info_N==5)HTML_info_N=6;
                 _0x50:
001af3 91a0 0b86 	LDS  R26,_HTML_info_N
001af5 30a5      	CPI  R26,LOW(0x5)
001af6 f411      	BRNE _0x51
001af7 e0e6      	LDI  R30,LOW(6)
001af8 c001      	RJMP _0x123
                 ;            else HTML_info_N=5;
                 _0x51:
001af9 e0e5      	LDI  R30,LOW(5)
                 _0x123:
001afa 93e0 0b86 	STS  _HTML_info_N,R30
                 ;           }
                 ;           Edit_HTML();
                 _0x4E:
001afc df38      	RCALL _Edit_HTML
                 ;           while(WiFi_Busy>0) {if(T3_ready==1) break;};
                 _0x53:
001afd e0e0      	LDI  R30,LOW(0)
001afe 15ed      	CP   R30,R13
001aff f418      	BRSH _0x55
001b00 e0e1      	LDI  R30,LOW(1)
001b01 15e7      	CP   R30,R7
001b02 f7d1      	BRNE _0x53
                 _0x55:
                 ;           WiFi_send_command(8,tmp,(246+63+17+17+16+60+113+75) + 34);//send the main code + text
001b03 e0e8      	LDI  R30,LOW(8)
001b04 93ea      	ST   -Y,R30
001b05 931a      	ST   -Y,R17
001b06 e8a1      	LDI  R26,LOW(641)
001b07 e0b2      	LDI  R27,HIGH(641)
001b08 d3b9      	RCALL _WiFi_send_command
                 ;           T3_timeout(21);//42=1s
001b09 e1a5      	LDI  R26,LOW(21)
001b0a 940e 2298 	CALL _T3_timeout
                 ;           while(WiFi_answer_ID!=3){if(T3_ready==1) break;};//invitation
                 _0x57:
001b0c e0e3      	LDI  R30,LOW(3)
001b0d 15eb      	CP   R30,R11
001b0e f019      	BREQ _0x59
001b0f e0e1      	LDI  R30,LOW(1)
001b10 15e7      	CP   R30,R7
001b11 f7d1      	BRNE _0x57
                 _0x59:
                 ;           putstr(1,HTML_main_code);
001b12 e0e1      	LDI  R30,LOW(1)
001b13 93ea      	ST   -Y,R30
001b14 e2a9      	LDI  R26,LOW(_HTML_main_code)
001b15 e0bc      	LDI  R27,HIGH(_HTML_main_code)
001b16 d624      	RCALL _putstr
                 ;           putstr(1,HTML_info_code[HTML_info_N]);
001b17 e0e1      	LDI  R30,LOW(1)
001b18 93ea      	ST   -Y,R30
001b19 91e0 0b86 	LDS  R30,_HTML_info_N
001b1b e2a3      	LDI  R26,LOW(35)
001b1c 9fea      	MUL  R30,R26
001b1d 01f0      	MOVW R30,R0
001b1e 57e7      	SUBI R30,LOW(-_HTML_info_code)
001b1f 4ff1      	SBCI R31,HIGH(-_HTML_info_code)
001b20 01df      	MOVW R26,R30
001b21 d619      	RCALL _putstr
                 ;           T3_timeout(21);//42=1s
001b22 e1a5      	LDI  R26,LOW(21)
001b23 940e 2298 	CALL _T3_timeout
                 ;           while(WiFi_answer_ID!=1){if(T3_ready==1) break;};//ok
                 _0x5B:
001b25 e0e1      	LDI  R30,LOW(1)
001b26 15eb      	CP   R30,R11
001b27 f011      	BREQ _0x5D
001b28 15e7      	CP   R30,R7
001b29 f7d9      	BRNE _0x5B
                 _0x5D:
                 ;           WiFi_send_command(7,tmp,0);//close the connection
001b2a e0e7      	LDI  R30,LOW(7)
001b2b 93ea      	ST   -Y,R30
001b2c 931a      	ST   -Y,R17
001b2d e0a0      	LDI  R26,LOW(0)
001b2e e0b0      	LDI  R27,0
001b2f d392      	RCALL _WiFi_send_command
                 ;
                 ;          }
                 ;          WiFi_Connection_Request[tmp]=0;
                 _0x44:
001b30 2fe1      	MOV  R30,R17
001b31 e0f0      	LDI  R31,0
001b32 57e9      	SUBI R30,LOW(-_WiFi_Connection_Request)
001b33 4ff4      	SBCI R31,HIGH(-_WiFi_Connection_Request)
001b34 e0a0      	LDI  R26,LOW(0)
001b35 83a0      	STD  Z+0,R26
                 ;          break; //only one request at a time  !!!!!!!!!!!!!!!!!!!!!!!!!!!!!!!!!!!
001b36 c002      	RJMP _0x42
                 ;         }
                 ;        }
                 _0x43:
001b37 5f1f      	SUBI R17,-1
001b38 cf38      	RJMP _0x41
                 _0x42:
                 ;}
001b39 940e 2510 	CALL __LOADLOCR4
                 _0x2040006:
001b3b 9624      	ADIW R28,4
001b3c 9508      	RET
                 ; .FEND
                 ;
                 ;
                 ;
                 ;//G_answer_ID>0 there is an answer 0-no match
                 ;//1- OK
                 ;//2- ERROR
                 ;//3- >
                 ;//4- +IPD,
                 ;//5- GET
                 ;//6- ?T=..... HTTP/1.1   //TEXT
                 ;
                 ;//30- HTTP/1.1   //http only
                 ;//50- (13)(10)(13)(10) end of useless info    to wait or not to wait?????????????
                 ;//60- ready(13)(10) after reset to reinitialise
                 ;inline void WiFi_get_answer(void)
                 ;{
                 ; WiFi_answer_ID=0;
                 ;
                 ; if(WiFi_buf[2]=='O'&&WiFi_buf[3]=='K'&&WiFi_buf[4]==13)
                 ;  {WiFi_answer_ID=1; //OK
                 ;   return;}
                 ;
                 ; if(WiFi_buf[0]=='E'&&WiFi_buf[1]=='R'&&WiFi_buf[2]=='R')
                 ;  {WiFi_answer_ID=2; //ERROR
                 ;   return;}
                 ;
                 ; if(WiFi_buf[2]==10&&WiFi_buf[3]=='>'&&WiFi_buf[4]==32)
                 ;  {WiFi_answer_ID=3; //> _//welcome to send sms
                 ;   return;}
                 ;
                 ; if(WiFi_buf[0]=='I'&&WiFi_buf[1]=='P'&&WiFi_buf[2]=='D'&&WiFi_buf[3]==',')
                 ;  {WiFi_answer_ID=4; //+IPD,   request start, WiFi_buf[4]=0...3 digit is Current_Connection
                 ;   return;}
                 ;
                 ; if(WiFi_buf[0]=='G'&&WiFi_buf[1]=='E'&&WiFi_buf[2]=='T'&&WiFi_buf[3]==' '&&WiFi_buf[4]=='/')
                 ;  {WiFi_answer_ID=5; //GET /    next will be what they want us to send
                 ;   return;}
                 ;
                 ; if(WiFi_buf[2]=='?'&&WiFi_buf[4]=='=')
                 ;  {
                 ;   if(WiFi_buf[3]=='T'){WiFi_answer_ID=6; return;}//?T=  text
                 ;    if(WiFi_buf[3]=='L'){WiFi_answer_ID=7; return;}//?L=  led on off
                 ;   WiFi_answer_ID=30;//if unknown send just HTTP
                 ;  }
                 ;
                 ; if(WiFi_buf[2]=='/'&&WiFi_buf[3]==' '&&WiFi_buf[4]=='H')//http only
                 ; {WiFi_answer_ID=30; return;}
                 ;
                 ; if(WiFi_buf[2]==13&&WiFi_buf[3]==10&&WiFi_buf[4]==13)//end of useless info
                 ; {WiFi_answer_ID=50;
                 ;  return;}
                 ;
                 ; if(WiFi_buf[0]=='a'&&WiFi_buf[1]=='d'&&WiFi_buf[2]=='y'&&WiFi_buf[3]==13&&WiFi_buf[4]==10)//after reset
                 ; {
                 ;  WiFi_reset_flag=1;
                 ; }
                 ;}
                 ;
                 ;
                 ;//USART1 Receiver interrupt
                 ;//ESP-12F(ESP8266) module serial
                 ;//Read sms, responses etc
                 ;//WiFi_what_to_read=
                 ;//1- any answer .............
                 ;interrupt [USART1_RXC] void usart1_rx_isr(void)
                 ;{
                 _usart1_rx_isr:
                 ; .FSTART _usart1_rx_isr
001b3d 920a      	ST   -Y,R0
001b3e 921a      	ST   -Y,R1
001b3f 93aa      	ST   -Y,R26
001b40 93ba      	ST   -Y,R27
001b41 93ea      	ST   -Y,R30
001b42 93fa      	ST   -Y,R31
001b43 b7ef      	IN   R30,SREG
001b44 93ea      	ST   -Y,R30
                 ; char data;
                 ; data=UDR1;
001b45 931a      	ST   -Y,R17
                 ;	data -> R17
001b46 9110 00ce 	LDS  R17,206
                 ;
                 ;
                 ; #ifdef WiFi_UART0_OUT
                 ; UDR0=data;//shitty send test
                 ; #endif
                 ;
                 ; #ifdef WiFi_ON
                 ; WiFi_buf[0]=WiFi_buf[1]; WiFi_buf[1]=WiFi_buf[2]; WiFi_buf[2]=WiFi_buf[3]; WiFi_buf[3]=WiFi_buf[4]; WiFi_buf[4]=data;// ...
                +
001b48 91e0 0b81+LDS R30 , _WiFi_buf + ( 1 )
                 	__GETB1MN _WiFi_buf,1
001b4a 93e0 0b80 	STS  _WiFi_buf,R30
                +
001b4c 91e0 0b82+LDS R30 , _WiFi_buf + ( 2 )
                 	__GETB1MN _WiFi_buf,2
                +
001b4e 93e0 0b81+STS _WiFi_buf + ( 1 ) , R30
                 	__PUTB1MN _WiFi_buf,1
                +
001b50 91e0 0b83+LDS R30 , _WiFi_buf + ( 3 )
                 	__GETB1MN _WiFi_buf,3
                +
001b52 93e0 0b82+STS _WiFi_buf + ( 2 ) , R30
                 	__PUTB1MN _WiFi_buf,2
                +
001b54 91e0 0b84+LDS R30 , _WiFi_buf + ( 4 )
                 	__GETB1MN _WiFi_buf,4
                +
001b56 93e0 0b83+STS _WiFi_buf + ( 3 ) , R30
                 	__PUTB1MN _WiFi_buf,3
                +
001b58 9310 0b84+STS _WiFi_buf + ( 4 ) , R17
                 	__PUTBMRN _WiFi_buf,4,17
                 ;
                 ; switch(WiFi_what_to_read)
001b5a 2dec      	MOV  R30,R12
001b5b e0f0      	LDI  R31,0
                 ; {
                 ;  case 0: //nothing
001b5c 9730      	SBIW R30,0
001b5d f409      	BRNE _0x81
                 ;  break;
001b5e c356      	RJMP _0x80
                 ;  case 1: //limitless wait for the answer and switch
                 _0x81:
001b5f 30e1      	CPI  R30,LOW(0x1)
001b60 e0a0      	LDI  R26,HIGH(0x1)
001b61 07fa      	CPC  R31,R26
001b62 f009      	BREQ PC+2
001b63 c0c0      	RJMP _0x82
                 ;  //then set answerID
                 ;   WiFi_get_answer();//if WiFi_buf contains an answer - set the answer_ID
001b64 24bb      	CLR  R11
                +
001b65 91a0 0b82+LDS R26 , _WiFi_buf + ( 2 )
                 	__GETB2MN _WiFi_buf,2
001b67 34af      	CPI  R26,LOW(0x4F)
001b68 f441      	BRNE _0x400C061
                +
001b69 91a0 0b83+LDS R26 , _WiFi_buf + ( 3 )
                 	__GETB2MN _WiFi_buf,3
001b6b 34ab      	CPI  R26,LOW(0x4B)
001b6c f421      	BRNE _0x400C061
                +
001b6d 91a0 0b84+LDS R26 , _WiFi_buf + ( 4 )
                 	__GETB2MN _WiFi_buf,4
001b6f 30ad      	CPI  R26,LOW(0xD)
001b70 f009      	BREQ _0x400C062
                 _0x400C061:
001b71 c002      	RJMP _0x400C060
                 _0x400C062:
001b72 e0e1      	LDI  R30,LOW(1)
001b73 c07c      	RJMP _0x400C07D
                 _0x400C060:
001b74 91a0 0b80 	LDS  R26,_WiFi_buf
001b76 34a5      	CPI  R26,LOW(0x45)
001b77 f441      	BRNE _0x400C064
                +
001b78 91a0 0b81+LDS R26 , _WiFi_buf + ( 1 )
                 	__GETB2MN _WiFi_buf,1
001b7a 35a2      	CPI  R26,LOW(0x52)
001b7b f421      	BRNE _0x400C064
                +
001b7c 91a0 0b82+LDS R26 , _WiFi_buf + ( 2 )
                 	__GETB2MN _WiFi_buf,2
001b7e 35a2      	CPI  R26,LOW(0x52)
001b7f f009      	BREQ _0x400C065
                 _0x400C064:
001b80 c002      	RJMP _0x400C063
                 _0x400C065:
001b81 e0e2      	LDI  R30,LOW(2)
001b82 c06d      	RJMP _0x400C07D
                 _0x400C063:
                +
001b83 91a0 0b82+LDS R26 , _WiFi_buf + ( 2 )
                 	__GETB2MN _WiFi_buf,2
001b85 30aa      	CPI  R26,LOW(0xA)
001b86 f441      	BRNE _0x400C067
                +
001b87 91a0 0b83+LDS R26 , _WiFi_buf + ( 3 )
                 	__GETB2MN _WiFi_buf,3
001b89 33ae      	CPI  R26,LOW(0x3E)
001b8a f421      	BRNE _0x400C067
                +
001b8b 91a0 0b84+LDS R26 , _WiFi_buf + ( 4 )
                 	__GETB2MN _WiFi_buf,4
001b8d 32a0      	CPI  R26,LOW(0x20)
001b8e f009      	BREQ _0x400C068
                 _0x400C067:
001b8f c002      	RJMP _0x400C066
                 _0x400C068:
001b90 e0e3      	LDI  R30,LOW(3)
001b91 c05e      	RJMP _0x400C07D
                 _0x400C066:
001b92 91a0 0b80 	LDS  R26,_WiFi_buf
001b94 34a9      	CPI  R26,LOW(0x49)
001b95 f461      	BRNE _0x400C06A
                +
001b96 91a0 0b81+LDS R26 , _WiFi_buf + ( 1 )
                 	__GETB2MN _WiFi_buf,1
001b98 35a0      	CPI  R26,LOW(0x50)
001b99 f441      	BRNE _0x400C06A
                +
001b9a 91a0 0b82+LDS R26 , _WiFi_buf + ( 2 )
                 	__GETB2MN _WiFi_buf,2
001b9c 34a4      	CPI  R26,LOW(0x44)
001b9d f421      	BRNE _0x400C06A
                +
001b9e 91a0 0b83+LDS R26 , _WiFi_buf + ( 3 )
                 	__GETB2MN _WiFi_buf,3
001ba0 32ac      	CPI  R26,LOW(0x2C)
001ba1 f009      	BREQ _0x400C06B
                 _0x400C06A:
001ba2 c002      	RJMP _0x400C069
                 _0x400C06B:
001ba3 e0e4      	LDI  R30,LOW(4)
001ba4 c04b      	RJMP _0x400C07D
                 _0x400C069:
001ba5 91a0 0b80 	LDS  R26,_WiFi_buf
001ba7 34a7      	CPI  R26,LOW(0x47)
001ba8 f481      	BRNE _0x400C06D
                +
001ba9 91a0 0b81+LDS R26 , _WiFi_buf + ( 1 )
                 	__GETB2MN _WiFi_buf,1
001bab 34a5      	CPI  R26,LOW(0x45)
001bac f461      	BRNE _0x400C06D
                +
001bad 91a0 0b82+LDS R26 , _WiFi_buf + ( 2 )
                 	__GETB2MN _WiFi_buf,2
001baf 35a4      	CPI  R26,LOW(0x54)
001bb0 f441      	BRNE _0x400C06D
                +
001bb1 91a0 0b83+LDS R26 , _WiFi_buf + ( 3 )
                 	__GETB2MN _WiFi_buf,3
001bb3 32a0      	CPI  R26,LOW(0x20)
001bb4 f421      	BRNE _0x400C06D
                +
001bb5 91a0 0b84+LDS R26 , _WiFi_buf + ( 4 )
                 	__GETB2MN _WiFi_buf,4
001bb7 32af      	CPI  R26,LOW(0x2F)
001bb8 f009      	BREQ _0x400C06E
                 _0x400C06D:
001bb9 c002      	RJMP _0x400C06C
                 _0x400C06E:
001bba e0e5      	LDI  R30,LOW(5)
001bbb c034      	RJMP _0x400C07D
                 _0x400C06C:
                +
001bbc 91a0 0b82+LDS R26 , _WiFi_buf + ( 2 )
                 	__GETB2MN _WiFi_buf,2
001bbe 33af      	CPI  R26,LOW(0x3F)
001bbf f421      	BRNE _0x400C070
                +
001bc0 91a0 0b84+LDS R26 , _WiFi_buf + ( 4 )
                 	__GETB2MN _WiFi_buf,4
001bc2 33ad      	CPI  R26,LOW(0x3D)
001bc3 f009      	BREQ _0x400C071
                 _0x400C070:
001bc4 c00e      	RJMP _0x400C06F
                 _0x400C071:
                +
001bc5 91a0 0b83+LDS R26 , _WiFi_buf + ( 3 )
                 	__GETB2MN _WiFi_buf,3
001bc7 35a4      	CPI  R26,LOW(0x54)
001bc8 f411      	BRNE _0x400C072
001bc9 e0e6      	LDI  R30,LOW(6)
001bca c025      	RJMP _0x400C07D
                 _0x400C072:
                +
001bcb 91a0 0b83+LDS R26 , _WiFi_buf + ( 3 )
                 	__GETB2MN _WiFi_buf,3
001bcd 34ac      	CPI  R26,LOW(0x4C)
001bce f411      	BRNE _0x400C073
001bcf e0e7      	LDI  R30,LOW(7)
001bd0 c01f      	RJMP _0x400C07D
                 _0x400C073:
001bd1 e1ee      	LDI  R30,LOW(30)
001bd2 2ebe      	MOV  R11,R30
                 _0x400C06F:
                +
001bd3 91a0 0b82+LDS R26 , _WiFi_buf + ( 2 )
                 	__GETB2MN _WiFi_buf,2
001bd5 32af      	CPI  R26,LOW(0x2F)
001bd6 f441      	BRNE _0x400C075
                +
001bd7 91a0 0b83+LDS R26 , _WiFi_buf + ( 3 )
                 	__GETB2MN _WiFi_buf,3
001bd9 32a0      	CPI  R26,LOW(0x20)
001bda f421      	BRNE _0x400C075
                +
001bdb 91a0 0b84+LDS R26 , _WiFi_buf + ( 4 )
                 	__GETB2MN _WiFi_buf,4
001bdd 34a8      	CPI  R26,LOW(0x48)
001bde f009      	BREQ _0x400C076
                 _0x400C075:
001bdf c002      	RJMP _0x400C074
                 _0x400C076:
001be0 e1ee      	LDI  R30,LOW(30)
001be1 c00e      	RJMP _0x400C07D
                 _0x400C074:
                +
001be2 91a0 0b82+LDS R26 , _WiFi_buf + ( 2 )
                 	__GETB2MN _WiFi_buf,2
001be4 30ad      	CPI  R26,LOW(0xD)
001be5 f441      	BRNE _0x400C078
                +
001be6 91a0 0b83+LDS R26 , _WiFi_buf + ( 3 )
                 	__GETB2MN _WiFi_buf,3
001be8 30aa      	CPI  R26,LOW(0xA)
001be9 f421      	BRNE _0x400C078
                +
001bea 91a0 0b84+LDS R26 , _WiFi_buf + ( 4 )
                 	__GETB2MN _WiFi_buf,4
001bec 30ad      	CPI  R26,LOW(0xD)
001bed f009      	BREQ _0x400C079
                 _0x400C078:
001bee c003      	RJMP _0x400C077
                 _0x400C079:
001bef e3e2      	LDI  R30,LOW(50)
                 _0x400C07D:
001bf0 2ebe      	MOV  R11,R30
001bf1 c01b      	RJMP _0x400C05F
                 _0x400C077:
001bf2 91a0 0b80 	LDS  R26,_WiFi_buf
001bf4 36a1      	CPI  R26,LOW(0x61)
001bf5 f481      	BRNE _0x400C07B
                +
001bf6 91a0 0b81+LDS R26 , _WiFi_buf + ( 1 )
                 	__GETB2MN _WiFi_buf,1
001bf8 36a4      	CPI  R26,LOW(0x64)
001bf9 f461      	BRNE _0x400C07B
                +
001bfa 91a0 0b82+LDS R26 , _WiFi_buf + ( 2 )
                 	__GETB2MN _WiFi_buf,2
001bfc 37a9      	CPI  R26,LOW(0x79)
001bfd f441      	BRNE _0x400C07B
                +
001bfe 91a0 0b83+LDS R26 , _WiFi_buf + ( 3 )
                 	__GETB2MN _WiFi_buf,3
001c00 30ad      	CPI  R26,LOW(0xD)
001c01 f421      	BRNE _0x400C07B
                +
001c02 91a0 0b84+LDS R26 , _WiFi_buf + ( 4 )
                 	__GETB2MN _WiFi_buf,4
001c04 30aa      	CPI  R26,LOW(0xA)
001c05 f009      	BREQ _0x400C07C
                 _0x400C07B:
001c06 c006      	RJMP _0x400C07A
                 _0x400C07C:
001c07 e0e1      	LDI  R30,LOW(1)
001c08 e0f0      	LDI  R31,HIGH(1)
001c09 93e0 0c27 	STS  _WiFi_reset_flag,R30
001c0b 93f0 0c28 	STS  _WiFi_reset_flag+1,R31
                 _0x400C07A:
                 _0x400C05F:
                 ;   if(WiFi_answer_ID>0)
001c0d e0e0      	LDI  R30,LOW(0)
001c0e 15eb      	CP   R30,R11
001c0f f498      	BRSH _0x83
                 ;   {
                 ;     switch(WiFi_answer_ID)
001c10 2deb      	MOV  R30,R11
001c11 e0f0      	LDI  R31,0
                 ;     {
                 ;      case 4: //incoming +IPD, request start, WiFi_buf[4]=0...4 digit is Current_Connection
001c12 30e4      	CPI  R30,LOW(0x4)
001c13 e0a0      	LDI  R26,HIGH(0x4)
001c14 07fa      	CPC  R31,R26
001c15 f469      	BRNE _0x86
                 ;      // WiFi_Test++;
                 ;       WiFi_Busy=1;
001c16 e0e1      	LDI  R30,LOW(1)
001c17 2ede      	MOV  R13,R30
                 ;       WiFi_Current_Connection=WiFi_buf[4]-'0'; //0 -4
                +
001c18 91e0 0b84+LDS R30 , _WiFi_buf + ( 4 )
                 	__GETB1MN _WiFi_buf,4
001c1a 53e0      	SUBI R30,LOW(48)
001c1b 2e9e      	MOV  R9,R30
                 ;       if(WiFi_Current_Connection>4) break; //search no more
001c1c e0e4      	LDI  R30,LOW(4)
001c1d 15e9      	CP   R30,R9
001c1e f020      	BRLO _0x86
                 ;       WiFi_symbol_counter=0;//?????
001c1f 24ee      	CLR  R14
                 ;       WiFi_what_to_read=2; //next step
001c20 e0e2      	LDI  R30,LOW(2)
001c21 2ece      	MOV  R12,R30
                 ;      return;
001c22 c295      	RJMP _0x12C
                 ;     }
                 _0x86:
                 ;   }
                 ;  break;
                 _0x83:
001c23 c291      	RJMP _0x80
                 ;  case 2: //waiting for get
                 _0x82:
001c24 30e2      	CPI  R30,LOW(0x2)
001c25 e0a0      	LDI  R26,HIGH(0x2)
001c26 07fa      	CPC  R31,R26
001c27 f009      	BREQ PC+2
001c28 c0be      	RJMP _0x89
                 ;   if(WiFi_symbol_counter<13)//limit 13 symb
001c29 e0ed      	LDI  R30,LOW(13)
001c2a 16ee      	CP   R14,R30
001c2b f008      	BRLO PC+2
001c2c c0b7      	RJMP _0x8A
                 ;   {
                 ;    WiFi_symbol_counter++;
001c2d 94e3      	INC  R14
                 ;    WiFi_get_answer();
001c2e 24bb      	CLR  R11
                +
001c2f 91a0 0b82+LDS R26 , _WiFi_buf + ( 2 )
                 	__GETB2MN _WiFi_buf,2
001c31 34af      	CPI  R26,LOW(0x4F)
001c32 f441      	BRNE _0x800C061
                +
001c33 91a0 0b83+LDS R26 , _WiFi_buf + ( 3 )
                 	__GETB2MN _WiFi_buf,3
001c35 34ab      	CPI  R26,LOW(0x4B)
001c36 f421      	BRNE _0x800C061
                +
001c37 91a0 0b84+LDS R26 , _WiFi_buf + ( 4 )
                 	__GETB2MN _WiFi_buf,4
001c39 30ad      	CPI  R26,LOW(0xD)
001c3a f009      	BREQ _0x800C062
                 _0x800C061:
001c3b c002      	RJMP _0x800C060
                 _0x800C062:
001c3c e0e1      	LDI  R30,LOW(1)
001c3d c07c      	RJMP _0x800C07D
                 _0x800C060:
001c3e 91a0 0b80 	LDS  R26,_WiFi_buf
001c40 34a5      	CPI  R26,LOW(0x45)
001c41 f441      	BRNE _0x800C064
                +
001c42 91a0 0b81+LDS R26 , _WiFi_buf + ( 1 )
                 	__GETB2MN _WiFi_buf,1
001c44 35a2      	CPI  R26,LOW(0x52)
001c45 f421      	BRNE _0x800C064
                +
001c46 91a0 0b82+LDS R26 , _WiFi_buf + ( 2 )
                 	__GETB2MN _WiFi_buf,2
001c48 35a2      	CPI  R26,LOW(0x52)
001c49 f009      	BREQ _0x800C065
                 _0x800C064:
001c4a c002      	RJMP _0x800C063
                 _0x800C065:
001c4b e0e2      	LDI  R30,LOW(2)
001c4c c06d      	RJMP _0x800C07D
                 _0x800C063:
                +
001c4d 91a0 0b82+LDS R26 , _WiFi_buf + ( 2 )
                 	__GETB2MN _WiFi_buf,2
001c4f 30aa      	CPI  R26,LOW(0xA)
001c50 f441      	BRNE _0x800C067
                +
001c51 91a0 0b83+LDS R26 , _WiFi_buf + ( 3 )
                 	__GETB2MN _WiFi_buf,3
001c53 33ae      	CPI  R26,LOW(0x3E)
001c54 f421      	BRNE _0x800C067
                +
001c55 91a0 0b84+LDS R26 , _WiFi_buf + ( 4 )
                 	__GETB2MN _WiFi_buf,4
001c57 32a0      	CPI  R26,LOW(0x20)
001c58 f009      	BREQ _0x800C068
                 _0x800C067:
001c59 c002      	RJMP _0x800C066
                 _0x800C068:
001c5a e0e3      	LDI  R30,LOW(3)
001c5b c05e      	RJMP _0x800C07D
                 _0x800C066:
001c5c 91a0 0b80 	LDS  R26,_WiFi_buf
001c5e 34a9      	CPI  R26,LOW(0x49)
001c5f f461      	BRNE _0x800C06A
                +
001c60 91a0 0b81+LDS R26 , _WiFi_buf + ( 1 )
                 	__GETB2MN _WiFi_buf,1
001c62 35a0      	CPI  R26,LOW(0x50)
001c63 f441      	BRNE _0x800C06A
                +
001c64 91a0 0b82+LDS R26 , _WiFi_buf + ( 2 )
                 	__GETB2MN _WiFi_buf,2
001c66 34a4      	CPI  R26,LOW(0x44)
001c67 f421      	BRNE _0x800C06A
                +
001c68 91a0 0b83+LDS R26 , _WiFi_buf + ( 3 )
                 	__GETB2MN _WiFi_buf,3
001c6a 32ac      	CPI  R26,LOW(0x2C)
001c6b f009      	BREQ _0x800C06B
                 _0x800C06A:
001c6c c002      	RJMP _0x800C069
                 _0x800C06B:
001c6d e0e4      	LDI  R30,LOW(4)
001c6e c04b      	RJMP _0x800C07D
                 _0x800C069:
001c6f 91a0 0b80 	LDS  R26,_WiFi_buf
001c71 34a7      	CPI  R26,LOW(0x47)
001c72 f481      	BRNE _0x800C06D
                +
001c73 91a0 0b81+LDS R26 , _WiFi_buf + ( 1 )
                 	__GETB2MN _WiFi_buf,1
001c75 34a5      	CPI  R26,LOW(0x45)
001c76 f461      	BRNE _0x800C06D
                +
001c77 91a0 0b82+LDS R26 , _WiFi_buf + ( 2 )
                 	__GETB2MN _WiFi_buf,2
001c79 35a4      	CPI  R26,LOW(0x54)
001c7a f441      	BRNE _0x800C06D
                +
001c7b 91a0 0b83+LDS R26 , _WiFi_buf + ( 3 )
                 	__GETB2MN _WiFi_buf,3
001c7d 32a0      	CPI  R26,LOW(0x20)
001c7e f421      	BRNE _0x800C06D
                +
001c7f 91a0 0b84+LDS R26 , _WiFi_buf + ( 4 )
                 	__GETB2MN _WiFi_buf,4
001c81 32af      	CPI  R26,LOW(0x2F)
001c82 f009      	BREQ _0x800C06E
                 _0x800C06D:
001c83 c002      	RJMP _0x800C06C
                 _0x800C06E:
001c84 e0e5      	LDI  R30,LOW(5)
001c85 c034      	RJMP _0x800C07D
                 _0x800C06C:
                +
001c86 91a0 0b82+LDS R26 , _WiFi_buf + ( 2 )
                 	__GETB2MN _WiFi_buf,2
001c88 33af      	CPI  R26,LOW(0x3F)
001c89 f421      	BRNE _0x800C070
                +
001c8a 91a0 0b84+LDS R26 , _WiFi_buf + ( 4 )
                 	__GETB2MN _WiFi_buf,4
001c8c 33ad      	CPI  R26,LOW(0x3D)
001c8d f009      	BREQ _0x800C071
                 _0x800C070:
001c8e c00e      	RJMP _0x800C06F
                 _0x800C071:
                +
001c8f 91a0 0b83+LDS R26 , _WiFi_buf + ( 3 )
                 	__GETB2MN _WiFi_buf,3
001c91 35a4      	CPI  R26,LOW(0x54)
001c92 f411      	BRNE _0x800C072
001c93 e0e6      	LDI  R30,LOW(6)
001c94 c025      	RJMP _0x800C07D
                 _0x800C072:
                +
001c95 91a0 0b83+LDS R26 , _WiFi_buf + ( 3 )
                 	__GETB2MN _WiFi_buf,3
001c97 34ac      	CPI  R26,LOW(0x4C)
001c98 f411      	BRNE _0x800C073
001c99 e0e7      	LDI  R30,LOW(7)
001c9a c01f      	RJMP _0x800C07D
                 _0x800C073:
001c9b e1ee      	LDI  R30,LOW(30)
001c9c 2ebe      	MOV  R11,R30
                 _0x800C06F:
                +
001c9d 91a0 0b82+LDS R26 , _WiFi_buf + ( 2 )
                 	__GETB2MN _WiFi_buf,2
001c9f 32af      	CPI  R26,LOW(0x2F)
001ca0 f441      	BRNE _0x800C075
                +
001ca1 91a0 0b83+LDS R26 , _WiFi_buf + ( 3 )
                 	__GETB2MN _WiFi_buf,3
001ca3 32a0      	CPI  R26,LOW(0x20)
001ca4 f421      	BRNE _0x800C075
                +
001ca5 91a0 0b84+LDS R26 , _WiFi_buf + ( 4 )
                 	__GETB2MN _WiFi_buf,4
001ca7 34a8      	CPI  R26,LOW(0x48)
001ca8 f009      	BREQ _0x800C076
                 _0x800C075:
001ca9 c002      	RJMP _0x800C074
                 _0x800C076:
001caa e1ee      	LDI  R30,LOW(30)
001cab c00e      	RJMP _0x800C07D
                 _0x800C074:
                +
001cac 91a0 0b82+LDS R26 , _WiFi_buf + ( 2 )
                 	__GETB2MN _WiFi_buf,2
001cae 30ad      	CPI  R26,LOW(0xD)
001caf f441      	BRNE _0x800C078
                +
001cb0 91a0 0b83+LDS R26 , _WiFi_buf + ( 3 )
                 	__GETB2MN _WiFi_buf,3
001cb2 30aa      	CPI  R26,LOW(0xA)
001cb3 f421      	BRNE _0x800C078
                +
001cb4 91a0 0b84+LDS R26 , _WiFi_buf + ( 4 )
                 	__GETB2MN _WiFi_buf,4
001cb6 30ad      	CPI  R26,LOW(0xD)
001cb7 f009      	BREQ _0x800C079
                 _0x800C078:
001cb8 c003      	RJMP _0x800C077
                 _0x800C079:
001cb9 e3e2      	LDI  R30,LOW(50)
                 _0x800C07D:
001cba 2ebe      	MOV  R11,R30
001cbb c01b      	RJMP _0x800C05F
                 _0x800C077:
001cbc 91a0 0b80 	LDS  R26,_WiFi_buf
001cbe 36a1      	CPI  R26,LOW(0x61)
001cbf f481      	BRNE _0x800C07B
                +
001cc0 91a0 0b81+LDS R26 , _WiFi_buf + ( 1 )
                 	__GETB2MN _WiFi_buf,1
001cc2 36a4      	CPI  R26,LOW(0x64)
001cc3 f461      	BRNE _0x800C07B
                +
001cc4 91a0 0b82+LDS R26 , _WiFi_buf + ( 2 )
                 	__GETB2MN _WiFi_buf,2
001cc6 37a9      	CPI  R26,LOW(0x79)
001cc7 f441      	BRNE _0x800C07B
                +
001cc8 91a0 0b83+LDS R26 , _WiFi_buf + ( 3 )
                 	__GETB2MN _WiFi_buf,3
001cca 30ad      	CPI  R26,LOW(0xD)
001ccb f421      	BRNE _0x800C07B
                +
001ccc 91a0 0b84+LDS R26 , _WiFi_buf + ( 4 )
                 	__GETB2MN _WiFi_buf,4
001cce 30aa      	CPI  R26,LOW(0xA)
001ccf f009      	BREQ _0x800C07C
                 _0x800C07B:
001cd0 c006      	RJMP _0x800C07A
                 _0x800C07C:
001cd1 e0e1      	LDI  R30,LOW(1)
001cd2 e0f0      	LDI  R31,HIGH(1)
001cd3 93e0 0c27 	STS  _WiFi_reset_flag,R30
001cd5 93f0 0c28 	STS  _WiFi_reset_flag+1,R31
                 _0x800C07A:
                 _0x800C05F:
                 ;    if(WiFi_answer_ID==5)
001cd7 e0e5      	LDI  R30,LOW(5)
001cd8 15eb      	CP   R30,R11
001cd9 f449      	BRNE _0x8B
                 ;    {
                 ;     //WiFi_Test++;
                 ;     WiFi_what_to_read=3;//next step
001cda e0e3      	LDI  R30,LOW(3)
001cdb 2ece      	MOV  R12,R30
                 ;     WiFi_symbol_counter=0;
001cdc 24ee      	CLR  R14
                 ;     //WiFi_Connection_Request[WiFi_Current_Connection]=1;//!!!!!!!!!!!!!!!!!!!!!!!!!!!!!!!!!!!!!!
                 ;     WiFi_Connection_CommandID[WiFi_Current_Connection]=0;//unknown for now
001cdd 2de9      	MOV  R30,R9
001cde e0f0      	LDI  R31,0
001cdf 5dee      	SUBI R30,LOW(-_WiFi_Connection_CommandID)
001ce0 4ff3      	SBCI R31,HIGH(-_WiFi_Connection_CommandID)
001ce1 e0a0      	LDI  R26,LOW(0)
001ce2 83a0      	STD  Z+0,R26
                 ;    }
                 ;    return;//next step
                 _0x8B:
001ce3 c1d4      	RJMP _0x12C
                 ;   }
                 ;   WiFi_what_to_read=5;//next step
                 _0x8A:
001ce4 e0e5      	LDI  R30,LOW(5)
001ce5 2ece      	MOV  R12,R30
                 ;  return;
001ce6 c1d1      	RJMP _0x12C
                 ;  case 3: //waiting for request
                 _0x89:
001ce7 30e3      	CPI  R30,LOW(0x3)
001ce8 e0a0      	LDI  R26,HIGH(0x3)
001ce9 07fa      	CPC  R31,R26
001cea f009      	BREQ PC+2
001ceb c0d6      	RJMP _0x8C
                 ;  if(WiFi_symbol_counter<6)//limit 6 symb
001cec e0e6      	LDI  R30,LOW(6)
001ced 16ee      	CP   R14,R30
001cee f008      	BRLO PC+2
001cef c0cb      	RJMP _0x8D
                 ;   {
                 ;    WiFi_symbol_counter++;
001cf0 94e3      	INC  R14
                 ;    WiFi_get_answer();
001cf1 24bb      	CLR  R11
                +
001cf2 91a0 0b82+LDS R26 , _WiFi_buf + ( 2 )
                 	__GETB2MN _WiFi_buf,2
001cf4 34af      	CPI  R26,LOW(0x4F)
001cf5 f441      	BRNE _0xC00C061
                +
001cf6 91a0 0b83+LDS R26 , _WiFi_buf + ( 3 )
                 	__GETB2MN _WiFi_buf,3
001cf8 34ab      	CPI  R26,LOW(0x4B)
001cf9 f421      	BRNE _0xC00C061
                +
001cfa 91a0 0b84+LDS R26 , _WiFi_buf + ( 4 )
                 	__GETB2MN _WiFi_buf,4
001cfc 30ad      	CPI  R26,LOW(0xD)
001cfd f009      	BREQ _0xC00C062
                 _0xC00C061:
001cfe c002      	RJMP _0xC00C060
                 _0xC00C062:
001cff e0e1      	LDI  R30,LOW(1)
001d00 c07c      	RJMP _0xC00C07D
                 _0xC00C060:
001d01 91a0 0b80 	LDS  R26,_WiFi_buf
001d03 34a5      	CPI  R26,LOW(0x45)
001d04 f441      	BRNE _0xC00C064
                +
001d05 91a0 0b81+LDS R26 , _WiFi_buf + ( 1 )
                 	__GETB2MN _WiFi_buf,1
001d07 35a2      	CPI  R26,LOW(0x52)
001d08 f421      	BRNE _0xC00C064
                +
001d09 91a0 0b82+LDS R26 , _WiFi_buf + ( 2 )
                 	__GETB2MN _WiFi_buf,2
001d0b 35a2      	CPI  R26,LOW(0x52)
001d0c f009      	BREQ _0xC00C065
                 _0xC00C064:
001d0d c002      	RJMP _0xC00C063
                 _0xC00C065:
001d0e e0e2      	LDI  R30,LOW(2)
001d0f c06d      	RJMP _0xC00C07D
                 _0xC00C063:
                +
001d10 91a0 0b82+LDS R26 , _WiFi_buf + ( 2 )
                 	__GETB2MN _WiFi_buf,2
001d12 30aa      	CPI  R26,LOW(0xA)
001d13 f441      	BRNE _0xC00C067
                +
001d14 91a0 0b83+LDS R26 , _WiFi_buf + ( 3 )
                 	__GETB2MN _WiFi_buf,3
001d16 33ae      	CPI  R26,LOW(0x3E)
001d17 f421      	BRNE _0xC00C067
                +
001d18 91a0 0b84+LDS R26 , _WiFi_buf + ( 4 )
                 	__GETB2MN _WiFi_buf,4
001d1a 32a0      	CPI  R26,LOW(0x20)
001d1b f009      	BREQ _0xC00C068
                 _0xC00C067:
001d1c c002      	RJMP _0xC00C066
                 _0xC00C068:
001d1d e0e3      	LDI  R30,LOW(3)
001d1e c05e      	RJMP _0xC00C07D
                 _0xC00C066:
001d1f 91a0 0b80 	LDS  R26,_WiFi_buf
001d21 34a9      	CPI  R26,LOW(0x49)
001d22 f461      	BRNE _0xC00C06A
                +
001d23 91a0 0b81+LDS R26 , _WiFi_buf + ( 1 )
                 	__GETB2MN _WiFi_buf,1
001d25 35a0      	CPI  R26,LOW(0x50)
001d26 f441      	BRNE _0xC00C06A
                +
001d27 91a0 0b82+LDS R26 , _WiFi_buf + ( 2 )
                 	__GETB2MN _WiFi_buf,2
001d29 34a4      	CPI  R26,LOW(0x44)
001d2a f421      	BRNE _0xC00C06A
                +
001d2b 91a0 0b83+LDS R26 , _WiFi_buf + ( 3 )
                 	__GETB2MN _WiFi_buf,3
001d2d 32ac      	CPI  R26,LOW(0x2C)
001d2e f009      	BREQ _0xC00C06B
                 _0xC00C06A:
001d2f c002      	RJMP _0xC00C069
                 _0xC00C06B:
001d30 e0e4      	LDI  R30,LOW(4)
001d31 c04b      	RJMP _0xC00C07D
                 _0xC00C069:
001d32 91a0 0b80 	LDS  R26,_WiFi_buf
001d34 34a7      	CPI  R26,LOW(0x47)
001d35 f481      	BRNE _0xC00C06D
                +
001d36 91a0 0b81+LDS R26 , _WiFi_buf + ( 1 )
                 	__GETB2MN _WiFi_buf,1
001d38 34a5      	CPI  R26,LOW(0x45)
001d39 f461      	BRNE _0xC00C06D
                +
001d3a 91a0 0b82+LDS R26 , _WiFi_buf + ( 2 )
                 	__GETB2MN _WiFi_buf,2
001d3c 35a4      	CPI  R26,LOW(0x54)
001d3d f441      	BRNE _0xC00C06D
                +
001d3e 91a0 0b83+LDS R26 , _WiFi_buf + ( 3 )
                 	__GETB2MN _WiFi_buf,3
001d40 32a0      	CPI  R26,LOW(0x20)
001d41 f421      	BRNE _0xC00C06D
                +
001d42 91a0 0b84+LDS R26 , _WiFi_buf + ( 4 )
                 	__GETB2MN _WiFi_buf,4
001d44 32af      	CPI  R26,LOW(0x2F)
001d45 f009      	BREQ _0xC00C06E
                 _0xC00C06D:
001d46 c002      	RJMP _0xC00C06C
                 _0xC00C06E:
001d47 e0e5      	LDI  R30,LOW(5)
001d48 c034      	RJMP _0xC00C07D
                 _0xC00C06C:
                +
001d49 91a0 0b82+LDS R26 , _WiFi_buf + ( 2 )
                 	__GETB2MN _WiFi_buf,2
001d4b 33af      	CPI  R26,LOW(0x3F)
001d4c f421      	BRNE _0xC00C070
                +
001d4d 91a0 0b84+LDS R26 , _WiFi_buf + ( 4 )
                 	__GETB2MN _WiFi_buf,4
001d4f 33ad      	CPI  R26,LOW(0x3D)
001d50 f009      	BREQ _0xC00C071
                 _0xC00C070:
001d51 c00e      	RJMP _0xC00C06F
                 _0xC00C071:
                +
001d52 91a0 0b83+LDS R26 , _WiFi_buf + ( 3 )
                 	__GETB2MN _WiFi_buf,3
001d54 35a4      	CPI  R26,LOW(0x54)
001d55 f411      	BRNE _0xC00C072
001d56 e0e6      	LDI  R30,LOW(6)
001d57 c025      	RJMP _0xC00C07D
                 _0xC00C072:
                +
001d58 91a0 0b83+LDS R26 , _WiFi_buf + ( 3 )
                 	__GETB2MN _WiFi_buf,3
001d5a 34ac      	CPI  R26,LOW(0x4C)
001d5b f411      	BRNE _0xC00C073
001d5c e0e7      	LDI  R30,LOW(7)
001d5d c01f      	RJMP _0xC00C07D
                 _0xC00C073:
001d5e e1ee      	LDI  R30,LOW(30)
001d5f 2ebe      	MOV  R11,R30
                 _0xC00C06F:
                +
001d60 91a0 0b82+LDS R26 , _WiFi_buf + ( 2 )
                 	__GETB2MN _WiFi_buf,2
001d62 32af      	CPI  R26,LOW(0x2F)
001d63 f441      	BRNE _0xC00C075
                +
001d64 91a0 0b83+LDS R26 , _WiFi_buf + ( 3 )
                 	__GETB2MN _WiFi_buf,3
001d66 32a0      	CPI  R26,LOW(0x20)
001d67 f421      	BRNE _0xC00C075
                +
001d68 91a0 0b84+LDS R26 , _WiFi_buf + ( 4 )
                 	__GETB2MN _WiFi_buf,4
001d6a 34a8      	CPI  R26,LOW(0x48)
001d6b f009      	BREQ _0xC00C076
                 _0xC00C075:
001d6c c002      	RJMP _0xC00C074
                 _0xC00C076:
001d6d e1ee      	LDI  R30,LOW(30)
001d6e c00e      	RJMP _0xC00C07D
                 _0xC00C074:
                +
001d6f 91a0 0b82+LDS R26 , _WiFi_buf + ( 2 )
                 	__GETB2MN _WiFi_buf,2
001d71 30ad      	CPI  R26,LOW(0xD)
001d72 f441      	BRNE _0xC00C078
                +
001d73 91a0 0b83+LDS R26 , _WiFi_buf + ( 3 )
                 	__GETB2MN _WiFi_buf,3
001d75 30aa      	CPI  R26,LOW(0xA)
001d76 f421      	BRNE _0xC00C078
                +
001d77 91a0 0b84+LDS R26 , _WiFi_buf + ( 4 )
                 	__GETB2MN _WiFi_buf,4
001d79 30ad      	CPI  R26,LOW(0xD)
001d7a f009      	BREQ _0xC00C079
                 _0xC00C078:
001d7b c003      	RJMP _0xC00C077
                 _0xC00C079:
001d7c e3e2      	LDI  R30,LOW(50)
                 _0xC00C07D:
001d7d 2ebe      	MOV  R11,R30
001d7e c01b      	RJMP _0xC00C05F
                 _0xC00C077:
001d7f 91a0 0b80 	LDS  R26,_WiFi_buf
001d81 36a1      	CPI  R26,LOW(0x61)
001d82 f481      	BRNE _0xC00C07B
                +
001d83 91a0 0b81+LDS R26 , _WiFi_buf + ( 1 )
                 	__GETB2MN _WiFi_buf,1
001d85 36a4      	CPI  R26,LOW(0x64)
001d86 f461      	BRNE _0xC00C07B
                +
001d87 91a0 0b82+LDS R26 , _WiFi_buf + ( 2 )
                 	__GETB2MN _WiFi_buf,2
001d89 37a9      	CPI  R26,LOW(0x79)
001d8a f441      	BRNE _0xC00C07B
                +
001d8b 91a0 0b83+LDS R26 , _WiFi_buf + ( 3 )
                 	__GETB2MN _WiFi_buf,3
001d8d 30ad      	CPI  R26,LOW(0xD)
001d8e f421      	BRNE _0xC00C07B
                +
001d8f 91a0 0b84+LDS R26 , _WiFi_buf + ( 4 )
                 	__GETB2MN _WiFi_buf,4
001d91 30aa      	CPI  R26,LOW(0xA)
001d92 f009      	BREQ _0xC00C07C
                 _0xC00C07B:
001d93 c006      	RJMP _0xC00C07A
                 _0xC00C07C:
001d94 e0e1      	LDI  R30,LOW(1)
001d95 e0f0      	LDI  R31,HIGH(1)
001d96 93e0 0c27 	STS  _WiFi_reset_flag,R30
001d98 93f0 0c28 	STS  _WiFi_reset_flag+1,R31
                 _0xC00C07A:
                 _0xC00C05F:
                 ;    if(WiFi_answer_ID==30)//html or button
001d9a e1ee      	LDI  R30,LOW(30)
001d9b 15eb      	CP   R30,R11
001d9c f471      	BRNE _0x8E
                 ;    {
                 ;     //do smth in main
                 ;     WiFi_Connection_CommandID[WiFi_Current_Connection]=WiFi_answer_ID;
001d9d 2de9      	MOV  R30,R9
001d9e e0f0      	LDI  R31,0
001d9f 5dee      	SUBI R30,LOW(-_WiFi_Connection_CommandID)
001da0 4ff3      	SBCI R31,HIGH(-_WiFi_Connection_CommandID)
001da1 82b0      	ST   Z,R11
                 ;     WiFi_Connection_Request[WiFi_Current_Connection]=1;
001da2 2de9      	MOV  R30,R9
001da3 e0f0      	LDI  R31,0
001da4 57e9      	SUBI R30,LOW(-_WiFi_Connection_Request)
001da5 4ff4      	SBCI R31,HIGH(-_WiFi_Connection_Request)
001da6 e0a1      	LDI  R26,LOW(1)
001da7 83a0      	STD  Z+0,R26
                 ;     WiFi_what_to_read=5;//next step(getting value)
001da8 e0e5      	LDI  R30,LOW(5)
001da9 2ece      	MOV  R12,R30
                 ;     return;
001daa c10d      	RJMP _0x12C
                 ;    }
                 ;    if(WiFi_answer_ID>=6&&WiFi_answer_ID<=12)//parameters set
                 _0x8E:
001dab e0e6      	LDI  R30,LOW(6)
001dac 16be      	CP   R11,R30
001dad f018      	BRLO _0x90
001dae e0ec      	LDI  R30,LOW(12)
001daf 15eb      	CP   R30,R11
001db0 f408      	BRSH _0x91
                 _0x90:
001db1 c008      	RJMP _0x8F
                 _0x91:
                 ;    {
                 ;     WiFi_what_to_read=4;//next step(getting value)
001db2 e0e4      	LDI  R30,LOW(4)
001db3 2ece      	MOV  R12,R30
                 ;     WiFi_symbol_counter=0;
001db4 24ee      	CLR  R14
                 ;     WiFi_Connection_CommandID[WiFi_Current_Connection]=WiFi_answer_ID;
001db5 2de9      	MOV  R30,R9
001db6 e0f0      	LDI  R31,0
001db7 5dee      	SUBI R30,LOW(-_WiFi_Connection_CommandID)
001db8 4ff3      	SBCI R31,HIGH(-_WiFi_Connection_CommandID)
001db9 82b0      	ST   Z,R11
                 ;    }
                 ;    return;//continue
                 _0x8F:
001dba c0fd      	RJMP _0x12C
                 ;   }
                 ;  WiFi_Connection_Request[WiFi_Current_Connection]=1;//unknown at all but should be closed in main
                 _0x8D:
001dbb 2de9      	MOV  R30,R9
001dbc e0f0      	LDI  R31,0
001dbd 57e9      	SUBI R30,LOW(-_WiFi_Connection_Request)
001dbe 4ff4      	SBCI R31,HIGH(-_WiFi_Connection_Request)
001dbf e0a1      	LDI  R26,LOW(1)
001dc0 83a0      	STD  Z+0,R26
                 ;  break;
001dc1 c0f3      	RJMP _0x80
                 ;  case 4: //waiting for request value
                 _0x8C:
001dc2 30e4      	CPI  R30,LOW(0x4)
001dc3 e0a0      	LDI  R26,HIGH(0x4)
001dc4 07fa      	CPC  R31,R26
001dc5 f5d9      	BRNE _0x92
                 ;   if(WiFi_symbol_counter<30)//limit 30 symb
001dc6 e1ee      	LDI  R30,LOW(30)
001dc7 16ee      	CP   R14,R30
001dc8 f520      	BRSH _0x93
                 ;   {
                 ;    if(data==' ')//' '
001dc9 3210      	CPI  R17,32
001dca f4a1      	BRNE _0x94
                 ;    {
                 ;     WiFi_Request_Value[WiFi_Current_Connection][WiFi_symbol_counter]=0;//close char string
001dcb 2de9      	MOV  R30,R9
001dcc e1ae      	LDI  R26,LOW(30)
001dcd 9fea      	MUL  R30,R26
001dce 01f0      	MOVW R30,R0
001dcf 57e4      	SUBI R30,LOW(-_WiFi_Request_Value)
001dd0 4ff4      	SBCI R31,HIGH(-_WiFi_Request_Value)
001dd1 01df      	MOVW R26,R30
001dd2 27ee      	CLR  R30
001dd3 0dae      	ADD  R26,R14
001dd4 1fbe      	ADC  R27,R30
001dd5 93ec      	ST   X,R30
                 ;     WiFi_Connection_Request[WiFi_Current_Connection]=1;
001dd6 2de9      	MOV  R30,R9
001dd7 e0f0      	LDI  R31,0
001dd8 57e9      	SUBI R30,LOW(-_WiFi_Connection_Request)
001dd9 4ff4      	SBCI R31,HIGH(-_WiFi_Connection_Request)
001dda e0a1      	LDI  R26,LOW(1)
001ddb 83a0      	STD  Z+0,R26
                 ;     //set par and do anything in main
                 ;     WiFi_what_to_read=5;//next step(getting value)
001ddc e0e5      	LDI  R30,LOW(5)
001ddd 2ece      	MOV  R12,R30
                 ;     return;
001dde c0d9      	RJMP _0x12C
                 ;    }
                 ;    else
                 _0x94:
                 ;    {
                 ;     WiFi_Request_Value[WiFi_Current_Connection][WiFi_symbol_counter]=data;
001ddf 2de9      	MOV  R30,R9
001de0 e1ae      	LDI  R26,LOW(30)
001de1 9fea      	MUL  R30,R26
001de2 01f0      	MOVW R30,R0
001de3 57e4      	SUBI R30,LOW(-_WiFi_Request_Value)
001de4 4ff4      	SBCI R31,HIGH(-_WiFi_Request_Value)
001de5 01df      	MOVW R26,R30
001de6 2dee      	MOV  R30,R14
001de7 e0f0      	LDI  R31,0
001de8 0fea      	ADD  R30,R26
001de9 1ffb      	ADC  R31,R27
001dea 8310      	ST   Z,R17
                 ;    }
                 ;    WiFi_symbol_counter++;
001deb 94e3      	INC  R14
                 ;    return;//further
001dec c0cb      	RJMP _0x12C
                 ;   }
                 ;   WiFi_Connection_Request[WiFi_Current_Connection]=1;
                 _0x93:
001ded 2de9      	MOV  R30,R9
001dee e0f0      	LDI  R31,0
001def 57e9      	SUBI R30,LOW(-_WiFi_Connection_Request)
001df0 4ff4      	SBCI R31,HIGH(-_WiFi_Connection_Request)
001df1 e0a1      	LDI  R26,LOW(1)
001df2 83a0      	STD  Z+0,R26
                 ;   WiFi_Request_Value[WiFi_Current_Connection][WiFi_symbol_counter]=0;
001df3 2de9      	MOV  R30,R9
001df4 e1ae      	LDI  R26,LOW(30)
001df5 9fea      	MUL  R30,R26
001df6 01f0      	MOVW R30,R0
001df7 57e4      	SUBI R30,LOW(-_WiFi_Request_Value)
001df8 4ff4      	SBCI R31,HIGH(-_WiFi_Request_Value)
001df9 01df      	MOVW R26,R30
001dfa 27ee      	CLR  R30
001dfb 0dae      	ADD  R26,R14
001dfc 1fbe      	ADC  R27,R30
001dfd 93ec      	ST   X,R30
                 ;   WiFi_what_to_read=5;//next step
001dfe e0e5      	LDI  R30,LOW(5)
001dff 2ece      	MOV  R12,R30
                 ;   return;
001e00 c0b7      	RJMP _0x12C
                 ;  case 5: //waiting for the end of semiuseless crap
                 _0x92:
001e01 30e5      	CPI  R30,LOW(0x5)
001e02 e0a0      	LDI  R26,HIGH(0x5)
001e03 07fa      	CPC  R31,R26
001e04 f009      	BREQ PC+2
001e05 c0af      	RJMP _0x80
                 ;   WiFi_get_answer();//if WiFi_buf contains an answer then set the answer_ID
001e06 24bb      	CLR  R11
                +
001e07 91a0 0b82+LDS R26 , _WiFi_buf + ( 2 )
                 	__GETB2MN _WiFi_buf,2
001e09 34af      	CPI  R26,LOW(0x4F)
001e0a f441      	BRNE _0x1000C061
                +
001e0b 91a0 0b83+LDS R26 , _WiFi_buf + ( 3 )
                 	__GETB2MN _WiFi_buf,3
001e0d 34ab      	CPI  R26,LOW(0x4B)
001e0e f421      	BRNE _0x1000C061
                +
001e0f 91a0 0b84+LDS R26 , _WiFi_buf + ( 4 )
                 	__GETB2MN _WiFi_buf,4
001e11 30ad      	CPI  R26,LOW(0xD)
001e12 f009      	BREQ _0x1000C062
                 _0x1000C061:
001e13 c002      	RJMP _0x1000C060
                 _0x1000C062:
001e14 e0e1      	LDI  R30,LOW(1)
001e15 c07c      	RJMP _0x1000C07D
                 _0x1000C060:
001e16 91a0 0b80 	LDS  R26,_WiFi_buf
001e18 34a5      	CPI  R26,LOW(0x45)
001e19 f441      	BRNE _0x1000C064
                +
001e1a 91a0 0b81+LDS R26 , _WiFi_buf + ( 1 )
                 	__GETB2MN _WiFi_buf,1
001e1c 35a2      	CPI  R26,LOW(0x52)
001e1d f421      	BRNE _0x1000C064
                +
001e1e 91a0 0b82+LDS R26 , _WiFi_buf + ( 2 )
                 	__GETB2MN _WiFi_buf,2
001e20 35a2      	CPI  R26,LOW(0x52)
001e21 f009      	BREQ _0x1000C065
                 _0x1000C064:
001e22 c002      	RJMP _0x1000C063
                 _0x1000C065:
001e23 e0e2      	LDI  R30,LOW(2)
001e24 c06d      	RJMP _0x1000C07D
                 _0x1000C063:
                +
001e25 91a0 0b82+LDS R26 , _WiFi_buf + ( 2 )
                 	__GETB2MN _WiFi_buf,2
001e27 30aa      	CPI  R26,LOW(0xA)
001e28 f441      	BRNE _0x1000C067
                +
001e29 91a0 0b83+LDS R26 , _WiFi_buf + ( 3 )
                 	__GETB2MN _WiFi_buf,3
001e2b 33ae      	CPI  R26,LOW(0x3E)
001e2c f421      	BRNE _0x1000C067
                +
001e2d 91a0 0b84+LDS R26 , _WiFi_buf + ( 4 )
                 	__GETB2MN _WiFi_buf,4
001e2f 32a0      	CPI  R26,LOW(0x20)
001e30 f009      	BREQ _0x1000C068
                 _0x1000C067:
001e31 c002      	RJMP _0x1000C066
                 _0x1000C068:
001e32 e0e3      	LDI  R30,LOW(3)
001e33 c05e      	RJMP _0x1000C07D
                 _0x1000C066:
001e34 91a0 0b80 	LDS  R26,_WiFi_buf
001e36 34a9      	CPI  R26,LOW(0x49)
001e37 f461      	BRNE _0x1000C06A
                +
001e38 91a0 0b81+LDS R26 , _WiFi_buf + ( 1 )
                 	__GETB2MN _WiFi_buf,1
001e3a 35a0      	CPI  R26,LOW(0x50)
001e3b f441      	BRNE _0x1000C06A
                +
001e3c 91a0 0b82+LDS R26 , _WiFi_buf + ( 2 )
                 	__GETB2MN _WiFi_buf,2
001e3e 34a4      	CPI  R26,LOW(0x44)
001e3f f421      	BRNE _0x1000C06A
                +
001e40 91a0 0b83+LDS R26 , _WiFi_buf + ( 3 )
                 	__GETB2MN _WiFi_buf,3
001e42 32ac      	CPI  R26,LOW(0x2C)
001e43 f009      	BREQ _0x1000C06B
                 _0x1000C06A:
001e44 c002      	RJMP _0x1000C069
                 _0x1000C06B:
001e45 e0e4      	LDI  R30,LOW(4)
001e46 c04b      	RJMP _0x1000C07D
                 _0x1000C069:
001e47 91a0 0b80 	LDS  R26,_WiFi_buf
001e49 34a7      	CPI  R26,LOW(0x47)
001e4a f481      	BRNE _0x1000C06D
                +
001e4b 91a0 0b81+LDS R26 , _WiFi_buf + ( 1 )
                 	__GETB2MN _WiFi_buf,1
001e4d 34a5      	CPI  R26,LOW(0x45)
001e4e f461      	BRNE _0x1000C06D
                +
001e4f 91a0 0b82+LDS R26 , _WiFi_buf + ( 2 )
                 	__GETB2MN _WiFi_buf,2
001e51 35a4      	CPI  R26,LOW(0x54)
001e52 f441      	BRNE _0x1000C06D
                +
001e53 91a0 0b83+LDS R26 , _WiFi_buf + ( 3 )
                 	__GETB2MN _WiFi_buf,3
001e55 32a0      	CPI  R26,LOW(0x20)
001e56 f421      	BRNE _0x1000C06D
                +
001e57 91a0 0b84+LDS R26 , _WiFi_buf + ( 4 )
                 	__GETB2MN _WiFi_buf,4
001e59 32af      	CPI  R26,LOW(0x2F)
001e5a f009      	BREQ _0x1000C06E
                 _0x1000C06D:
001e5b c002      	RJMP _0x1000C06C
                 _0x1000C06E:
001e5c e0e5      	LDI  R30,LOW(5)
001e5d c034      	RJMP _0x1000C07D
                 _0x1000C06C:
                +
001e5e 91a0 0b82+LDS R26 , _WiFi_buf + ( 2 )
                 	__GETB2MN _WiFi_buf,2
001e60 33af      	CPI  R26,LOW(0x3F)
001e61 f421      	BRNE _0x1000C070
                +
001e62 91a0 0b84+LDS R26 , _WiFi_buf + ( 4 )
                 	__GETB2MN _WiFi_buf,4
001e64 33ad      	CPI  R26,LOW(0x3D)
001e65 f009      	BREQ _0x1000C071
                 _0x1000C070:
001e66 c00e      	RJMP _0x1000C06F
                 _0x1000C071:
                +
001e67 91a0 0b83+LDS R26 , _WiFi_buf + ( 3 )
                 	__GETB2MN _WiFi_buf,3
001e69 35a4      	CPI  R26,LOW(0x54)
001e6a f411      	BRNE _0x1000C072
001e6b e0e6      	LDI  R30,LOW(6)
001e6c c025      	RJMP _0x1000C07D
                 _0x1000C072:
                +
001e6d 91a0 0b83+LDS R26 , _WiFi_buf + ( 3 )
                 	__GETB2MN _WiFi_buf,3
001e6f 34ac      	CPI  R26,LOW(0x4C)
001e70 f411      	BRNE _0x1000C073
001e71 e0e7      	LDI  R30,LOW(7)
001e72 c01f      	RJMP _0x1000C07D
                 _0x1000C073:
001e73 e1ee      	LDI  R30,LOW(30)
001e74 2ebe      	MOV  R11,R30
                 _0x1000C06F:
                +
001e75 91a0 0b82+LDS R26 , _WiFi_buf + ( 2 )
                 	__GETB2MN _WiFi_buf,2
001e77 32af      	CPI  R26,LOW(0x2F)
001e78 f441      	BRNE _0x1000C075
                +
001e79 91a0 0b83+LDS R26 , _WiFi_buf + ( 3 )
                 	__GETB2MN _WiFi_buf,3
001e7b 32a0      	CPI  R26,LOW(0x20)
001e7c f421      	BRNE _0x1000C075
                +
001e7d 91a0 0b84+LDS R26 , _WiFi_buf + ( 4 )
                 	__GETB2MN _WiFi_buf,4
001e7f 34a8      	CPI  R26,LOW(0x48)
001e80 f009      	BREQ _0x1000C076
                 _0x1000C075:
001e81 c002      	RJMP _0x1000C074
                 _0x1000C076:
001e82 e1ee      	LDI  R30,LOW(30)
001e83 c00e      	RJMP _0x1000C07D
                 _0x1000C074:
                +
001e84 91a0 0b82+LDS R26 , _WiFi_buf + ( 2 )
                 	__GETB2MN _WiFi_buf,2
001e86 30ad      	CPI  R26,LOW(0xD)
001e87 f441      	BRNE _0x1000C078
                +
001e88 91a0 0b83+LDS R26 , _WiFi_buf + ( 3 )
                 	__GETB2MN _WiFi_buf,3
001e8a 30aa      	CPI  R26,LOW(0xA)
001e8b f421      	BRNE _0x1000C078
                +
001e8c 91a0 0b84+LDS R26 , _WiFi_buf + ( 4 )
                 	__GETB2MN _WiFi_buf,4
001e8e 30ad      	CPI  R26,LOW(0xD)
001e8f f009      	BREQ _0x1000C079
                 _0x1000C078:
001e90 c003      	RJMP _0x1000C077
                 _0x1000C079:
001e91 e3e2      	LDI  R30,LOW(50)
                 _0x1000C07D:
001e92 2ebe      	MOV  R11,R30
001e93 c01b      	RJMP _0x1000C05F
                 _0x1000C077:
001e94 91a0 0b80 	LDS  R26,_WiFi_buf
001e96 36a1      	CPI  R26,LOW(0x61)
001e97 f481      	BRNE _0x1000C07B
                +
001e98 91a0 0b81+LDS R26 , _WiFi_buf + ( 1 )
                 	__GETB2MN _WiFi_buf,1
001e9a 36a4      	CPI  R26,LOW(0x64)
001e9b f461      	BRNE _0x1000C07B
                +
001e9c 91a0 0b82+LDS R26 , _WiFi_buf + ( 2 )
                 	__GETB2MN _WiFi_buf,2
001e9e 37a9      	CPI  R26,LOW(0x79)
001e9f f441      	BRNE _0x1000C07B
                +
001ea0 91a0 0b83+LDS R26 , _WiFi_buf + ( 3 )
                 	__GETB2MN _WiFi_buf,3
001ea2 30ad      	CPI  R26,LOW(0xD)
001ea3 f421      	BRNE _0x1000C07B
                +
001ea4 91a0 0b84+LDS R26 , _WiFi_buf + ( 4 )
                 	__GETB2MN _WiFi_buf,4
001ea6 30aa      	CPI  R26,LOW(0xA)
001ea7 f009      	BREQ _0x1000C07C
                 _0x1000C07B:
001ea8 c006      	RJMP _0x1000C07A
                 _0x1000C07C:
001ea9 e0e1      	LDI  R30,LOW(1)
001eaa e0f0      	LDI  R31,HIGH(1)
001eab 93e0 0c27 	STS  _WiFi_reset_flag,R30
001ead 93f0 0c28 	STS  _WiFi_reset_flag+1,R31
                 _0x1000C07A:
                 _0x1000C05F:
                 ;   if(WiFi_answer_ID==50)
001eaf e3e2      	LDI  R30,LOW(50)
001eb0 15eb      	CP   R30,R11
001eb1 f411      	BRNE _0x97
                 ;   {
                 ;     WiFi_Busy=0;
001eb2 24dd      	CLR  R13
                 ;     break;
001eb3 c001      	RJMP _0x80
                 ;   }
                 ;   return;
                 _0x97:
001eb4 c003      	RJMP _0x12C
                 ; }
                 _0x80:
                 ; WiFi_what_to_read=1;//always waiting!!!!
001eb5 e0e1      	LDI  R30,LOW(1)
001eb6 2ece      	MOV  R12,R30
                 ; WiFi_symbol_counter=0;
001eb7 24ee      	CLR  R14
                 ; #endif
                 ;}
                 _0x12C:
001eb8 9119      	LD   R17,Y+
001eb9 91e9      	LD   R30,Y+
001eba bfef      	OUT  SREG,R30
001ebb 91f9      	LD   R31,Y+
001ebc 91e9      	LD   R30,Y+
001ebd 91b9      	LD   R27,Y+
001ebe 91a9      	LD   R26,Y+
001ebf 9019      	LD   R1,Y+
001ec0 9009      	LD   R0,Y+
001ec1 9518      	RETI
                 ; .FEND
                 ;
                 ;
                 ;//WiFi---------------------------------------------------------------------------------------------------------
                 ;void WiFi_send_command(unsigned char id, unsigned char Connection, unsigned int Send_N)
                 ;{
                 _WiFi_send_command:
                 ; .FSTART _WiFi_send_command
                 ; char str[11];
                 ; switch(id)
001ec2 93ba      	ST   -Y,R27
001ec3 93aa      	ST   -Y,R26
001ec4 972b      	SBIW R28,11
                 ;	id -> Y+14
                 ;	Connection -> Y+13
                 ;	Send_N -> Y+11
                 ;	str -> Y+0
001ec5 85ee      	LDD  R30,Y+14
001ec6 e0f0      	LDI  R31,0
                 ; {
                 ;  case 0: //reset
001ec7 9730      	SBIW R30,0
001ec8 f431      	BRNE _0x9B
                 ;  putstr(1,"AT+RST");
001ec9 e0e1      	LDI  R30,LOW(1)
001eca 93ea      	ST   -Y,R30
                +
001ecb e0a0     +LDI R26 , LOW ( _0x9C + ( 0 ) )
001ecc e0ba     +LDI R27 , HIGH ( _0x9C + ( 0 ) )
                 	__POINTW2MN _0x9C,0
001ecd d26d      	RCALL _putstr
                 ;  break;
001ece c078      	RJMP _0x9A
                 ;  case 1: //echo off
                 _0x9B:
001ecf 30e1      	CPI  R30,LOW(0x1)
001ed0 e0a0      	LDI  R26,HIGH(0x1)
001ed1 07fa      	CPC  R31,R26
001ed2 f431      	BRNE _0x9D
                 ;  putstr(1,"ATE0");
001ed3 e0e1      	LDI  R30,LOW(1)
001ed4 93ea      	ST   -Y,R30
                +
001ed5 e0a7     +LDI R26 , LOW ( _0x9C + ( 7 ) )
001ed6 e0ba     +LDI R27 , HIGH ( _0x9C + ( 7 ) )
                 	__POINTW2MN _0x9C,7
001ed7 d263      	RCALL _putstr
                 ;  break;
001ed8 c06e      	RJMP _0x9A
                 ;  case 2: //set current softAP ip addr
                 _0x9D:
001ed9 30e2      	CPI  R30,LOW(0x2)
001eda e0a0      	LDI  R26,HIGH(0x2)
001edb 07fa      	CPC  R31,R26
001edc f431      	BRNE _0x9E
                 ;  putstr(1,"AT+CIPAP_CUR=\"192.168.0.100\"");
001edd e0e1      	LDI  R30,LOW(1)
001ede 93ea      	ST   -Y,R30
                +
001edf e0ac     +LDI R26 , LOW ( _0x9C + ( 12 ) )
001ee0 e0ba     +LDI R27 , HIGH ( _0x9C + ( 12 ) )
                 	__POINTW2MN _0x9C,12
001ee1 d259      	RCALL _putstr
                 ;  break;
001ee2 c064      	RJMP _0x9A
                 ;  case 3: //wifi name and password(none for now)
                 _0x9E:
001ee3 30e3      	CPI  R30,LOW(0x3)
001ee4 e0a0      	LDI  R26,HIGH(0x3)
001ee5 07fa      	CPC  R31,R26
001ee6 f431      	BRNE _0x9F
                 ;  putstr(1,"AT+CWSAP_CUR=\"2560DEMO\",\"\",1,0,1,0");
001ee7 e0e1      	LDI  R30,LOW(1)
001ee8 93ea      	ST   -Y,R30
                +
001ee9 e2a9     +LDI R26 , LOW ( _0x9C + ( 41 ) )
001eea e0ba     +LDI R27 , HIGH ( _0x9C + ( 41 ) )
                 	__POINTW2MN _0x9C,41
001eeb d24f      	RCALL _putstr
                 ;  break;
001eec c05a      	RJMP _0x9A
                 ;  case 4: //mode 2 softAP
                 _0x9F:
001eed 30e4      	CPI  R30,LOW(0x4)
001eee e0a0      	LDI  R26,HIGH(0x4)
001eef 07fa      	CPC  R31,R26
001ef0 f431      	BRNE _0xA0
                 ;  putstr(1,"AT+CWMODE=2");
001ef1 e0e1      	LDI  R30,LOW(1)
001ef2 93ea      	ST   -Y,R30
                +
001ef3 e4ac     +LDI R26 , LOW ( _0x9C + ( 76 ) )
001ef4 e0ba     +LDI R27 , HIGH ( _0x9C + ( 76 ) )
                 	__POINTW2MN _0x9C,76
001ef5 d245      	RCALL _putstr
                 ;  break;
001ef6 c050      	RJMP _0x9A
                 ;  case 5: //multi access(have to be for a server}
                 _0xA0:
001ef7 30e5      	CPI  R30,LOW(0x5)
001ef8 e0a0      	LDI  R26,HIGH(0x5)
001ef9 07fa      	CPC  R31,R26
001efa f431      	BRNE _0xA1
                 ;  putstr(1,"AT+CIPMUX=1");
001efb e0e1      	LDI  R30,LOW(1)
001efc 93ea      	ST   -Y,R30
                +
001efd e5a8     +LDI R26 , LOW ( _0x9C + ( 88 ) )
001efe e0ba     +LDI R27 , HIGH ( _0x9C + ( 88 ) )
                 	__POINTW2MN _0x9C,88
001eff d23b      	RCALL _putstr
                 ;  break;
001f00 c046      	RJMP _0x9A
                 ;  case 6: //server start
                 _0xA1:
001f01 30e6      	CPI  R30,LOW(0x6)
001f02 e0a0      	LDI  R26,HIGH(0x6)
001f03 07fa      	CPC  R31,R26
001f04 f431      	BRNE _0xA2
                 ;  putstr(1,"AT+CIPSERVER=1,80");
001f05 e0e1      	LDI  R30,LOW(1)
001f06 93ea      	ST   -Y,R30
                +
001f07 e6a4     +LDI R26 , LOW ( _0x9C + ( 100 ) )
001f08 e0ba     +LDI R27 , HIGH ( _0x9C + ( 100 ) )
                 	__POINTW2MN _0x9C,100
001f09 d231      	RCALL _putstr
                 ;  break;
001f0a c03c      	RJMP _0x9A
                 ;  case 7: //close an ip connection IPC_N 0-4
                 _0xA2:
001f0b 30e7      	CPI  R30,LOW(0x7)
001f0c e0a0      	LDI  R26,HIGH(0x7)
001f0d 07fa      	CPC  R31,R26
001f0e f449      	BRNE _0xA3
                 ;  putstr(1,"AT+CIPCLOSE=");
001f0f e0e1      	LDI  R30,LOW(1)
001f10 93ea      	ST   -Y,R30
                +
001f11 e7a6     +LDI R26 , LOW ( _0x9C + ( 118 ) )
001f12 e0ba     +LDI R27 , HIGH ( _0x9C + ( 118 ) )
                 	__POINTW2MN _0x9C,118
001f13 d227      	RCALL _putstr
                 ;  putchar1(Connection+48);//ascii or IPC_N+48
001f14 85ad      	LDD  R26,Y+13
001f15 5da0      	SUBI R26,-LOW(48)
001f16 d21a      	RCALL _putchar1
                 ;  break;
001f17 c02f      	RJMP _0x9A
                 ;  case 8: //send to WiFi_Con_N , WiFi_Send_N symbols
                 _0xA3:
001f18 30e8      	CPI  R30,LOW(0x8)
001f19 e0a0      	LDI  R26,HIGH(0x8)
001f1a 07fa      	CPC  R31,R26
001f1b f4b1      	BRNE _0xA4
                 ;  putstr(1,"AT+CIPSEND=");
001f1c e0e1      	LDI  R30,LOW(1)
001f1d 93ea      	ST   -Y,R30
                +
001f1e e8a3     +LDI R26 , LOW ( _0x9C + ( 131 ) )
001f1f e0ba     +LDI R27 , HIGH ( _0x9C + ( 131 ) )
                 	__POINTW2MN _0x9C,131
001f20 d21a      	RCALL _putstr
                 ;  putchar1(Connection+48);
001f21 85ad      	LDD  R26,Y+13
001f22 5da0      	SUBI R26,-LOW(48)
001f23 d20d      	RCALL _putchar1
                 ;  putchar1(',');
001f24 e2ac      	LDI  R26,LOW(44)
001f25 d20b      	RCALL _putchar1
                 ;  IntToStr(str,Send_N);
001f26 01fe      	MOVW R30,R28
001f27 93fa      	ST   -Y,R31
001f28 93ea      	ST   -Y,R30
001f29 85ad      	LDD  R26,Y+13
001f2a 85be      	LDD  R27,Y+13+1
001f2b d23b      	RCALL _IntToStr
                 ;  putstr(1,str);
001f2c e0e1      	LDI  R30,LOW(1)
001f2d 93ea      	ST   -Y,R30
001f2e 01de      	MOVW R26,R28
001f2f 9611      	ADIW R26,1
001f30 d20a      	RCALL _putstr
                 ;  break;
001f31 c015      	RJMP _0x9A
                 ;  case 9: //baudrate CURRENT not saved in eeprom
                 _0xA4:
001f32 30e9      	CPI  R30,LOW(0x9)
001f33 e0a0      	LDI  R26,HIGH(0x9)
001f34 07fa      	CPC  R31,R26
001f35 f431      	BRNE _0xA5
                 ;  putstr(1,"AT+UART_CUR=9600,8,1,0,0");
001f36 e0e1      	LDI  R30,LOW(1)
001f37 93ea      	ST   -Y,R30
                +
001f38 e8af     +LDI R26 , LOW ( _0x9C + ( 143 ) )
001f39 e0ba     +LDI R27 , HIGH ( _0x9C + ( 143 ) )
                 	__POINTW2MN _0x9C,143
001f3a d200      	RCALL _putstr
                 ;  break;
001f3b c00b      	RJMP _0x9A
                 ;  case 10:
                 _0xA5:
001f3c 30ea      	CPI  R30,LOW(0xA)
001f3d e0a0      	LDI  R26,HIGH(0xA)
001f3e 07fa      	CPC  R31,R26
001f3f f431      	BRNE _0xA7
                 ;  putstr(1,"AT+UART_CUR=115200,8,1,0,0");
001f40 e0e1      	LDI  R30,LOW(1)
001f41 93ea      	ST   -Y,R30
                +
001f42 eaa8     +LDI R26 , LOW ( _0x9C + ( 168 ) )
001f43 e0ba     +LDI R27 , HIGH ( _0x9C + ( 168 ) )
                 	__POINTW2MN _0x9C,168
001f44 d1f6      	RCALL _putstr
                 ;  break;
001f45 c001      	RJMP _0x9A
                 ;  default: return;
                 _0xA7:
001f46 c004      	RJMP _0x2040005
                 ; }
                 _0x9A:
                 ; putchar1(13);
001f47 e0ad      	LDI  R26,LOW(13)
001f48 d1e8      	RCALL _putchar1
                 ; putchar1(10);
001f49 e0aa      	LDI  R26,LOW(10)
001f4a d1e6      	RCALL _putchar1
                 ;}
                 _0x2040005:
001f4b 962f      	ADIW R28,15
001f4c 9508      	RET
                 ; .FEND
                 
                 	.DSEG
                 _0x9C:
000a00           	.BYTE 0xC3
                 ;
                 ;
                 ;void WiFi_setup(void)
                 ;{
                 
                 	.CSEG
                 _WiFi_setup:
                 ; .FSTART _WiFi_setup
                 ; UART_setup(1,1);
001f4d e0e1      	LDI  R30,LOW(1)
001f4e 93ea      	ST   -Y,R30
001f4f e0a1      	LDI  R26,LOW(1)
001f50 d170      	RCALL _UART_setup
                 ; T3_delay(1);//0.02s
001f51 e0a1      	LDI  R26,LOW(1)
001f52 940e 2287 	CALL _T3_delay
                 ;// WiFi_send_command(9,0,0);//9600
                 ;// T3_delay(4);
                 ;// UART_setup(1,0);
                 ;// T3_delay(4);//0.1s
                 ; WiFi_send_command(1,0,0);//echo off
001f54 e0e1      	LDI  R30,LOW(1)
001f55 93ea      	ST   -Y,R30
001f56 e0e0      	LDI  R30,LOW(0)
001f57 93ea      	ST   -Y,R30
001f58 e0a0      	LDI  R26,LOW(0)
001f59 e0b0      	LDI  R27,0
001f5a df67      	RCALL _WiFi_send_command
                 ; T3_delay(4);//0.1s
001f5b e0a4      	LDI  R26,LOW(4)
001f5c 940e 2287 	CALL _T3_delay
                 ; WiFi_send_command(2,0,0);
001f5e e0e2      	LDI  R30,LOW(2)
001f5f 93ea      	ST   -Y,R30
001f60 e0e0      	LDI  R30,LOW(0)
001f61 93ea      	ST   -Y,R30
001f62 e0a0      	LDI  R26,LOW(0)
001f63 e0b0      	LDI  R27,0
001f64 df5d      	RCALL _WiFi_send_command
                 ; T3_delay(4);//0.1s
001f65 e0a4      	LDI  R26,LOW(4)
001f66 940e 2287 	CALL _T3_delay
                 ; WiFi_send_command(3,0,0);
001f68 e0e3      	LDI  R30,LOW(3)
001f69 93ea      	ST   -Y,R30
001f6a e0e0      	LDI  R30,LOW(0)
001f6b 93ea      	ST   -Y,R30
001f6c e0a0      	LDI  R26,LOW(0)
001f6d e0b0      	LDI  R27,0
001f6e df53      	RCALL _WiFi_send_command
                 ; T3_delay(4);//0.1s
001f6f e0a4      	LDI  R26,LOW(4)
001f70 940e 2287 	CALL _T3_delay
                 ; WiFi_send_command(4,0,0);
001f72 e0e4      	LDI  R30,LOW(4)
001f73 93ea      	ST   -Y,R30
001f74 e0e0      	LDI  R30,LOW(0)
001f75 93ea      	ST   -Y,R30
001f76 e0a0      	LDI  R26,LOW(0)
001f77 e0b0      	LDI  R27,0
001f78 df49      	RCALL _WiFi_send_command
                 ; T3_delay(4);//0.1s
001f79 e0a4      	LDI  R26,LOW(4)
001f7a 940e 2287 	CALL _T3_delay
                 ; WiFi_send_command(5,0,0);
001f7c e0e5      	LDI  R30,LOW(5)
001f7d 93ea      	ST   -Y,R30
001f7e e0e0      	LDI  R30,LOW(0)
001f7f 93ea      	ST   -Y,R30
001f80 e0a0      	LDI  R26,LOW(0)
001f81 e0b0      	LDI  R27,0
001f82 df3f      	RCALL _WiFi_send_command
                 ; T3_delay(4);//0.1s
001f83 e0a4      	LDI  R26,LOW(4)
001f84 940e 2287 	CALL _T3_delay
                 ; WiFi_send_command(6,0,0);
001f86 e0e6      	LDI  R30,LOW(6)
001f87 93ea      	ST   -Y,R30
001f88 e0e0      	LDI  R30,LOW(0)
001f89 93ea      	ST   -Y,R30
001f8a e0a0      	LDI  R26,LOW(0)
001f8b e0b0      	LDI  R27,0
001f8c df35      	RCALL _WiFi_send_command
                 ;}
001f8d 9508      	RET
                 ; .FEND
                 ;
                 ;/*
                 ;Алгоритм работы с модулем esp-12
                 ;
                 ;Команды после прошивки один раз
                 ;
                 ;all command should ends with (13)(10)!!!!!!!
                 ;AT+UART_DEF=9600,8,1,0,0                    //скорость
                 ;                                                                                       //answer
                 ;AT_RST                                                                                 //ready
                 ;ATE0                                                                                   //OK
                 ;AT+CWSAP_CUR="LIGHTHOUSE L200N1","",1,0,1(or 4),0 //имя создаваемой сети без пароля
                 ;AT+CIPAP_CUR="192.168.0.100"    //IP to enter in browser                               //OK
                 ;AT+CWMODE=2 //mode 2 softAP                                                            //OK
                 ;AT+CIPMUX=1 //multi                                                                    //OK
                 ;AT+CIPSERVER=1,80 //server start                                                       //OK, ERROR, no change
                 ;
                 ;when client connects to wifi enter in browser 192.168.0.100 and there is connection to module
                 ;
                 ;0,CONNECT
                 ;
                 ;
                 ;1,CONNECT
                 ;2,CONNECT
                 ;1,CLOSED
                 ;etc.... maybe have to set matrix CONNECTED[4]={1,0,0,0} // connected/not connected
                 ;
                 ;+IPD,0,653:GET / HTTP/1.1    //CONNECTION 0 wants HTTP
                 ;Host: 192.168.0.100
                 ;+a lot of other useless crap..........
                 ;the end of crap is (13)(10)(13)(10)
                 ;
                 ;//controller should sent html file here using commands:
                 ;
                 ;AT+CIPSEND=0,66     //send to 0, 66 symbols                //"> "(13)(10)
                 ;send 66 bytes                                              //"Recv 66 bytes"
                 ;
                 ;//then close connection
                 ;AT+CIPCLOSE=0   //0-N of connection
                 ;
                 ;//then comp/mobile send another GET like
                 ;
                 ;+IPD,0,411:GET /favicon.ico HTTP/1.1  //0 wants an icon
                 ;//Just close it(AT+CIPCLOSE=0) cause you don't have any
                 ;//it can be a couple of times...
                 ;
                 ;//then if user press a button or submit a form or anythuing
                 ;+IPD,1,687:GET /ON HTTP/1.1//
                 ;//here you have to send another piece of html.... and so on...
                 ;
                 ;//when you submit:
                 ;+IPD,1,694:GET /?B=5 HTTP/1.1     //form name B and M from simple.html
                 ;
                 ;
                 ;AT+CIPSERVER=0 //stop server     //maybe to change the name or something else
                 ;
                 ;
                 ;//Parameters change requests examples
                 ;+IPD,0,694:GET /?N=LH200A HTTP/1.1
                 ;+IPD,0,691:GET /?B=100 HTTP/1.1
                 ;+IPD,0,691:GET /?M=8 HTTP/1.1
                 ;+IPD,1,686:GET /?I= HTTP/1.1
                 ;+IPD,1,702:GET /?E=%2B79514338436 HTTP/1.1
                 ;+IPD,1,702:GET /?R=%2B79513053591 HTTP/1.1
                 ;
                 ;
                 ;
                 ;
                 ;//можно рефрэшить автоматически (5сек)
                 ;<meta http-equiv="refresh" content="5">
                 ;*/
                 ;
                 ;
                 ;interrupt [USART0_RXC] void usart0_rx_isr(void)
                 ; 0000 0044 {
                 _usart0_rx_isr:
                 ; .FSTART _usart0_rx_isr
                 ; 0000 0045 char status,data;
                 ; 0000 0046 status=UCSR0A;
001f8e 931a      	ST   -Y,R17
001f8f 930a      	ST   -Y,R16
                 ;	status -> R17
                 ;	data -> R16
001f90 9110 00c0 	LDS  R17,192
                 ; 0000 0047 data=UDR0;
001f92 9100 00c6 	LDS  R16,198
                 ; 0000 0048 }
001f94 9109      	LD   R16,Y+
001f95 9119      	LD   R17,Y+
001f96 9518      	RETI
                 ; .FEND
                 ;
                 ;// Timer1 overflow interrupt service routine 0.5s
                 ;interrupt [TIM1_OVF] void timer1_ovf_isr(void)
                 ; 0000 004C {
                 _timer1_ovf_isr:
                 ; .FSTART _timer1_ovf_isr
001f97 93aa      	ST   -Y,R26
001f98 93ea      	ST   -Y,R30
001f99 b7ef      	IN   R30,SREG
001f9a 93ea      	ST   -Y,R30
                 ; 0000 004D // Reinitialize Timer1 value
                 ; 0000 004E TCNT1H=0xABA0 >> 8;
001f9b eaeb      	LDI  R30,LOW(171)
001f9c 93e0 0085 	STS  133,R30
                 ; 0000 004F TCNT1L=0xABA0 & 0xff;
001f9e eae0      	LDI  R30,LOW(160)
001f9f 93e0 0084 	STS  132,R30
                 ; 0000 0050 
                 ; 0000 0051 if(WiFi_reset_no_activity_counter>0) WiFi_reset_no_activity_counter--;
001fa1 91a0 0b85 	LDS  R26,_WiFi_reset_no_activity_counter
001fa3 30a1      	CPI  R26,LOW(0x1)
001fa4 f028      	BRLO _0xA8
001fa5 91e0 0b85 	LDS  R30,_WiFi_reset_no_activity_counter
001fa7 50e1      	SUBI R30,LOW(1)
001fa8 93e0 0b85 	STS  _WiFi_reset_no_activity_counter,R30
                 ; 0000 0052 
                 ; 0000 0053 }
                 _0xA8:
001faa 91e9      	LD   R30,Y+
001fab bfef      	OUT  SREG,R30
001fac 91e9      	LD   R30,Y+
001fad 91a9      	LD   R26,Y+
001fae 9518      	RETI
                 ; .FEND
                 ;
                 ;
                 ;void main(void)
                 ; 0000 0057 {
                 _main:
                 ; .FSTART _main
                 ; 0000 0058 unsigned char tmp,counter=0;
                 ; 0000 0059 char str[20];
                 ; 0000 005A 
                 ; 0000 005B uCsetup();
001faf 9764      	SBIW R28,20
                 ;	tmp -> R17
                 ;	counter -> R16
                 ;	str -> Y+0
001fb0 e000      	LDI  R16,0
001fb1 d0da      	RCALL _uCsetup
                 ; 0000 005C WIFIOFF=0;
001fb2 9854      	CBI  0xA,4
                 ; 0000 005D 
                 ; 0000 005E  delay_ms(100);
001fb3 e6a4      	LDI  R26,LOW(100)
001fb4 e0b0      	LDI  R27,0
001fb5 940e 24bc 	CALL _delay_ms
                 ; 0000 005F  LCD_init();
001fb7 d8b3      	RCALL _LCD_init
                 ; 0000 0060  delay_ms(1);
001fb8 e0a1      	LDI  R26,LOW(1)
001fb9 e0b0      	LDI  R27,0
001fba 940e 24bc 	CALL _delay_ms
                 ; 0000 0061  UART_setup(0,0);
001fbc e0e0      	LDI  R30,LOW(0)
001fbd 93ea      	ST   -Y,R30
001fbe e0a0      	LDI  R26,LOW(0)
001fbf d101      	RCALL _UART_setup
                 ; 0000 0062  #asm("sei")
001fc0 9478      	sei
                 ; 0000 0063 
                 ; 0000 0064  for(tmp=0;tmp<3;tmp++)//анимация собаки
001fc1 e010      	LDI  R17,LOW(0)
                 _0xAC:
001fc2 3013      	CPI  R17,3
001fc3 f4b8      	BRSH _0xAD
                 ; 0000 0065   {
                 ; 0000 0066     LCD_DrawImage(dog0);
001fc4 e8ae      	LDI  R26,LOW(_dog0*2)
001fc5 e0bb      	LDI  R27,HIGH(_dog0*2)
001fc6 d939      	RCALL _LCD_DrawImage
                 ; 0000 0067     LCD_DrawImage(dog1);
001fc7 e8ae      	LDI  R26,LOW(_dog1*2)
001fc8 e0bf      	LDI  R27,HIGH(_dog1*2)
001fc9 d936      	RCALL _LCD_DrawImage
                 ; 0000 0068     LCD_DrawImage(dog2);
001fca e8ae      	LDI  R26,LOW(_dog2*2)
001fcb e1b3      	LDI  R27,HIGH(_dog2*2)
001fcc d933      	RCALL _LCD_DrawImage
                 ; 0000 0069     LCD_DrawImage(dog3);
001fcd e8ae      	LDI  R26,LOW(_dog3*2)
001fce e1b7      	LDI  R27,HIGH(_dog3*2)
001fcf d930      	RCALL _LCD_DrawImage
                 ; 0000 006A     LCD_DrawImage(dog4);
001fd0 e8ae      	LDI  R26,LOW(_dog4*2)
001fd1 e1bb      	LDI  R27,HIGH(_dog4*2)
001fd2 d92d      	RCALL _LCD_DrawImage
                 ; 0000 006B     LCD_DrawImage(dog5);
001fd3 e8ae      	LDI  R26,LOW(_dog5*2)
001fd4 e1bf      	LDI  R27,HIGH(_dog5*2)
001fd5 d92a      	RCALL _LCD_DrawImage
                 ; 0000 006C     LCD_DrawImage(dog6);
001fd6 e8ae      	LDI  R26,LOW(_dog6*2)
001fd7 e2b3      	LDI  R27,HIGH(_dog6*2)
001fd8 d927      	RCALL _LCD_DrawImage
                 ; 0000 006D   }
001fd9 5f1f      	SUBI R17,-1
001fda cfe7      	RJMP _0xAC
                 _0xAD:
                 ; 0000 006E 
                 ; 0000 006F    LCD_Commmand(COMAND, SSD1306_INVERTDISPLAY);
001fdb e0e0      	LDI  R30,LOW(0)
001fdc 93ea      	ST   -Y,R30
001fdd eaa7      	LDI  R26,LOW(167)
001fde d8e7      	RCALL _LCD_Commmand
                 ; 0000 0070    LCD_DrawImage(mishaniya);
001fdf e8ae      	LDI  R26,LOW(_mishaniya*2)
001fe0 e2b7      	LDI  R27,HIGH(_mishaniya*2)
001fe1 d91e      	RCALL _LCD_DrawImage
                 ; 0000 0071    delay_ms(5000);
001fe2 e8a8      	LDI  R26,LOW(5000)
001fe3 e1b3      	LDI  R27,HIGH(5000)
001fe4 940e 24bc 	CALL _delay_ms
                 ; 0000 0072    LCD_Commmand(COMAND, SSD1306_NORMALDISPLAY);
001fe6 e0e0      	LDI  R30,LOW(0)
001fe7 93ea      	ST   -Y,R30
001fe8 eaa6      	LDI  R26,LOW(166)
001fe9 d8dc      	RCALL _LCD_Commmand
                 ; 0000 0073    LCD_DrawImage(0);//CLEAR
001fea e0a0      	LDI  R26,LOW(0)
001feb e0b0      	LDI  R27,0
001fec d913      	RCALL _LCD_DrawImage
                 ; 0000 0074 
                 ; 0000 0075    LCD_Goto(0,1);
001fed e0e0      	LDI  R30,LOW(0)
001fee 93ea      	ST   -Y,R30
001fef e0a1      	LDI  R26,LOW(1)
001ff0 d8ec      	RCALL _LCD_Goto
                 ; 0000 0076    LCD_Printf("WiFi ТЕКСТ:",1);  //  вывод на дисплей
                +
001ff1 ece3     +LDI R30 , LOW ( _0xAE + ( 0 ) )
001ff2 e0fa     +LDI R31 , HIGH ( _0xAE + ( 0 ) )
                 	__POINTW1MN _0xAE,0
001ff3 93fa      	ST   -Y,R31
001ff4 93ea      	ST   -Y,R30
001ff5 e0a1      	LDI  R26,LOW(1)
001ff6 da17      	RCALL _LCD_Printf
                 ; 0000 0077    LCD_Goto(0,5);
001ff7 e0e0      	LDI  R30,LOW(0)
001ff8 93ea      	ST   -Y,R30
001ff9 e0a5      	LDI  R26,LOW(5)
001ffa d8e2      	RCALL _LCD_Goto
                 ; 0000 0078    LCD_Printf("E",1);  //  вывод на дисплей
                +
001ffb ecef     +LDI R30 , LOW ( _0xAE + ( 12 ) )
001ffc e0fa     +LDI R31 , HIGH ( _0xAE + ( 12 ) )
                 	__POINTW1MN _0xAE,12
001ffd 93fa      	ST   -Y,R31
001ffe 93ea      	ST   -Y,R30
001fff e0a1      	LDI  R26,LOW(1)
002000 da0d      	RCALL _LCD_Printf
                 ; 0000 0079    LCD_Goto(0,6);
002001 e0e0      	LDI  R30,LOW(0)
002002 93ea      	ST   -Y,R30
002003 e0a6      	LDI  R26,LOW(6)
002004 d8d8      	RCALL _LCD_Goto
                 ; 0000 007A    LCD_Printf("N",1);  //  вывод на дисплей
                +
002005 ede1     +LDI R30 , LOW ( _0xAE + ( 14 ) )
002006 e0fa     +LDI R31 , HIGH ( _0xAE + ( 14 ) )
                 	__POINTW1MN _0xAE,14
002007 93fa      	ST   -Y,R31
002008 93ea      	ST   -Y,R30
002009 e0a1      	LDI  R26,LOW(1)
00200a da03      	RCALL _LCD_Printf
                 ; 0000 007B    LCD_Goto(0,7);
00200b e0e0      	LDI  R30,LOW(0)
00200c 93ea      	ST   -Y,R30
00200d e0a7      	LDI  R26,LOW(7)
00200e d8ce      	RCALL _LCD_Goto
                 ; 0000 007C    LCD_Printf("C",1);  //  вывод на дисплей
                +
00200f ede3     +LDI R30 , LOW ( _0xAE + ( 16 ) )
002010 e0fa     +LDI R31 , HIGH ( _0xAE + ( 16 ) )
                 	__POINTW1MN _0xAE,16
002011 93fa      	ST   -Y,R31
002012 93ea      	ST   -Y,R30
002013 e0a1      	LDI  R26,LOW(1)
002014 d9f9      	RCALL _LCD_Printf
                 ; 0000 007D    LCD_Goto(116,5);
002015 e7e4      	LDI  R30,LOW(116)
002016 93ea      	ST   -Y,R30
002017 e0a5      	LDI  R26,LOW(5)
002018 d8c4      	RCALL _LCD_Goto
                 ; 0000 007E    LCD_Printf("E",1);  //  вывод на дисплей
                +
002019 ede5     +LDI R30 , LOW ( _0xAE + ( 18 ) )
00201a e0fa     +LDI R31 , HIGH ( _0xAE + ( 18 ) )
                 	__POINTW1MN _0xAE,18
00201b 93fa      	ST   -Y,R31
00201c 93ea      	ST   -Y,R30
00201d e0a1      	LDI  R26,LOW(1)
00201e d9ef      	RCALL _LCD_Printf
                 ; 0000 007F    LCD_Goto(116,6);
00201f e7e4      	LDI  R30,LOW(116)
002020 93ea      	ST   -Y,R30
002021 e0a6      	LDI  R26,LOW(6)
002022 d8ba      	RCALL _LCD_Goto
                 ; 0000 0080    LCD_Printf("N",1);  //  вывод на дисплей
                +
002023 ede7     +LDI R30 , LOW ( _0xAE + ( 20 ) )
002024 e0fa     +LDI R31 , HIGH ( _0xAE + ( 20 ) )
                 	__POINTW1MN _0xAE,20
002025 93fa      	ST   -Y,R31
002026 93ea      	ST   -Y,R30
002027 e0a1      	LDI  R26,LOW(1)
002028 d9e5      	RCALL _LCD_Printf
                 ; 0000 0081    LCD_Goto(116,7);
002029 e7e4      	LDI  R30,LOW(116)
00202a 93ea      	ST   -Y,R30
00202b e0a7      	LDI  R26,LOW(7)
00202c d8b0      	RCALL _LCD_Goto
                 ; 0000 0082    LCD_Printf("C",1);  //  вывод на дисплей
                +
00202d ede9     +LDI R30 , LOW ( _0xAE + ( 22 ) )
00202e e0fa     +LDI R31 , HIGH ( _0xAE + ( 22 ) )
                 	__POINTW1MN _0xAE,22
00202f 93fa      	ST   -Y,R31
002030 93ea      	ST   -Y,R30
002031 e0a1      	LDI  R26,LOW(1)
002032 d9db      	RCALL _LCD_Printf
                 ; 0000 0083    LCD_Goto(0,3);
002033 e0e0      	LDI  R30,LOW(0)
002034 93ea      	ST   -Y,R30
002035 e0a3      	LDI  R26,LOW(3)
002036 d8a6      	RCALL _LCD_Goto
                 ; 0000 0084    LCD_Printf(OLED_text,0);  //  вывод на дисплей
002037 e6e2      	LDI  R30,LOW(_OLED_text)
002038 e0fb      	LDI  R31,HIGH(_OLED_text)
002039 93fa      	ST   -Y,R31
00203a 93ea      	ST   -Y,R30
00203b e0a0      	LDI  R26,LOW(0)
00203c d9d1      	RCALL _LCD_Printf
                 ; 0000 0085     #ifdef WiFi_ON
                 ; 0000 0086    WiFi_setup();//!!!!!!!!!!!!!!!!!!!
00203d df0f      	RCALL _WiFi_setup
                 ; 0000 0087     #endif
                 ; 0000 0088  while (1)
                 _0xAF:
                 ; 0000 0089   {
                 ; 0000 008A    LCD_Goto(27,4);
00203e e1eb      	LDI  R30,LOW(27)
00203f 93ea      	ST   -Y,R30
002040 e0a4      	LDI  R26,LOW(4)
002041 d89b      	RCALL _LCD_Goto
                 ; 0000 008B    counter=ENC_counter;
002042 2d08      	MOV  R16,R8
                 ; 0000 008C    IntToStr(str,counter);
002043 01fe      	MOVW R30,R28
002044 93fa      	ST   -Y,R31
002045 93ea      	ST   -Y,R30
002046 2fa0      	MOV  R26,R16
002047 27bb      	CLR  R27
002048 d11e      	RCALL _IntToStr
                 ; 0000 008D    if(counter<100)LCD_BigNum(' ');
002049 3604      	CPI  R16,100
00204a f410      	BRSH _0xB2
00204b e2a0      	LDI  R26,LOW(32)
00204c d95d      	RCALL _LCD_BigNum
                 ; 0000 008E    if(counter<10)LCD_BigNum(' ');
                 _0xB2:
00204d 300a      	CPI  R16,10
00204e f410      	BRSH _0xB3
00204f e2a0      	LDI  R26,LOW(32)
002050 d959      	RCALL _LCD_BigNum
                 ; 0000 008F    LCD_Printf(str,2);  //  вывод на дисплей
                 _0xB3:
002051 01fe      	MOVW R30,R28
002052 93fa      	ST   -Y,R31
002053 93ea      	ST   -Y,R30
002054 e0a2      	LDI  R26,LOW(2)
002055 d9b8      	RCALL _LCD_Printf
                 ; 0000 0090    putchar0('A');//Jdy-40 out
002056 e4a1      	LDI  R26,LOW(65)
002057 d0cf      	RCALL _putchar0
                 ; 0000 0091 
                 ; 0000 0092    hue_to_rgb(counter<<3);
002058 2fe0      	MOV  R30,R16
002059 0fee      	LSL  R30
00205a 0fee      	LSL  R30
00205b 0fee      	LSL  R30
00205c 2fae      	MOV  R26,R30
00205d 940e 2243 	CALL _hue_to_rgb
                 ; 0000 0093    if(Ledon>0)
00205f e0e0      	LDI  R30,LOW(0)
002060 15ea      	CP   R30,R10
002061 f448      	BRSH _0xB4
                 ; 0000 0094     {Led(GLOBAL_GRB[1], GLOBAL_GRB[0], GLOBAL_GRB[2]);}
                +
002062 91e0 0b60+LDS R30 , _GLOBAL_GRB + ( 1 )
                 	__GETB1MN _GLOBAL_GRB,1
002064 93ea      	ST   -Y,R30
002065 91e0 0b5f 	LDS  R30,_GLOBAL_GRB
002067 93ea      	ST   -Y,R30
                +
002068 91a0 0b61+LDS R26 , _GLOBAL_GRB + ( 2 )
                 	__GETB2MN _GLOBAL_GRB,2
00206a c012      	RJMP _0x124
                 ; 0000 0095    else
                 _0xB4:
                 ; 0000 0096     {Led(GLOBAL_GRB[1]>>5, GLOBAL_GRB[0]>>5, GLOBAL_GRB[2]>>5);}
                +
00206b 91e0 0b60+LDS R30 , _GLOBAL_GRB + ( 1 )
                 	__GETB1MN _GLOBAL_GRB,1
00206d 95e2      	SWAP R30
00206e 70ef      	ANDI R30,0xF
00206f 95e6      	LSR  R30
002070 93ea      	ST   -Y,R30
002071 91e0 0b5f 	LDS  R30,_GLOBAL_GRB
002073 95e2      	SWAP R30
002074 70ef      	ANDI R30,0xF
002075 95e6      	LSR  R30
002076 93ea      	ST   -Y,R30
                +
002077 91e0 0b61+LDS R30 , _GLOBAL_GRB + ( 2 )
                 	__GETB1MN _GLOBAL_GRB,2
002079 95e2      	SWAP R30
00207a 70ef      	ANDI R30,0xF
00207b 95e6      	LSR  R30
00207c 2fae      	MOV  R26,R30
                 _0x124:
00207d d17e      	RCALL _Led
                 ; 0000 0097 
                 ; 0000 0098    #ifdef WiFi_ON
                 ; 0000 0099    WiFi_main_processing();//!!!!!!!!!!!!!
00207e d9ef      	RCALL _WiFi_main_processing
                 ; 0000 009A    LCD_Goto(0,3);
00207f e0e0      	LDI  R30,LOW(0)
002080 93ea      	ST   -Y,R30
002081 e0a3      	LDI  R26,LOW(3)
002082 940e 18dd 	CALL _LCD_Goto
                 ; 0000 009B    LCD_Printf(OLED_text,0);  //  вывод на дисплей
002084 e6e2      	LDI  R30,LOW(_OLED_text)
002085 e0fb      	LDI  R31,HIGH(_OLED_text)
002086 93fa      	ST   -Y,R31
002087 93ea      	ST   -Y,R30
002088 e0a0      	LDI  R26,LOW(0)
002089 d984      	RCALL _LCD_Printf
                 ; 0000 009C 
                 ; 0000 009D 
                 ; 0000 009E //        if(WiFi_reset_no_activity_counter==0)
                 ; 0000 009F //        {
                 ; 0000 00A0 //         WiFi_reset_no_activity_counter=WiFi_reset_time;
                 ; 0000 00A1 //         WiFi_processing_clear();
                 ; 0000 00A2 //         WIFIRES=1;// res
                 ; 0000 00A3 //         T3_delay(4);//0.1S
                 ; 0000 00A4 //         WIFIRES=0;//NO res
                 ; 0000 00A5 //        }
                 ; 0000 00A6 //        else
                 ; 0000 00A7 //        {
                 ; 0000 00A8 //         if(WiFi_reset_flag==1)//reset detected
                 ; 0000 00A9 //         {
                 ; 0000 00AA //          WiFi_reset_flag=0;
                 ; 0000 00AB //          WiFi_processing_clear();
                 ; 0000 00AC //          WiFi_setup();
                 ; 0000 00AD //         }
                 ; 0000 00AE //         else
                 ; 0000 00AF //         {WiFi_main_processing();}//WiFi processing
                 ; 0000 00B0 //        }
                 ; 0000 00B1         #endif
                 ; 0000 00B2   }
00208a cfb3      	RJMP _0xAF
                 ; 0000 00B3 }
                 _0xB6:
00208b cfff      	RJMP _0xB6
                 ; .FEND
                 
                 	.DSEG
                 _0xAE:
000ac3           	.BYTE 0x18
                 ;
                 ;
                 ;
                 ;void uCsetup(void)
                 ; 0000 00B8 {
                 
                 	.CSEG
                 _uCsetup:
                 ; .FSTART _uCsetup
                 ; 0000 00B9  // Crystal Oscillator division factor: 1
                 ; 0000 00BA     #pragma optsize-
                 ; 0000 00BB     CLKPR=(1<<CLKPCE);
00208c e8e0      	LDI  R30,LOW(128)
00208d 93e0 0061 	STS  97,R30
                 ; 0000 00BC     CLKPR=(0<<CLKPCE) | (0<<CLKPS3) | (0<<CLKPS2) | (0<<CLKPS1) | (0<<CLKPS0);
00208f e0e0      	LDI  R30,LOW(0)
002090 93e0 0061 	STS  97,R30
                 ; 0000 00BD     #ifdef _OPTIMIZE_SIZE_
                 ; 0000 00BE     #pragma optsize+
                 ; 0000 00BF     #endif
                 ; 0000 00C0 
                 ; 0000 00C1     //I2C порты
                 ; 0000 00C2     DDRD.0=0;//SCL
002092 9850      	CBI  0xA,0
                 ; 0000 00C3     DDRD.1=0;//SDA
002093 9851      	CBI  0xA,1
                 ; 0000 00C4     PORTD.0=1;//pull-up
002094 9a58      	SBI  0xB,0
                 ; 0000 00C5     PORTD.1=1;//pull-up
002095 9a59      	SBI  0xB,1
                 ; 0000 00C6 
                 ; 0000 00C7     DDRF.0=1;//mic5219(wifi and jdy-40) enable
002096 9a80      	SBI  0x10,0
                 ; 0000 00C8     PORTF.0=1;//mic5219(wifi and jdy-40) enable
002097 9a88      	SBI  0x11,0
                 ; 0000 00C9     DDRA.7=1;//led
002098 9a0f      	SBI  0x1,7
                 ; 0000 00CA 
                 ; 0000 00CB 
                 ; 0000 00CC     // PCINT4 interrupt: On
                 ; 0000 00CD     // PCINT5 interrupt: On
                 ; 0000 00CE     // PCINT12 interrupt: On
                 ; 0000 00CF     PCMSK0=(0<<PCINT7) | (0<<PCINT6) | (1<<PCINT5) | (1<<PCINT4) | (0<<PCINT3) | (0<<PCINT2) | (0<<PCINT1) | (0<<PCINT0) ...
002099 e3e0      	LDI  R30,LOW(48)
00209a 93e0 006b 	STS  107,R30
                 ; 0000 00D0     PCMSK1=(0<<PCINT15) | (0<<PCINT14) | (0<<PCINT13) | (1<<PCINT12) | (0<<PCINT11) | (0<<PCINT10) | (0<<PCINT9) | (0<<P ...
00209c e1e0      	LDI  R30,LOW(16)
00209d 93e0 006c 	STS  108,R30
                 ; 0000 00D1     PCICR=(0<<PCIE2) | (1<<PCIE1) | (1<<PCIE0);
00209f e0e3      	LDI  R30,LOW(3)
0020a0 93e0 0068 	STS  104,R30
                 ; 0000 00D2 
                 ; 0000 00D3 
                 ; 0000 00D4     // Timer/Counter 3 initialization
                 ; 0000 00D5     // Clock value: 10,800 kHz
                 ; 0000 00D6     // Mode: Normal top=0xFFFF
                 ; 0000 00D7     // Timer3 Overflow Interrupt: Off, (turned On when the function T3_delay() is called)!!!!!!!!!!!!!!!!!!!
                 ; 0000 00D8     TCCR3A=(0<<COM3A1) | (0<<COM3A0) | (0<<COM3B1) | (0<<COM3B0) | (0<<COM3C1) | (0<<COM3C0) | (0<<WGM31) | (0<<WGM30);
0020a2 e0e0      	LDI  R30,LOW(0)
0020a3 93e0 0090 	STS  144,R30
                 ; 0000 00D9     TCCR3B=0;
0020a5 93e0 0091 	STS  145,R30
                 ; 0000 00DA     TCCR3B=0;
0020a7 93e0 0091 	STS  145,R30
                 ; 0000 00DB     TCNT3H=0x00;
0020a9 93e0 0095 	STS  149,R30
                 ; 0000 00DC     TCNT3L=0x00;
0020ab 93e0 0094 	STS  148,R30
                 ; 0000 00DD 
                 ; 0000 00DE     // Timer/Counter 3 Interrupt(s) initialization
                 ; 0000 00DF     TIMSK3=(0<<ICIE3) | (0<<OCIE3C) | (0<<OCIE3B) | (0<<OCIE3A) | (1<<TOIE3);
0020ad e0e1      	LDI  R30,LOW(1)
0020ae 93e0 0071 	STS  113,R30
                 ; 0000 00E0 
                 ; 0000 00E1     // Timer/Counter 1 initialization
                 ; 0000 00E2     // Clock value: 43,200 kHz
                 ; 0000 00E3     // Mode: Normal top=0xFFFF
                 ; 0000 00E4     // Timer Period: 0,5 s
                 ; 0000 00E5     // Timer1 Overflow Interrupt: On
                 ; 0000 00E6     TCCR1B=(0<<ICNC1) | (0<<ICES1) | (0<<WGM13) | (0<<WGM12) | (1<<CS12) | (0<<CS11) | (0<<CS10);
0020b0 e0e4      	LDI  R30,LOW(4)
0020b1 93e0 0081 	STS  129,R30
                 ; 0000 00E7     TCNT1H=0xAB;
0020b3 eaeb      	LDI  R30,LOW(171)
0020b4 93e0 0085 	STS  133,R30
                 ; 0000 00E8     TCNT1L=0xA0;
0020b6 eae0      	LDI  R30,LOW(160)
0020b7 93e0 0084 	STS  132,R30
                 ; 0000 00E9 
                 ; 0000 00EA     // Timer/Counter 1 Interrupt(s) initialization
                 ; 0000 00EB     TIMSK1=(0<<ICIE1) | (0<<OCIE1C) | (0<<OCIE1B) | (0<<OCIE1A) | (1<<TOIE1);
0020b9 e0e1      	LDI  R30,LOW(1)
0020ba 93e0 006f 	STS  111,R30
                 ; 0000 00EC 
                 ; 0000 00ED      // TWI initialization
                 ; 0000 00EE      // Mode: TWI Master
                 ; 0000 00EF      // Bit Rate: 100 kHz
                 ; 0000 00F0      twi_master_init(100);
0020bc e6a4      	LDI  R26,LOW(100)
0020bd e0b0      	LDI  R27,0
0020be 940e 22a8 	CALL _twi_master_init
                 ; 0000 00F1 }
0020c0 9508      	RET
                 ; .FEND
                 ;
                 ;void UART_setup(unsigned char UART_N,unsigned char baud_N)//baud_N=0 - 9600 baud_N=1 - 115200
                 ; 0000 00F4 {
                 _UART_setup:
                 ; .FSTART _UART_setup
                 ; 0000 00F5   switch(UART_N)
0020c1 93aa      	ST   -Y,R26
                 ;	UART_N -> Y+1
                 ;	baud_N -> Y+0
0020c2 81e9      	LDD  R30,Y+1
0020c3 e0f0      	LDI  R31,0
                 ; 0000 00F6   {
                 ; 0000 00F7    case 0:
0020c4 9730      	SBIW R30,0
0020c5 f4a9      	BRNE _0xC8
                 ; 0000 00F8     //USART0 Baud Rate: 115200
                 ; 0000 00F9     UCSR0A=(0<<RXC0) | (0<<TXC0) | (0<<UDRE0) | (0<<FE0) | (0<<DOR0) | (0<<UPE0) | (0<<U2X0) | (0<<MPCM0);
0020c6 e0e0      	LDI  R30,LOW(0)
0020c7 93e0 00c0 	STS  192,R30
                 ; 0000 00FA     UCSR0B=(1<<RXCIE0) | (0<<TXCIE0) | (0<<UDRIE0) | (1<<RXEN0) | (1<<TXEN0) | (0<<UCSZ02) | (0<<RXB80) | (0<<TXB80);
0020c9 e9e8      	LDI  R30,LOW(152)
0020ca 93e0 00c1 	STS  193,R30
                 ; 0000 00FB     UCSR0C=(0<<UMSEL01) | (0<<UMSEL00) | (0<<UPM01) | (0<<UPM00) | (0<<USBS0) | (1<<UCSZ01) | (1<<UCSZ00) | (0<<UCPOL0);
0020cc e0e6      	LDI  R30,LOW(6)
0020cd 93e0 00c2 	STS  194,R30
                 ; 0000 00FC     UBRR0H=0x00;
0020cf e0e0      	LDI  R30,LOW(0)
0020d0 93e0 00c5 	STS  197,R30
                 ; 0000 00FD     if(baud_N==0) UBRR0L=0x47;
0020d2 81e8      	LD   R30,Y
0020d3 30e0      	CPI  R30,0
0020d4 f411      	BRNE _0xC9
0020d5 e4e7      	LDI  R30,LOW(71)
0020d6 c001      	RJMP _0x125
                 ; 0000 00FE     else UBRR0L=0x05;
                 _0xC9:
0020d7 e0e5      	LDI  R30,LOW(5)
                 _0x125:
0020d8 93e0 00c4 	STS  196,R30
                 ; 0000 00FF    break;
0020da c04a      	RJMP _0xC7
                 ; 0000 0100    case 1:
                 _0xC8:
0020db 30e1      	CPI  R30,LOW(0x1)
0020dc e0a0      	LDI  R26,HIGH(0x1)
0020dd 07fa      	CPC  R31,R26
0020de f4a9      	BRNE _0xCB
                 ; 0000 0101     //USART1 Baud Rate: 115200
                 ; 0000 0102     UCSR1A=(0<<RXC1) | (0<<TXC1) | (0<<UDRE1) | (0<<FE1) | (0<<DOR1) | (0<<UPE1) | (0<<U2X1) | (0<<MPCM1);
0020df e0e0      	LDI  R30,LOW(0)
0020e0 93e0 00c8 	STS  200,R30
                 ; 0000 0103     UCSR1B=(1<<RXCIE1) | (0<<TXCIE1) | (0<<UDRIE1) | (1<<RXEN1) | (1<<TXEN1) | (0<<UCSZ12) | (0<<RXB81) | (0<<TXB81);
0020e2 e9e8      	LDI  R30,LOW(152)
0020e3 93e0 00c9 	STS  201,R30
                 ; 0000 0104     UCSR1C=(0<<UMSEL11) | (0<<UMSEL10) | (0<<UPM11) | (0<<UPM10) | (0<<USBS1) | (1<<UCSZ11) | (1<<UCSZ10) | (0<<UCPOL1);
0020e5 e0e6      	LDI  R30,LOW(6)
0020e6 93e0 00ca 	STS  202,R30
                 ; 0000 0105     UBRR1H=0x00;
0020e8 e0e0      	LDI  R30,LOW(0)
0020e9 93e0 00cd 	STS  205,R30
                 ; 0000 0106     if(baud_N==0) UBRR1L=0x47;
0020eb 81e8      	LD   R30,Y
0020ec 30e0      	CPI  R30,0
0020ed f411      	BRNE _0xCC
0020ee e4e7      	LDI  R30,LOW(71)
0020ef c001      	RJMP _0x126
                 ; 0000 0107     else UBRR1L=0x05;
                 _0xCC:
0020f0 e0e5      	LDI  R30,LOW(5)
                 _0x126:
0020f1 93e0 00cc 	STS  204,R30
                 ; 0000 0108    break;
0020f3 c031      	RJMP _0xC7
                 ; 0000 0109    case 2:
                 _0xCB:
0020f4 30e2      	CPI  R30,LOW(0x2)
0020f5 e0a0      	LDI  R26,HIGH(0x2)
0020f6 07fa      	CPC  R31,R26
0020f7 f4a9      	BRNE _0xCE
                 ; 0000 010A     //USART2 Baud Rate: 115200
                 ; 0000 010B     UCSR2A=(0<<RXC2) | (0<<TXC2) | (0<<UDRE2) | (0<<FE2) | (0<<DOR2) | (0<<UPE2) | (0<<U2X2) | (0<<MPCM2);
0020f8 e0e0      	LDI  R30,LOW(0)
0020f9 93e0 00d0 	STS  208,R30
                 ; 0000 010C     UCSR2B=(1<<RXCIE2) | (0<<TXCIE2) | (0<<UDRIE2) | (1<<RXEN2) | (1<<TXEN2) | (0<<UCSZ22) | (0<<RXB82) | (0<<TXB82);
0020fb e9e8      	LDI  R30,LOW(152)
0020fc 93e0 00d1 	STS  209,R30
                 ; 0000 010D     UCSR2C=(0<<UMSEL21) | (0<<UMSEL20) | (0<<UPM21) | (0<<UPM20) | (0<<USBS2) | (1<<UCSZ21) | (1<<UCSZ20) | (0<<UCPOL2);
0020fe e0e6      	LDI  R30,LOW(6)
0020ff 93e0 00d2 	STS  210,R30
                 ; 0000 010E     UBRR2H=0x00;
002101 e0e0      	LDI  R30,LOW(0)
002102 93e0 00d5 	STS  213,R30
                 ; 0000 010F     if(baud_N==0) UBRR2L=0x47;
002104 81e8      	LD   R30,Y
002105 30e0      	CPI  R30,0
002106 f411      	BRNE _0xCF
002107 e4e7      	LDI  R30,LOW(71)
002108 c001      	RJMP _0x127
                 ; 0000 0110     else UBRR2L=0x05;
                 _0xCF:
002109 e0e5      	LDI  R30,LOW(5)
                 _0x127:
00210a 93e0 00d4 	STS  212,R30
                 ; 0000 0111    break;
00210c c018      	RJMP _0xC7
                 ; 0000 0112    case 3:
                 _0xCE:
00210d 30e3      	CPI  R30,LOW(0x3)
00210e e0a0      	LDI  R26,HIGH(0x3)
00210f 07fa      	CPC  R31,R26
002110 f4a1      	BRNE _0xC7
                 ; 0000 0113     //USART3 Baud Rate: 115200
                 ; 0000 0114     UCSR3A=(0<<RXC3) | (0<<TXC3) | (0<<UDRE3) | (0<<FE3) | (0<<DOR3) | (0<<UPE3) | (0<<U2X3) | (0<<MPCM3);
002111 e0e0      	LDI  R30,LOW(0)
002112 93e0 0130 	STS  304,R30
                 ; 0000 0115     UCSR3B=(1<<RXCIE3) | (0<<TXCIE3) | (0<<UDRIE3) | (1<<RXEN3) | (1<<TXEN3) | (0<<UCSZ32) | (0<<RXB83) | (0<<TXB83);
002114 e9e8      	LDI  R30,LOW(152)
002115 93e0 0131 	STS  305,R30
                 ; 0000 0116     UCSR3C=(0<<UMSEL31) | (0<<UMSEL30) | (0<<UPM31) | (0<<UPM30) | (0<<USBS3) | (1<<UCSZ31) | (1<<UCSZ30) | (0<<UCPOL3);
002117 e0e6      	LDI  R30,LOW(6)
002118 93e0 0132 	STS  306,R30
                 ; 0000 0117     UBRR3H=0x00;
00211a e0e0      	LDI  R30,LOW(0)
00211b 93e0 0135 	STS  309,R30
                 ; 0000 0118     if(baud_N==0) UBRR3L=0x47;
00211d 81e8      	LD   R30,Y
00211e 30e0      	CPI  R30,0
00211f f411      	BRNE _0xD2
002120 e4e7      	LDI  R30,LOW(71)
002121 c001      	RJMP _0x128
                 ; 0000 0119     else UBRR3L=0x05;
                 _0xD2:
002122 e0e5      	LDI  R30,LOW(5)
                 _0x128:
002123 93e0 0134 	STS  308,R30
                 ; 0000 011A   }
                 _0xC7:
                 ; 0000 011B }
002125 9622      	ADIW R28,2
002126 9508      	RET
                 ; .FEND
                 ;
                 ;
                 ;void putchar0(char c)
                 ; 0000 011F {
                 _putchar0:
                 ; .FSTART _putchar0
                 ; 0000 0120 while ( !( UCSR0A & (1<<5)) ){} //UDRE0
002127 93aa      	ST   -Y,R26
                 ;	c -> Y+0
                 _0xD4:
002128 91e0 00c0 	LDS  R30,192
00212a 72e0      	ANDI R30,LOW(0x20)
00212b f3e1      	BREQ _0xD4
                 ; 0000 0121  UDR0=c;
00212c 81e8      	LD   R30,Y
00212d 93e0 00c6 	STS  198,R30
                 ; 0000 0122 }
00212f 940c 22a6 	JMP  _0x2040003
                 ; .FEND
                 ;
                 ;
                 ;void putchar1(char c)//Wifi
                 ; 0000 0126 {
                 _putchar1:
                 ; .FSTART _putchar1
                 ; 0000 0127 while ( !( UCSR1A & (1<<5)) ){}
002131 93aa      	ST   -Y,R26
                 ;	c -> Y+0
                 _0xD7:
002132 91e0 00c8 	LDS  R30,200
002134 72e0      	ANDI R30,LOW(0x20)
002135 f3e1      	BREQ _0xD7
                 ; 0000 0128  UDR1=c;
002136 81e8      	LD   R30,Y
002137 93e0 00ce 	STS  206,R30
                 ; 0000 0129  //UDR0=c;//shitty send test
                 ; 0000 012A }
002139 940c 22a6 	JMP  _0x2040003
                 ; .FEND
                 ;
                 ;void putstr(char com_n,const char* S)
                 ; 0000 012D {
                 _putstr:
                 ; .FSTART _putstr
                 ; 0000 012E  unsigned int tmp=0;
                 ; 0000 012F  while(S[tmp]!=0)
00213b 93ba      	ST   -Y,R27
00213c 93aa      	ST   -Y,R26
00213d 931a      	ST   -Y,R17
00213e 930a      	ST   -Y,R16
                 ;	com_n -> Y+4
                 ;	*S -> Y+2
                 ;	tmp -> R16,R17
                +
00213f e000     +LDI R16 , LOW ( 0 )
002140 e010     +LDI R17 , HIGH ( 0 )
                 	__GETWRN 16,17,0
                 _0xDA:
002141 01f8      	MOVW R30,R16
002142 81aa      	LDD  R26,Y+2
002143 81bb      	LDD  R27,Y+2+1
002144 0fae      	ADD  R26,R30
002145 1fbf      	ADC  R27,R31
002146 91ec      	LD   R30,X
002147 30e0      	CPI  R30,0
002148 f0d1      	BREQ _0xDC
                 ; 0000 0130  {
                 ; 0000 0131   switch(com_n)
002149 81ec      	LDD  R30,Y+4
00214a e0f0      	LDI  R31,0
                 ; 0000 0132   {
                 ; 0000 0133    case 0:
00214b 9730      	SBIW R30,0
00214c f441      	BRNE _0xE0
                 ; 0000 0134    putchar0(S[tmp]);
00214d 01f8      	MOVW R30,R16
00214e 81aa      	LDD  R26,Y+2
00214f 81bb      	LDD  R27,Y+2+1
002150 0fae      	ADD  R26,R30
002151 1fbf      	ADC  R27,R31
002152 91ac      	LD   R26,X
002153 dfd3      	RCALL _putchar0
                 ; 0000 0135    break;
002154 c00b      	RJMP _0xDF
                 ; 0000 0136    case 1:
                 _0xE0:
002155 30e1      	CPI  R30,LOW(0x1)
002156 e0a0      	LDI  R26,HIGH(0x1)
002157 07fa      	CPC  R31,R26
002158 f439      	BRNE _0xDF
                 ; 0000 0137    putchar1(S[tmp]);
002159 01f8      	MOVW R30,R16
00215a 81aa      	LDD  R26,Y+2
00215b 81bb      	LDD  R27,Y+2+1
00215c 0fae      	ADD  R26,R30
00215d 1fbf      	ADC  R27,R31
00215e 91ac      	LD   R26,X
00215f dfd1      	RCALL _putchar1
                 ; 0000 0138    break;
                 ; 0000 0139  //  case 2:
                 ; 0000 013A //   putchar2(S[tmp]);
                 ; 0000 013B //   break;
                 ; 0000 013C //   case 3:
                 ; 0000 013D  //  putchar3(S[tmp]);
                 ; 0000 013E   }
                 _0xDF:
                 ; 0000 013F   tmp++;
                +
002160 5f0f     +SUBI R16 , LOW ( - 1 )
002161 4f1f     +SBCI R17 , HIGH ( - 1 )
                 	__ADDWRN 16,17,1
                 ; 0000 0140  }
002162 cfde      	RJMP _0xDA
                 _0xDC:
                 ; 0000 0141 }
002163 8119      	LDD  R17,Y+1
002164 8108      	LDD  R16,Y+0
002165 9625      	ADIW R28,5
002166 9508      	RET
                 ; .FEND
                 ;
                 ;void IntToStr(char* st,int n)//16 bit int to str char
                 ; 0000 0144 {
                 _IntToStr:
                 ; .FSTART _IntToStr
                 ; 0000 0145  unsigned char tmp2;
                 ; 0000 0146  unsigned int tmp=10000,tmpn,ind=0;
                 ; 0000 0147  if(n<0)
002167 93ba      	ST   -Y,R27
002168 93aa      	ST   -Y,R26
002169 9722      	SBIW R28,2
00216a e0e0      	LDI  R30,LOW(0)
00216b 83e8      	ST   Y,R30
00216c 83e9      	STD  Y+1,R30
00216d 940e 2507 	CALL __SAVELOCR6
                 ;	*st -> Y+10
                 ;	n -> Y+8
                 ;	tmp2 -> R17
                 ;	tmp -> R18,R19
                 ;	tmpn -> R20,R21
                 ;	ind -> Y+6
                +
00216f e120     +LDI R18 , LOW ( 10000 )
002170 e237     +LDI R19 , HIGH ( 10000 )
                 	__GETWRN 18,19,10000
002171 85a9      	LDD  R26,Y+9
002172 23aa      	TST  R26
002173 f49a      	BRPL _0xE2
                 ; 0000 0148  {n=-n;
002174 85e8      	LDD  R30,Y+8
002175 85f9      	LDD  R31,Y+8+1
002176 940e 24c6 	CALL __ANEGW1
002178 87e8      	STD  Y+8,R30
002179 87f9      	STD  Y+8+1,R31
                 ; 0000 0149   st[ind]='-';
00217a 81ee      	LDD  R30,Y+6
00217b 81ff      	LDD  R31,Y+6+1
00217c 85aa      	LDD  R26,Y+10
00217d 85bb      	LDD  R27,Y+10+1
00217e 0fae      	ADD  R26,R30
00217f 1fbf      	ADC  R27,R31
002180 e2ed      	LDI  R30,LOW(45)
002181 93ec      	ST   X,R30
                 ; 0000 014A   ind++;}
002182 81ee      	LDD  R30,Y+6
002183 81ff      	LDD  R31,Y+6+1
002184 9631      	ADIW R30,1
002185 83ee      	STD  Y+6,R30
002186 83ff      	STD  Y+6+1,R31
                 ; 0000 014B 
                 ; 0000 014C  tmpn=n;
                 _0xE2:
                +
002187 8548     +LDD R20 , Y + 8
002188 8559     +LDD R21 , Y + 8 + 1
                 	__GETWRS 20,21,8
                 ; 0000 014D 
                 ; 0000 014E  if(n==0)
002189 85e8      	LDD  R30,Y+8
00218a 85f9      	LDD  R31,Y+8+1
00218b 9730      	SBIW R30,0
00218c f431      	BRNE _0xE3
                 ; 0000 014F  {
                 ; 0000 0150   st[0]=0+48;
00218d 85aa      	LDD  R26,Y+10
00218e 85bb      	LDD  R27,Y+10+1
00218f e3e0      	LDI  R30,LOW(48)
002190 93ec      	ST   X,R30
                 ; 0000 0151   st[1]=0;
002191 9611      	ADIW R26,1
002192 c030      	RJMP _0x2040004
                 ; 0000 0152   return;
                 ; 0000 0153  }
                 ; 0000 0154 
                 ; 0000 0155  while(tmp>0)
                 _0xE3:
                 _0xE4:
002193 2400      	CLR  R0
002194 1602      	CP   R0,R18
002195 0603      	CPC  R0,R19
002196 f530      	BRSH _0xE6
                 ; 0000 0156  {
                 ; 0000 0157   if(tmp<=n)
002197 85e8      	LDD  R30,Y+8
002198 85f9      	LDD  R31,Y+8+1
002199 17e2      	CP   R30,R18
00219a 07f3      	CPC  R31,R19
00219b f0d0      	BRLO _0xE7
                 ; 0000 0158   {
                 ; 0000 0159    tmp2=tmpn/tmp;
00219c 01f9      	MOVW R30,R18
00219d 01da      	MOVW R26,R20
00219e 940e 24d7 	CALL __DIVW21U
0021a0 2f1e      	MOV  R17,R30
                 ; 0000 015A    st[ind]=tmp2+48;
0021a1 81ee      	LDD  R30,Y+6
0021a2 81ff      	LDD  R31,Y+6+1
0021a3 85aa      	LDD  R26,Y+10
0021a4 85bb      	LDD  R27,Y+10+1
0021a5 0fae      	ADD  R26,R30
0021a6 1fbf      	ADC  R27,R31
0021a7 2fe1      	MOV  R30,R17
0021a8 5de0      	SUBI R30,-LOW(48)
0021a9 93ec      	ST   X,R30
                 ; 0000 015B    tmpn=tmpn-tmp2*tmp;
0021aa 2fa1      	MOV  R26,R17
0021ab e0b0      	LDI  R27,0
0021ac 01f9      	MOVW R30,R18
0021ad 940e 24cf 	CALL __MULW12U
                +
0021af 1b4e     +SUB R20 , R30
0021b0 0b5f     +SBC R21 , R31
                 	__SUBWRR 20,21,30,31
                 ; 0000 015C    ind++;
0021b1 81ee      	LDD  R30,Y+6
0021b2 81ff      	LDD  R31,Y+6+1
0021b3 9631      	ADIW R30,1
0021b4 83ee      	STD  Y+6,R30
0021b5 83ff      	STD  Y+6+1,R31
                 ; 0000 015D   }
                 ; 0000 015E   tmp=tmp/10;
                 _0xE7:
0021b6 01d9      	MOVW R26,R18
0021b7 e0ea      	LDI  R30,LOW(10)
0021b8 e0f0      	LDI  R31,HIGH(10)
0021b9 940e 24d7 	CALL __DIVW21U
0021bb 019f      	MOVW R18,R30
                 ; 0000 015F  }
0021bc cfd6      	RJMP _0xE4
                 _0xE6:
                 ; 0000 0160  st[ind]=0;
0021bd 81ee      	LDD  R30,Y+6
0021be 81ff      	LDD  R31,Y+6+1
0021bf 85aa      	LDD  R26,Y+10
0021c0 85bb      	LDD  R27,Y+10+1
0021c1 0fae      	ADD  R26,R30
0021c2 1fbf      	ADC  R27,R31
                 _0x2040004:
0021c3 e0e0      	LDI  R30,LOW(0)
0021c4 93ec      	ST   X,R30
                 ; 0000 0161 }
0021c5 940e 250e 	CALL __LOADLOCR6
0021c7 962c      	ADIW R28,12
0021c8 9508      	RET
                 ; .FEND
                 ;
                 ;// Pin change 0-7 interrupt service routine
                 ;interrupt [PC_INT0] void pin_change_isr0(void)
                 ; 0000 0165 {
                 _pin_change_isr0:
                 ; .FSTART _pin_change_isr0
0021c9 93ea      	ST   -Y,R30
0021ca b7ef      	IN   R30,SREG
0021cb 93ea      	ST   -Y,R30
                 ; 0000 0166 // Place your code here
                 ; 0000 0167 if(PINB.4==0)
0021cc 991c      	SBIC 0x3,4
0021cd c008      	RJMP _0xE8
                 ; 0000 0168  {
                 ; 0000 0169   if(PINB.5==1&&PB5_B==1){ENC_counter--;}
0021ce 9b1d      	SBIS 0x3,5
0021cf c003      	RJMP _0xEA
0021d0 e0e1      	LDI  R30,LOW(1)
0021d1 15e5      	CP   R30,R5
0021d2 f009      	BREQ _0xEB
                 _0xEA:
0021d3 c001      	RJMP _0xE9
                 _0xEB:
0021d4 948a      	DEC  R8
                 ; 0000 016A  }
                 _0xE9:
                 ; 0000 016B  else
0021d5 c007      	RJMP _0xEC
                 _0xE8:
                 ; 0000 016C  {
                 ; 0000 016D   if(PINB.5==0&&PB4_B==1){ENC_counter++;}
0021d6 991d      	SBIC 0x3,5
0021d7 c003      	RJMP _0xEE
0021d8 e0e1      	LDI  R30,LOW(1)
0021d9 15e6      	CP   R30,R6
0021da f009      	BREQ _0xEF
                 _0xEE:
0021db c001      	RJMP _0xED
                 _0xEF:
0021dc 9483      	INC  R8
                 ; 0000 016E  }
                 _0xED:
                 _0xEC:
                 ; 0000 016F  PB4_B=PINB.4;
0021dd e0e0      	LDI  R30,0
0021de 991c      	SBIC 0x3,4
0021df e0e1      	LDI  R30,1
0021e0 2e6e      	MOV  R6,R30
                 ; 0000 0170  PB5_B=PINB.5;
0021e1 e0e0      	LDI  R30,0
0021e2 991d      	SBIC 0x3,5
0021e3 e0e1      	LDI  R30,1
0021e4 2e5e      	MOV  R5,R30
                 ; 0000 0171 }
0021e5 91e9      	LD   R30,Y+
0021e6 bfef      	OUT  SREG,R30
0021e7 91e9      	LD   R30,Y+
0021e8 9518      	RETI
                 ; .FEND
                 ;
                 ;// Pin change 8-15 interrupt service routine
                 ;interrupt [PC_INT1] void pin_change_isr1(void)
                 ; 0000 0175 {
                 _pin_change_isr1:
                 ; .FSTART _pin_change_isr1
0021e9 93ea      	ST   -Y,R30
0021ea b7ef      	IN   R30,SREG
0021eb 93ea      	ST   -Y,R30
                 ; 0000 0176  if((PINJ&(0b00001000))>0)
0021ec 91e0 0103 	LDS  R30,259
0021ee 70e8      	ANDI R30,LOW(0x8)
0021ef 30e1      	CPI  R30,LOW(0x1)
0021f0 f038      	BRLO _0xF0
                 ; 0000 0177  {
                 ; 0000 0178   if(Ledon>0)
0021f1 e0e0      	LDI  R30,LOW(0)
0021f2 15ea      	CP   R30,R10
0021f3 f410      	BRSH _0xF1
                 ; 0000 0179    Ledon=0;
0021f4 24aa      	CLR  R10
                 ; 0000 017A   else
0021f5 c002      	RJMP _0xF2
                 _0xF1:
                 ; 0000 017B    Ledon=1;
0021f6 e0e1      	LDI  R30,LOW(1)
0021f7 2eae      	MOV  R10,R30
                 ; 0000 017C  }
                 _0xF2:
                 ; 0000 017D }
                 _0xF0:
0021f8 91e9      	LD   R30,Y+
0021f9 bfef      	OUT  SREG,R30
0021fa 91e9      	LD   R30,Y+
0021fb 9518      	RETI
                 ; .FEND
                 ;
                 ;
                 ;void Led(char R, char G, char B)//Для RGB светодиода  11.0592 MHz
                 ; 0000 0181 {
                 _Led:
                 ; .FSTART _Led
                 ; 0000 0182     unsigned char i;
                 ; 0000 0183     for(i = 0b10000000; i >= 0b00000001; i = i >> 1)//Green
0021fc 93aa      	ST   -Y,R26
0021fd 931a      	ST   -Y,R17
                 ;	R -> Y+3
                 ;	G -> Y+2
                 ;	B -> Y+1
                 ;	i -> R17
0021fe e810      	LDI  R17,LOW(128)
                 _0xF4:
0021ff 3011      	CPI  R17,1
002200 f098      	BRLO _0xF5
                 ; 0000 0184     {
                 ; 0000 0185         if((G & i) > 0)
002201 2fe1      	MOV  R30,R17
002202 81aa      	LDD  R26,Y+2
002203 23ea      	AND  R30,R26
002204 30e1      	CPI  R30,LOW(0x1)
002205 f048      	BRLO _0xF6
                 ; 0000 0186         {RGBPIN=1;//should be 0.9us
002206 9a17      	SBI  0x2,7
                 ; 0000 0187          #asm("nop");#asm("nop");#asm("nop");#asm("nop");#asm("nop");#asm("nop");#asm("nop");
002207 0000      	nop
002208 0000      	nop
002209 0000      	nop
00220a 0000      	nop
00220b 0000      	nop
00220c 0000      	nop
00220d 0000      	nop
                 ; 0000 0188          RGBPIN=0;}//should be 0.35us but ??1.35us also works ok// now it's dick knows
00220e c002      	RJMP _0x129
                 ; 0000 0189         else
                 _0xF6:
                 ; 0000 018A         {RGBPIN=1; //should be 0.35us but 0.4
00220f 9a17      	SBI  0x2,7
                 ; 0000 018B          #asm("nop");
002210 0000      	nop
                 ; 0000 018C          RGBPIN=0;} //should be 0.9us but 1.35us also works ok
                 _0x129:
002211 9817      	CBI  0x2,7
                 ; 0000 018D     }
002212 9516      	LSR  R17
002213 cfeb      	RJMP _0xF4
                 _0xF5:
                 ; 0000 018E     for(i = 0b10000000; i >= 0b00000001; i = i >> 1)//Red
002214 e810      	LDI  R17,LOW(128)
                 _0x101:
002215 3011      	CPI  R17,1
002216 f098      	BRLO _0x102
                 ; 0000 018F     {
                 ; 0000 0190         if((R & i) > 0)
002217 2fe1      	MOV  R30,R17
002218 81ab      	LDD  R26,Y+3
002219 23ea      	AND  R30,R26
00221a 30e1      	CPI  R30,LOW(0x1)
00221b f048      	BRLO _0x103
                 ; 0000 0191         {RGBPIN=1;//should be 0.9us
00221c 9a17      	SBI  0x2,7
                 ; 0000 0192          #asm("nop");#asm("nop");#asm("nop");#asm("nop");#asm("nop");#asm("nop");#asm("nop");
00221d 0000      	nop
00221e 0000      	nop
00221f 0000      	nop
002220 0000      	nop
002221 0000      	nop
002222 0000      	nop
002223 0000      	nop
                 ; 0000 0193          RGBPIN=0;}//should be 0.35us but 1.35us also works ok
002224 c002      	RJMP _0x12A
                 ; 0000 0194 
                 ; 0000 0195         else
                 _0x103:
                 ; 0000 0196         {RGBPIN=1; //should be 0.35us but 0.4
002225 9a17      	SBI  0x2,7
                 ; 0000 0197          #asm("nop");
002226 0000      	nop
                 ; 0000 0198          RGBPIN=0;} //should be 0.9us but 1.35us also works ok
                 _0x12A:
002227 9817      	CBI  0x2,7
                 ; 0000 0199     }
002228 9516      	LSR  R17
002229 cfeb      	RJMP _0x101
                 _0x102:
                 ; 0000 019A     for(i = 0b10000000; i >= 0b00000001; i = i >> 1)//Blue
00222a e810      	LDI  R17,LOW(128)
                 _0x10E:
00222b 3011      	CPI  R17,1
00222c f098      	BRLO _0x10F
                 ; 0000 019B     {
                 ; 0000 019C         if((B & i) > 0)
00222d 2fe1      	MOV  R30,R17
00222e 81a9      	LDD  R26,Y+1
00222f 23ea      	AND  R30,R26
002230 30e1      	CPI  R30,LOW(0x1)
002231 f048      	BRLO _0x110
                 ; 0000 019D         {RGBPIN=1;//should be 0.9us
002232 9a17      	SBI  0x2,7
                 ; 0000 019E          #asm("nop");#asm("nop");#asm("nop");#asm("nop");#asm("nop");#asm("nop");#asm("nop");
002233 0000      	nop
002234 0000      	nop
002235 0000      	nop
002236 0000      	nop
002237 0000      	nop
002238 0000      	nop
002239 0000      	nop
                 ; 0000 019F          RGBPIN=0;}//should be 0.35us but 1.35us also works ok
00223a c002      	RJMP _0x12B
                 ; 0000 01A0         else
                 _0x110:
                 ; 0000 01A1         {RGBPIN=1; //should be 0.35us but 0.4
00223b 9a17      	SBI  0x2,7
                 ; 0000 01A2          #asm("nop");
00223c 0000      	nop
                 ; 0000 01A3          RGBPIN=0;} //should be 0.9us but 1.35us also works ok
                 _0x12B:
00223d 9817      	CBI  0x2,7
                 ; 0000 01A4     }
00223e 9516      	LSR  R17
00223f cfeb      	RJMP _0x10E
                 _0x10F:
                 ; 0000 01A5 }
002240 8118      	LDD  R17,Y+0
002241 9624      	ADIW R28,4
002242 9508      	RET
                 ; .FEND
                 ;
                 ;void hue_to_rgb(unsigned char hue)
                 ; 0000 01A8 {
                 _hue_to_rgb:
                 ; .FSTART _hue_to_rgb
                 ; 0000 01A9  if(hue<=85)
002243 93aa      	ST   -Y,R26
                 ;	hue -> Y+0
002244 81a8      	LD   R26,Y
002245 35a6      	CPI  R26,LOW(0x56)
002246 f480      	BRSH _0x11A
                 ; 0000 01AA  {
                 ; 0000 01AB   GLOBAL_GRB[2]=(85-hue)*3;        // GLOBAL_GRB[0]RB[2]
002247 e5e5      	LDI  R30,LOW(85)
002248 1bea      	SUB  R30,R26
002249 e0a3      	LDI  R26,LOW(3)
00224a 02ea      	MULS R30,R26
00224b 01f0      	MOVW R30,R0
                +
00224c 93e0 0b61+STS _GLOBAL_GRB + ( 2 ) , R30
                 	__PUTB1MN _GLOBAL_GRB,2
                 ; 0000 01AC   GLOBAL_GRB[1]=hue*3;
00224e 81e8      	LD   R30,Y
00224f 02ea      	MULS R30,R26
002250 01f0      	MOVW R30,R0
                +
002251 93e0 0b60+STS _GLOBAL_GRB + ( 1 ) , R30
                 	__PUTB1MN _GLOBAL_GRB,1
                 ; 0000 01AD   GLOBAL_GRB[0]=0;
002253 e0e0      	LDI  R30,LOW(0)
002254 93e0 0b5f 	STS  _GLOBAL_GRB,R30
                 ; 0000 01AE   return;
002256 c04f      	RJMP _0x2040003
                 ; 0000 01AF  }
                 ; 0000 01B0   if(hue>170)
                 _0x11A:
002257 81a8      	LD   R26,Y
002258 3aab      	CPI  R26,LOW(0xAB)
002259 f098      	BRLO _0x11B
                 ; 0000 01B1  {
                 ; 0000 01B2   GLOBAL_GRB[2]=(hue-171)*3;
00225a 81e8      	LD   R30,Y
00225b 5aeb      	SUBI R30,LOW(171)
00225c e0a3      	LDI  R26,LOW(3)
00225d 02ea      	MULS R30,R26
00225e 01f0      	MOVW R30,R0
                +
00225f 93e0 0b61+STS _GLOBAL_GRB + ( 2 ) , R30
                 	__PUTB1MN _GLOBAL_GRB,2
                 ; 0000 01B3   GLOBAL_GRB[1]=0;
002261 e0e0      	LDI  R30,LOW(0)
                +
002262 93e0 0b60+STS _GLOBAL_GRB + ( 1 ) , R30
                 	__PUTB1MN _GLOBAL_GRB,1
                 ; 0000 01B4   GLOBAL_GRB[0]=(255-hue)*3;
002264 81a8      	LD   R26,Y
002265 efef      	LDI  R30,LOW(255)
002266 1bea      	SUB  R30,R26
002267 e0a3      	LDI  R26,LOW(3)
002268 02ea      	MULS R30,R26
002269 01f0      	MOVW R30,R0
00226a 93e0 0b5f 	STS  _GLOBAL_GRB,R30
                 ; 0000 01B5   return;
00226c c039      	RJMP _0x2040003
                 ; 0000 01B6  }
                 ; 0000 01B7  else
                 _0x11B:
                 ; 0000 01B8  {
                 ; 0000 01B9   GLOBAL_GRB[2]=0;
00226d e0e0      	LDI  R30,LOW(0)
                +
00226e 93e0 0b61+STS _GLOBAL_GRB + ( 2 ) , R30
                 	__PUTB1MN _GLOBAL_GRB,2
                 ; 0000 01BA   GLOBAL_GRB[1]=(171-hue)*3;
002270 81a8      	LD   R26,Y
002271 eaeb      	LDI  R30,LOW(171)
002272 1bea      	SUB  R30,R26
002273 e0a3      	LDI  R26,LOW(3)
002274 02ea      	MULS R30,R26
002275 01f0      	MOVW R30,R0
                +
002276 93e0 0b60+STS _GLOBAL_GRB + ( 1 ) , R30
                 	__PUTB1MN _GLOBAL_GRB,1
                 ; 0000 01BB   GLOBAL_GRB[0]=(hue-86)*3;
002278 81e8      	LD   R30,Y
002279 55e6      	SUBI R30,LOW(86)
00227a 02ea      	MULS R30,R26
00227b 01f0      	MOVW R30,R0
00227c 93e0 0b5f 	STS  _GLOBAL_GRB,R30
                 ; 0000 01BC   return;
00227e c027      	RJMP _0x2040003
                 ; 0000 01BD  }
                 ; 0000 01BE }
                 ; .FEND
                 ;
                 ;//Timer3 DELAY TIMEOUT-------------------------------------------------------------
                 ;// Timer3 overflow interrupt
                 ;//General purpose timer (delays timeouts etc)
                 ;//max P=6s (10800Hz  65535)
                 ;interrupt [TIM3_OVF] void timer3_ovf_isr(void)
                 ; 0000 01C5 {
                 _timer3_ovf_isr:
                 ; .FSTART _timer3_ovf_isr
00227f 93ea      	ST   -Y,R30
                 ; 0000 01C6  TCCR3B=0;//t3 off
002280 e0e0      	LDI  R30,LOW(0)
002281 93e0 0091 	STS  145,R30
                 ; 0000 01C7  T3_ready=1;
002283 e0e1      	LDI  R30,LOW(1)
002284 2e7e      	MOV  R7,R30
                 ; 0000 01C8 }
002285 91e9      	LD   R30,Y+
002286 9518      	RETI
                 ; .FEND
                 ;
                 ;void T3_delay(unsigned char d)//1-255 * 23.7ms
                 ; 0000 01CB {
                 _T3_delay:
                 ; .FSTART _T3_delay
                 ; 0000 01CC  T3_ready=0;
002287 93aa      	ST   -Y,R26
                 ;	d -> Y+0
002288 2477      	CLR  R7
                 ; 0000 01CD  TCNT3H=(255-d)+1;
002289 81a8      	LD   R26,Y
00228a efef      	LDI  R30,LOW(255)
00228b 1bea      	SUB  R30,R26
00228c 5fef      	SUBI R30,-LOW(1)
00228d 93e0 0095 	STS  149,R30
                 ; 0000 01CE  TCNT3L=0;
00228f e0e0      	LDI  R30,LOW(0)
002290 93e0 0094 	STS  148,R30
                 ; 0000 01CF  TCCR3B=5;//T3 on 10800Hz
002292 e0e5      	LDI  R30,LOW(5)
002293 93e0 0091 	STS  145,R30
                 ; 0000 01D0  while(T3_ready==0){};
                 _0x11D:
002295 2077      	TST  R7
002296 f3f1      	BREQ _0x11D
                 ; 0000 01D1 }
002297 c00e      	RJMP _0x2040003
                 ; .FEND
                 ;
                 ;
                 ;//start timeout (do smth until overflow interrupt set T3_ready=1)
                 ;void T3_timeout(unsigned char d)//1-255 * 23.7ms
                 ; 0000 01D6 {
                 _T3_timeout:
                 ; .FSTART _T3_timeout
                 ; 0000 01D7  T3_ready=0;
002298 93aa      	ST   -Y,R26
                 ;	d -> Y+0
002299 2477      	CLR  R7
                 ; 0000 01D8  TCNT3H=(255-d)+1;
00229a 81a8      	LD   R26,Y
00229b efef      	LDI  R30,LOW(255)
00229c 1bea      	SUB  R30,R26
00229d 5fef      	SUBI R30,-LOW(1)
00229e 93e0 0095 	STS  149,R30
                 ; 0000 01D9  TCNT3L=0;
0022a0 e0e0      	LDI  R30,LOW(0)
0022a1 93e0 0094 	STS  148,R30
                 ; 0000 01DA  TCCR3B=5;//T3 on 10800Hz
0022a3 e0e5      	LDI  R30,LOW(5)
0022a4 93e0 0091 	STS  145,R30
                 ; 0000 01DB }
                 _0x2040003:
0022a6 9621      	ADIW R28,1
0022a7 9508      	RET
                 ; .FEND
                 ;//Timer3 DELAY-------------------------------------------------------------
                 	#ifndef __SLEEP_DEFINED__
                 	#endif
                 
                 	.DSEG
                 
                 	.CSEG
                 _twi_master_init:
                 ; .FSTART _twi_master_init
0022a8 93ba      	ST   -Y,R27
0022a9 93aa      	ST   -Y,R26
0022aa 931a      	ST   -Y,R17
0022ab 9af1      	SBI  0x1E,1
0022ac e0e7      	LDI  R30,LOW(7)
0022ad 93e0 0add 	STS  _twi_result,R30
0022af e0e0      	LDI  R30,LOW(0)
0022b0 93e0 0f86 	STS  _twi_slave_rx_handler_G100,R30
0022b2 93e0 0f87 	STS  _twi_slave_rx_handler_G100+1,R30
0022b4 93e0 0f88 	STS  _twi_slave_tx_handler_G100,R30
0022b6 93e0 0f89 	STS  _twi_slave_tx_handler_G100+1,R30
0022b8 9a59      	SBI  0xB,1
0022b9 9a58      	SBI  0xB,0
0022ba 93e0 00bc 	STS  188,R30
0022bc 91e0 00b9 	LDS  R30,185
0022be 7fec      	ANDI R30,LOW(0xFC)
0022bf 93e0 00b9 	STS  185,R30
0022c1 81e9      	LDD  R30,Y+1
0022c2 81fa      	LDD  R31,Y+1+1
0022c3 e9a9      	LDI  R26,LOW(5529)
0022c4 e1b5      	LDI  R27,HIGH(5529)
0022c5 940e 24d7 	CALL __DIVW21U
0022c7 2f1e      	MOV  R17,R30
0022c8 3018      	CPI  R17,8
0022c9 f008      	BRLO _0x2000006
0022ca 5018      	SUBI R17,LOW(8)
                 _0x2000006:
0022cb 9310 00b8 	STS  184,R17
0022cd 91e0 00bc 	LDS  R30,188
0022cf 78e0      	ANDI R30,LOW(0x80)
0022d0 64e5      	ORI  R30,LOW(0x45)
0022d1 93e0 00bc 	STS  188,R30
0022d3 8118      	LDD  R17,Y+0
0022d4 9623      	ADIW R28,3
0022d5 9508      	RET
                 ; .FEND
                 _twi_master_trans:
                 ; .FSTART _twi_master_trans
0022d6 93aa      	ST   -Y,R26
0022d7 9724      	SBIW R28,4
0022d8 9bf1      	SBIS 0x1E,1
0022d9 c063      	RJMP _0x2000007
0022da 85ea      	LDD  R30,Y+10
0022db 0fee      	LSL  R30
0022dc 93e0 0f7e 	STS  _slave_address_G100,R30
0022de 85e8      	LDD  R30,Y+8
0022df 85f9      	LDD  R31,Y+8+1
0022e0 93e0 0f7f 	STS  _twi_tx_buffer_G100,R30
0022e2 93f0 0f80 	STS  _twi_tx_buffer_G100+1,R31
0022e4 e0e0      	LDI  R30,LOW(0)
0022e5 93e0 0adb 	STS  _twi_tx_index,R30
0022e7 81ef      	LDD  R30,Y+7
0022e8 93e0 0f81 	STS  _bytes_to_tx_G100,R30
0022ea 81ed      	LDD  R30,Y+5
0022eb 81fe      	LDD  R31,Y+5+1
0022ec 93e0 0f82 	STS  _twi_rx_buffer_G100,R30
0022ee 93f0 0f83 	STS  _twi_rx_buffer_G100+1,R31
0022f0 e0e0      	LDI  R30,LOW(0)
0022f1 93e0 0adc 	STS  _twi_rx_index,R30
0022f3 81ec      	LDD  R30,Y+4
0022f4 93e0 0f84 	STS  _bytes_to_rx_G100,R30
0022f6 e0e6      	LDI  R30,LOW(6)
0022f7 93e0 0add 	STS  _twi_result,R30
0022f9 9478      	sei
0022fa 81ef      	LDD  R30,Y+7
0022fb 30e0      	CPI  R30,0
0022fc f081      	BREQ _0x2000008
0022fd 85e8      	LDD  R30,Y+8
0022fe 85f9      	LDD  R31,Y+8+1
0022ff 9730      	SBIW R30,0
002300 f409      	BRNE _0x2000009
002301 c03b      	RJMP _0x2040002
                 _0x2000009:
002302 81ec      	LDD  R30,Y+4
002303 30e0      	CPI  R30,0
002304 f021      	BREQ _0x200000B
002305 81ad      	LDD  R26,Y+5
002306 81be      	LDD  R27,Y+5+1
002307 9710      	SBIW R26,0
002308 f009      	BREQ _0x200000C
                 _0x200000B:
002309 c001      	RJMP _0x200000A
                 _0x200000C:
00230a c032      	RJMP _0x2040002
                 _0x200000A:
00230b 9af0      	SBI  0x1E,0
00230c c00d      	RJMP _0x200000F
                 _0x2000008:
00230d 81ec      	LDD  R30,Y+4
00230e 30e0      	CPI  R30,0
00230f f139      	BREQ _0x2000010
002310 81ed      	LDD  R30,Y+5
002311 81fe      	LDD  R31,Y+5+1
002312 9730      	SBIW R30,0
002313 f149      	BREQ _0x2040002
002314 91e0 0f7e 	LDS  R30,_slave_address_G100
002316 60e1      	ORI  R30,1
002317 93e0 0f7e 	STS  _slave_address_G100,R30
002319 98f0      	CBI  0x1E,0
                 _0x200000F:
00231a 98f1      	CBI  0x1E,1
00231b 91e0 00bc 	LDS  R30,188
00231d 70ef      	ANDI R30,LOW(0xF)
00231e 6ae0      	ORI  R30,LOW(0xA0)
00231f 93e0 00bc 	STS  188,R30
                +
002321 e2e0     +LDI R30 , LOW ( 0x7A120 )
002322 eaf1     +LDI R31 , HIGH ( 0x7A120 )
002323 e067     +LDI R22 , BYTE3 ( 0x7A120 )
002324 e070     +LDI R23 , BYTE4 ( 0x7A120 )
                 	__GETD1N 0x7A120
002325 940e 2502 	CALL __PUTD1S0
                 _0x2000016:
002327 99f1      	SBIC 0x1E,1
002328 c00e      	RJMP _0x2000018
002329 940e 24fd 	CALL __GETD1S0
00232b 9731      	SBIW R30,1
00232c 4060      	SBCI R22,0
00232d 4070      	SBCI R23,0
00232e 940e 2502 	CALL __PUTD1S0
002330 f429      	BRNE _0x2000019
002331 e0e5      	LDI  R30,LOW(5)
002332 93e0 0add 	STS  _twi_result,R30
002334 9af1      	SBI  0x1E,1
002335 c007      	RJMP _0x2040002
                 _0x2000019:
002336 cff0      	RJMP _0x2000016
                 _0x2000018:
                 _0x2000010:
002337 91a0 0add 	LDS  R26,_twi_result
002339 e0e0      	LDI  R30,LOW(0)
00233a 940e 24ca 	CALL __EQB12
00233c c001      	RJMP _0x2040001
                 _0x2000007:
                 _0x2040002:
00233d e0e0      	LDI  R30,LOW(0)
                 _0x2040001:
00233e 962b      	ADIW R28,11
00233f 9508      	RET
                 ; .FEND
                 _twi_int_handler:
                 ; .FSTART _twi_int_handler
002340 920a      	ST   -Y,R0
002341 921a      	ST   -Y,R1
002342 92fa      	ST   -Y,R15
002343 936a      	ST   -Y,R22
002344 937a      	ST   -Y,R23
002345 938a      	ST   -Y,R24
002346 939a      	ST   -Y,R25
002347 93aa      	ST   -Y,R26
002348 93ba      	ST   -Y,R27
002349 93ea      	ST   -Y,R30
00234a 93fa      	ST   -Y,R31
00234b b7ef      	IN   R30,SREG
00234c 93ea      	ST   -Y,R30
00234d 940e 2507 	CALL __SAVELOCR6
00234f 9110 0adc 	LDS  R17,_twi_rx_index
002351 9100 0adb 	LDS  R16,_twi_tx_index
002353 9130 0f81 	LDS  R19,_bytes_to_tx_G100
002355 9120 0add 	LDS  R18,_twi_result
002357 2fe1      	MOV  R30,R17
002358 91a0 0f82 	LDS  R26,_twi_rx_buffer_G100
00235a 91b0 0f83 	LDS  R27,_twi_rx_buffer_G100+1
00235c e0f0      	LDI  R31,0
00235d 0fea      	ADD  R30,R26
00235e 1ffb      	ADC  R31,R27
00235f 01af      	MOVW R20,R30
002360 91e0 00b9 	LDS  R30,185
002362 7fe8      	ANDI R30,LOW(0xF8)
002363 30e8      	CPI  R30,LOW(0x8)
002364 f411      	BRNE _0x2000023
002365 e020      	LDI  R18,LOW(0)
002366 c002      	RJMP _0x2000024
                 _0x2000023:
002367 31e0      	CPI  R30,LOW(0x10)
002368 f419      	BRNE _0x2000025
                 _0x2000024:
002369 91e0 0f7e 	LDS  R30,_slave_address_G100
00236b c010      	RJMP _0x2000080
                 _0x2000025:
00236c 31e8      	CPI  R30,LOW(0x18)
00236d f011      	BREQ _0x2000029
00236e 32e8      	CPI  R30,LOW(0x28)
00236f f541      	BRNE _0x200002A
                 _0x2000029:
002370 1703      	CP   R16,R19
002371 f498      	BRSH _0x200002B
002372 2fe0      	MOV  R30,R16
002373 5f0f      	SUBI R16,-1
002374 91a0 0f7f 	LDS  R26,_twi_tx_buffer_G100
002376 91b0 0f80 	LDS  R27,_twi_tx_buffer_G100+1
002378 e0f0      	LDI  R31,0
002379 0fae      	ADD  R26,R30
00237a 1fbf      	ADC  R27,R31
00237b 91ec      	LD   R30,X
                 _0x2000080:
00237c 93e0 00bb 	STS  187,R30
00237e 91e0 00bc 	LDS  R30,188
002380 70ef      	ANDI R30,LOW(0xF)
002381 68e0      	ORI  R30,0x80
002382 93e0 00bc 	STS  188,R30
002384 c012      	RJMP _0x200002C
                 _0x200002B:
002385 91e0 0f84 	LDS  R30,_bytes_to_rx_G100
002387 171e      	CP   R17,R30
002388 f468      	BRSH _0x200002D
002389 91e0 0f7e 	LDS  R30,_slave_address_G100
00238b 60e1      	ORI  R30,1
00238c 93e0 0f7e 	STS  _slave_address_G100,R30
00238e 98f0      	CBI  0x1E,0
00238f 91e0 00bc 	LDS  R30,188
002391 70ef      	ANDI R30,LOW(0xF)
002392 6ae0      	ORI  R30,LOW(0xA0)
002393 93e0 00bc 	STS  188,R30
002395 c10d      	RJMP _0x2000022
                 _0x200002D:
002396 c038      	RJMP _0x2000030
                 _0x200002C:
002397 c10b      	RJMP _0x2000022
                 _0x200002A:
002398 35e0      	CPI  R30,LOW(0x50)
002399 f431      	BRNE _0x2000031
00239a 91e0 00bb 	LDS  R30,187
00239c 01da      	MOVW R26,R20
00239d 93ec      	ST   X,R30
00239e 5f1f      	SUBI R17,-LOW(1)
00239f c002      	RJMP _0x2000032
                 _0x2000031:
0023a0 34e0      	CPI  R30,LOW(0x40)
0023a1 f489      	BRNE _0x2000033
                 _0x2000032:
0023a2 91e0 0f84 	LDS  R30,_bytes_to_rx_G100
0023a4 50e1      	SUBI R30,LOW(1)
0023a5 171e      	CP   R17,R30
0023a6 f028      	BRLO _0x2000034
0023a7 91e0 00bc 	LDS  R30,188
0023a9 70ef      	ANDI R30,LOW(0xF)
0023aa 68e0      	ORI  R30,0x80
0023ab c004      	RJMP _0x2000081
                 _0x2000034:
0023ac 91e0 00bc 	LDS  R30,188
0023ae 70ef      	ANDI R30,LOW(0xF)
0023af 6ce0      	ORI  R30,LOW(0xC0)
                 _0x2000081:
0023b0 93e0 00bc 	STS  188,R30
0023b2 c0f0      	RJMP _0x2000022
                 _0x2000033:
0023b3 35e8      	CPI  R30,LOW(0x58)
0023b4 f431      	BRNE _0x2000036
0023b5 91e0 00bb 	LDS  R30,187
0023b7 01da      	MOVW R26,R20
0023b8 93ec      	ST   X,R30
0023b9 5f1f      	SUBI R17,-LOW(1)
0023ba c002      	RJMP _0x2000037
                 _0x2000036:
0023bb 32e0      	CPI  R30,LOW(0x20)
0023bc f409      	BRNE _0x2000038
                 _0x2000037:
0023bd c002      	RJMP _0x2000039
                 _0x2000038:
0023be 33e0      	CPI  R30,LOW(0x30)
0023bf f409      	BRNE _0x200003A
                 _0x2000039:
0023c0 c002      	RJMP _0x200003B
                 _0x200003A:
0023c1 34e8      	CPI  R30,LOW(0x48)
0023c2 f469      	BRNE _0x200003C
                 _0x200003B:
0023c3 3020      	CPI  R18,0
0023c4 f451      	BRNE _0x200003D
0023c5 9bf0      	SBIS 0x1E,0
0023c6 c003      	RJMP _0x200003E
0023c7 1703      	CP   R16,R19
0023c8 f028      	BRLO _0x2000040
0023c9 c005      	RJMP _0x2000041
                 _0x200003E:
0023ca 91e0 0f84 	LDS  R30,_bytes_to_rx_G100
0023cc 171e      	CP   R17,R30
0023cd f408      	BRSH _0x2000042
                 _0x2000040:
0023ce e024      	LDI  R18,LOW(4)
                 _0x2000042:
                 _0x2000041:
                 _0x200003D:
                 _0x2000030:
0023cf c0cc      	RJMP _0x2000082
                 _0x200003C:
0023d0 33e8      	CPI  R30,LOW(0x38)
0023d1 f431      	BRNE _0x2000045
0023d2 e022      	LDI  R18,LOW(2)
0023d3 91e0 00bc 	LDS  R30,188
0023d5 70ef      	ANDI R30,LOW(0xF)
0023d6 68e0      	ORI  R30,0x80
0023d7 c0c8      	RJMP _0x2000083
                 _0x2000045:
0023d8 36e8      	CPI  R30,LOW(0x68)
0023d9 f011      	BREQ _0x2000048
0023da 37e8      	CPI  R30,LOW(0x78)
0023db f411      	BRNE _0x2000049
                 _0x2000048:
0023dc e022      	LDI  R18,LOW(2)
0023dd c005      	RJMP _0x200004A
                 _0x2000049:
0023de 36e0      	CPI  R30,LOW(0x60)
0023df f011      	BREQ _0x200004D
0023e0 37e0      	CPI  R30,LOW(0x70)
0023e1 f4a1      	BRNE _0x200004E
                 _0x200004D:
0023e2 e020      	LDI  R18,LOW(0)
                 _0x200004A:
0023e3 e010      	LDI  R17,LOW(0)
0023e4 98f0      	CBI  0x1E,0
0023e5 91e0 0f85 	LDS  R30,_twi_rx_buffer_size_G100
0023e7 30e0      	CPI  R30,0
0023e8 f431      	BRNE _0x2000051
0023e9 e021      	LDI  R18,LOW(1)
0023ea 91e0 00bc 	LDS  R30,188
0023ec 70ef      	ANDI R30,LOW(0xF)
0023ed 68e0      	ORI  R30,0x80
0023ee c004      	RJMP _0x2000084
                 _0x2000051:
0023ef 91e0 00bc 	LDS  R30,188
0023f1 70ef      	ANDI R30,LOW(0xF)
0023f2 6ce0      	ORI  R30,LOW(0xC0)
                 _0x2000084:
0023f3 93e0 00bc 	STS  188,R30
0023f5 c0ad      	RJMP _0x2000022
                 _0x200004E:
0023f6 38e0      	CPI  R30,LOW(0x80)
0023f7 f011      	BREQ _0x2000054
0023f8 39e0      	CPI  R30,LOW(0x90)
0023f9 f539      	BRNE _0x2000055
                 _0x2000054:
0023fa 9bf0      	SBIS 0x1E,0
0023fb c002      	RJMP _0x2000056
0023fc e021      	LDI  R18,LOW(1)
0023fd c09e      	RJMP _0x2000057
                 _0x2000056:
0023fe 91e0 00bb 	LDS  R30,187
002400 01da      	MOVW R26,R20
002401 93ec      	ST   X,R30
002402 5f1f      	SUBI R17,-LOW(1)
002403 91e0 0f85 	LDS  R30,_twi_rx_buffer_size_G100
002405 171e      	CP   R17,R30
002406 f4c0      	BRSH _0x2000058
002407 91e0 0f86 	LDS  R30,_twi_slave_rx_handler_G100
002409 91f0 0f87 	LDS  R31,_twi_slave_rx_handler_G100+1
00240b 9730      	SBIW R30,0
00240c f411      	BRNE _0x2000059
00240d e026      	LDI  R18,LOW(6)
00240e c08d      	RJMP _0x2000057
                 _0x2000059:
00240f e0a0      	LDI  R26,LOW(0)
                +
002410 91e0 0f86+LDS R30 , _twi_slave_rx_handler_G100 + ( 0 )
002412 91f0 0f87+LDS R31 , _twi_slave_rx_handler_G100 + ( 0 ) + 1
002414 9509     +ICALL
                 	__CALL1MN _twi_slave_rx_handler_G100,0
002415 30e0      	CPI  R30,0
002416 f039      	BREQ _0x200005A
002417 91e0 00bc 	LDS  R30,188
002419 70ef      	ANDI R30,LOW(0xF)
00241a 6ce0      	ORI  R30,LOW(0xC0)
00241b 93e0 00bc 	STS  188,R30
00241d c085      	RJMP _0x2000022
                 _0x200005A:
00241e c001      	RJMP _0x200005B
                 _0x2000058:
00241f 9af0      	SBI  0x1E,0
                 _0x200005B:
002420 c002      	RJMP _0x200005E
                 _0x2000055:
002421 38e8      	CPI  R30,LOW(0x88)
002422 f409      	BRNE _0x200005F
                 _0x200005E:
002423 c002      	RJMP _0x2000060
                 _0x200005F:
002424 39e8      	CPI  R30,LOW(0x98)
002425 f439      	BRNE _0x2000061
                 _0x2000060:
002426 91e0 00bc 	LDS  R30,188
002428 70ef      	ANDI R30,LOW(0xF)
002429 68e0      	ORI  R30,0x80
00242a 93e0 00bc 	STS  188,R30
00242c c076      	RJMP _0x2000022
                 _0x2000061:
00242d 3ae0      	CPI  R30,LOW(0xA0)
00242e f4b1      	BRNE _0x2000062
00242f 91e0 00bc 	LDS  R30,188
002431 70ef      	ANDI R30,LOW(0xF)
002432 6ce0      	ORI  R30,LOW(0xC0)
002433 93e0 00bc 	STS  188,R30
002435 9af1      	SBI  0x1E,1
002436 91e0 0f86 	LDS  R30,_twi_slave_rx_handler_G100
002438 91f0 0f87 	LDS  R31,_twi_slave_rx_handler_G100+1
00243a 9730      	SBIW R30,0
00243b f039      	BREQ _0x2000065
00243c e0a1      	LDI  R26,LOW(1)
                +
00243d 91e0 0f86+LDS R30 , _twi_slave_rx_handler_G100 + ( 0 )
00243f 91f0 0f87+LDS R31 , _twi_slave_rx_handler_G100 + ( 0 ) + 1
002441 9509     +ICALL
                 	__CALL1MN _twi_slave_rx_handler_G100,0
002442 c001      	RJMP _0x2000066
                 _0x2000065:
002443 e026      	LDI  R18,LOW(6)
                 _0x2000066:
002444 c05e      	RJMP _0x2000022
                 _0x2000062:
002445 3be0      	CPI  R30,LOW(0xB0)
002446 f411      	BRNE _0x2000067
002447 e022      	LDI  R18,LOW(2)
002448 c002      	RJMP _0x2000068
                 _0x2000067:
002449 3ae8      	CPI  R30,LOW(0xA8)
00244a f4b1      	BRNE _0x2000069
                 _0x2000068:
00244b 91e0 0f88 	LDS  R30,_twi_slave_tx_handler_G100
00244d 91f0 0f89 	LDS  R31,_twi_slave_tx_handler_G100+1
00244f 9730      	SBIW R30,0
002450 f059      	BREQ _0x200006A
002451 e0a0      	LDI  R26,LOW(0)
                +
002452 91e0 0f88+LDS R30 , _twi_slave_tx_handler_G100 + ( 0 )
002454 91f0 0f89+LDS R31 , _twi_slave_tx_handler_G100 + ( 0 ) + 1
002456 9509     +ICALL
                 	__CALL1MN _twi_slave_tx_handler_G100,0
002457 2f3e      	MOV  R19,R30
002458 30e0      	CPI  R30,0
002459 f011      	BREQ _0x200006C
00245a e020      	LDI  R18,LOW(0)
00245b c002      	RJMP _0x200006D
                 _0x200006A:
                 _0x200006C:
00245c e026      	LDI  R18,LOW(6)
00245d c03e      	RJMP _0x2000057
                 _0x200006D:
00245e e000      	LDI  R16,LOW(0)
00245f 98f0      	CBI  0x1E,0
002460 c002      	RJMP _0x2000070
                 _0x2000069:
002461 3be8      	CPI  R30,LOW(0xB8)
002462 f4f9      	BRNE _0x2000071
                 _0x2000070:
002463 9bf0      	SBIS 0x1E,0
002464 c002      	RJMP _0x2000072
002465 e021      	LDI  R18,LOW(1)
002466 c035      	RJMP _0x2000057
                 _0x2000072:
002467 2fe0      	MOV  R30,R16
002468 5f0f      	SUBI R16,-1
002469 91a0 0f7f 	LDS  R26,_twi_tx_buffer_G100
00246b 91b0 0f80 	LDS  R27,_twi_tx_buffer_G100+1
00246d e0f0      	LDI  R31,0
00246e 0fae      	ADD  R26,R30
00246f 1fbf      	ADC  R27,R31
002470 91ec      	LD   R30,X
002471 93e0 00bb 	STS  187,R30
002473 1703      	CP   R16,R19
002474 f428      	BRSH _0x2000073
002475 91e0 00bc 	LDS  R30,188
002477 70ef      	ANDI R30,LOW(0xF)
002478 6ce0      	ORI  R30,LOW(0xC0)
002479 c005      	RJMP _0x2000085
                 _0x2000073:
00247a 9af0      	SBI  0x1E,0
00247b 91e0 00bc 	LDS  R30,188
00247d 70ef      	ANDI R30,LOW(0xF)
00247e 68e0      	ORI  R30,0x80
                 _0x2000085:
00247f 93e0 00bc 	STS  188,R30
002481 c021      	RJMP _0x2000022
                 _0x2000071:
002482 3ce0      	CPI  R30,LOW(0xC0)
002483 f011      	BREQ _0x2000078
002484 3ce8      	CPI  R30,LOW(0xC8)
002485 f499      	BRNE _0x2000079
                 _0x2000078:
002486 91e0 00bc 	LDS  R30,188
002488 70ef      	ANDI R30,LOW(0xF)
002489 6ce0      	ORI  R30,LOW(0xC0)
00248a 93e0 00bc 	STS  188,R30
00248c 91e0 0f88 	LDS  R30,_twi_slave_tx_handler_G100
00248e 91f0 0f89 	LDS  R31,_twi_slave_tx_handler_G100+1
002490 9730      	SBIW R30,0
002491 f031      	BREQ _0x200007A
002492 e0a1      	LDI  R26,LOW(1)
                +
002493 91e0 0f88+LDS R30 , _twi_slave_tx_handler_G100 + ( 0 )
002495 91f0 0f89+LDS R31 , _twi_slave_tx_handler_G100 + ( 0 ) + 1
002497 9509     +ICALL
                 	__CALL1MN _twi_slave_tx_handler_G100,0
                 _0x200007A:
002498 c009      	RJMP _0x2000043
                 _0x2000079:
002499 30e0      	CPI  R30,0
00249a f441      	BRNE _0x2000022
00249b e023      	LDI  R18,LOW(3)
                 _0x2000057:
                 _0x2000082:
00249c 91e0 00bc 	LDS  R30,188
00249e 70ef      	ANDI R30,LOW(0xF)
00249f 6de0      	ORI  R30,LOW(0xD0)
                 _0x2000083:
0024a0 93e0 00bc 	STS  188,R30
                 _0x2000043:
0024a2 9af1      	SBI  0x1E,1
                 _0x2000022:
0024a3 9310 0adc 	STS  _twi_rx_index,R17
0024a5 9300 0adb 	STS  _twi_tx_index,R16
0024a7 9320 0add 	STS  _twi_result,R18
0024a9 9330 0f81 	STS  _bytes_to_tx_G100,R19
0024ab 940e 250e 	CALL __LOADLOCR6
0024ad 9626      	ADIW R28,6
0024ae 91e9      	LD   R30,Y+
0024af bfef      	OUT  SREG,R30
0024b0 91f9      	LD   R31,Y+
0024b1 91e9      	LD   R30,Y+
0024b2 91b9      	LD   R27,Y+
0024b3 91a9      	LD   R26,Y+
0024b4 9199      	LD   R25,Y+
0024b5 9189      	LD   R24,Y+
0024b6 9179      	LD   R23,Y+
0024b7 9169      	LD   R22,Y+
0024b8 90f9      	LD   R15,Y+
0024b9 9019      	LD   R1,Y+
0024ba 9009      	LD   R0,Y+
0024bb 9518      	RETI
                 ; .FEND
                 
                 	.CSEG
                 
                 	.DSEG
                 _twi_tx_index:
000adb           	.BYTE 0x1
                 _twi_rx_index:
000adc           	.BYTE 0x1
                 _twi_result:
000add           	.BYTE 0x1
                 _tx_buffer:
000ade           	.BYTE 0x81
                 _GLOBAL_GRB:
000b5f           	.BYTE 0x3
                 _OLED_text:
000b62           	.BYTE 0x1E
                 _WiFi_buf:
000b80           	.BYTE 0x5
                 _WiFi_reset_no_activity_counter:
000b85           	.BYTE 0x1
                 _HTML_info_N:
000b86           	.BYTE 0x1
                 _WiFi_Connection_Request:
000b87           	.BYTE 0x5
                 _WiFi_Request_Value:
000b8c           	.BYTE 0x96
                 _WiFi_Connection_CommandID:
000c22           	.BYTE 0x5
                 _WiFi_reset_flag:
000c27           	.BYTE 0x2
                 _HTML_main_code:
000c29           	.BYTE 0x260
                 _HTML_info_code:
000e89           	.BYTE 0xF5
                 _slave_address_G100:
000f7e           	.BYTE 0x1
                 _twi_tx_buffer_G100:
000f7f           	.BYTE 0x2
                 _bytes_to_tx_G100:
000f81           	.BYTE 0x1
                 _twi_rx_buffer_G100:
000f82           	.BYTE 0x2
                 _bytes_to_rx_G100:
000f84           	.BYTE 0x1
                 _twi_rx_buffer_size_G100:
000f85           	.BYTE 0x1
                 _twi_slave_rx_handler_G100:
000f86           	.BYTE 0x2
                 _twi_slave_tx_handler_G100:
000f88           	.BYTE 0x2
                 
                 	.CSEG
                 
                 	.CSEG
                 _delay_ms:
0024bc 9610      	adiw r26,0
0024bd f039      	breq __delay_ms1
                 __delay_ms0:
                +
0024be ec8d     +LDI R24 , LOW ( 0xACD )
0024bf e09a     +LDI R25 , HIGH ( 0xACD )
                +__DELAY_USW_LOOP :
0024c0 9701     +SBIW R24 , 1
0024c1 f7f1     +BRNE __DELAY_USW_LOOP
                 	__DELAY_USW 0xACD
0024c2 95a8      	wdr
0024c3 9711      	sbiw r26,1
0024c4 f7c9      	brne __delay_ms0
                 __delay_ms1:
0024c5 9508      	ret
                 
                 __ANEGW1:
0024c6 95f1      	NEG  R31
0024c7 95e1      	NEG  R30
0024c8 40f0      	SBCI R31,0
0024c9 9508      	RET
                 
                 __EQB12:
0024ca 17ea      	CP   R30,R26
0024cb e0e1      	LDI  R30,1
0024cc f009      	BREQ __EQB12T
0024cd 27ee      	CLR  R30
                 __EQB12T:
0024ce 9508      	RET
                 
                 __MULW12U:
0024cf 9ffa      	MUL  R31,R26
0024d0 2df0      	MOV  R31,R0
0024d1 9feb      	MUL  R30,R27
0024d2 0df0      	ADD  R31,R0
0024d3 9fea      	MUL  R30,R26
0024d4 2de0      	MOV  R30,R0
0024d5 0df1      	ADD  R31,R1
0024d6 9508      	RET
                 
                 __DIVW21U:
0024d7 2400      	CLR  R0
0024d8 2411      	CLR  R1
0024d9 e190      	LDI  R25,16
                 __DIVW21U1:
0024da 0faa      	LSL  R26
0024db 1fbb      	ROL  R27
0024dc 1c00      	ROL  R0
0024dd 1c11      	ROL  R1
0024de 1a0e      	SUB  R0,R30
0024df 0a1f      	SBC  R1,R31
0024e0 f418      	BRCC __DIVW21U2
0024e1 0e0e      	ADD  R0,R30
0024e2 1e1f      	ADC  R1,R31
0024e3 c001      	RJMP __DIVW21U3
                 __DIVW21U2:
0024e4 60a1      	SBR  R26,1
                 __DIVW21U3:
0024e5 959a      	DEC  R25
0024e6 f799      	BRNE __DIVW21U1
0024e7 01fd      	MOVW R30,R26
0024e8 01d0      	MOVW R26,R0
0024e9 9508      	RET
                 
                 __DIVW21:
0024ea d004      	RCALL __CHKSIGNW
0024eb dfeb      	RCALL __DIVW21U
0024ec f40e      	BRTC __DIVW211
0024ed dfd8      	RCALL __ANEGW1
                 __DIVW211:
0024ee 9508      	RET
                 
                 __CHKSIGNW:
0024ef 94e8      	CLT
0024f0 fff7      	SBRS R31,7
0024f1 c002      	RJMP __CHKSW1
0024f2 dfd3      	RCALL __ANEGW1
0024f3 9468      	SET
                 __CHKSW1:
0024f4 ffb7      	SBRS R27,7
0024f5 c006      	RJMP __CHKSW2
0024f6 95a0      	COM  R26
0024f7 95b0      	COM  R27
0024f8 9611      	ADIW R26,1
0024f9 f800      	BLD  R0,0
0024fa 9403      	INC  R0
0024fb fa00      	BST  R0,0
                 __CHKSW2:
0024fc 9508      	RET
                 
                 __GETD1S0:
0024fd 81e8      	LD   R30,Y
0024fe 81f9      	LDD  R31,Y+1
0024ff 816a      	LDD  R22,Y+2
002500 817b      	LDD  R23,Y+3
002501 9508      	RET
                 
                 __PUTD1S0:
002502 83e8      	ST   Y,R30
002503 83f9      	STD  Y+1,R31
002504 836a      	STD  Y+2,R22
002505 837b      	STD  Y+3,R23
002506 9508      	RET
                 
                 __SAVELOCR6:
002507 935a      	ST   -Y,R21
                 __SAVELOCR5:
002508 934a      	ST   -Y,R20
                 __SAVELOCR4:
002509 933a      	ST   -Y,R19
                 __SAVELOCR3:
00250a 932a      	ST   -Y,R18
                 __SAVELOCR2:
00250b 931a      	ST   -Y,R17
00250c 930a      	ST   -Y,R16
00250d 9508      	RET
                 
                 __LOADLOCR6:
00250e 815d      	LDD  R21,Y+5
                 __LOADLOCR5:
00250f 814c      	LDD  R20,Y+4
                 __LOADLOCR4:
002510 813b      	LDD  R19,Y+3
                 __LOADLOCR3:
002511 812a      	LDD  R18,Y+2
                 __LOADLOCR2:
002512 8119      	LDD  R17,Y+1
002513 8108      	LD   R16,Y
002514 9508      	RET
                 
                 ;END OF CODE MARKER
                 __END_OF_CODE:


RESOURCE USE INFORMATION
------------------------

Notice:
The register and instruction counts are symbol table hit counts,
and hence implicitly used resources are not counted, eg, the
'lpm' instruction without operands implicitly uses r0 and z,
none of which are counted.

x,y,z are separate entities in the symbol table and are
counted separately from r26..r31 here.

.dseg memory usage only counts static data declared with .byte

ATmega2560 register use summary:
r0 :  42 r1 :  10 r2 :   0 r3 :   3 r4 :   5 r5 :   2 r6 :   2 r7 :   7 
r8 :   3 r9 :  12 r10:   7 r11:  23 r12:   9 r13:   3 r14:  13 r15:   2 
r16:  50 r17:  90 r18:  26 r19:  21 r20:   9 r21:   4 r22:  18 r23:   8 
r24:  15 r25:   7 r26: 654 r27:  92 r28:  24 r29:   1 r30:1053 r31: 199 
x  :  30 y  : 369 z  :  27 
Registers used: 34 out of 35 (97.1%)

ATmega2560 instruction use summary:
.lds  :   0 .lds.l:   0 .sts  :   0 .sts.l:   0 adc   :  23 add   :  27 
adiw  :  21 and   :   3 andi  :  26 asr   :   0 bclr  :   0 bld   :   1 
brbc  :   0 brbs  :   0 brcc  :   1 brcs  :   0 break :   0 breq  :  74 
brge  :   0 brhc  :   0 brhs  :   0 brid  :   0 brie  :   0 brlo  :  20 
brlt  :   0 brmi  :   0 brne  : 180 brpl  :   1 brsh  :  24 brtc  :   1 
brts  :   0 brvc  :   0 brvs  :   0 bset  :   0 bst   :   1 call  :  39 
cbi   :  11 cbr   :   0 clc   :   0 clh   :   0 cli   :   1 cln   :   0 
clr   :  26 cls   :   0 clt   :   1 clv   :   0 clz   :   0 com   :   2 
cp    :  30 cpc   :  29 cpi   : 241 cpse  :   0 dec   :   3 des   :   0 
eicall:   0 eijmp :   0 elpm  :   0 eor   :   0 fmul  :   0 fmuls :   0 
fmulsu:   0 icall :   4 ijmp  :   0 in    :   5 inc   :   5 jmp   :  60 
ld    :  67 ldd   : 103 ldi   : 569 lds   : 212 lpm   :  15 lsl   :   5 
lsr   :   6 mov   :  75 movw  :  62 mul   :  16 muls  :   7 mulsu :   0 
neg   :   2 nop   :  24 or    :   0 ori   :  19 out   :  13 pop   :   2 
push  :   2 rcall : 110 ret   :  29 reti  :   7 rjmp  : 215 rol   :   3 
ror   :   0 sbc   :   2 sbci  :  36 sbi   :  20 sbic  :   5 sbis  :   5 
sbiw  :  24 sbr   :   1 sbrc  :   0 sbrs  :   2 sec   :   0 seh   :   0 
sei   :   2 sen   :   0 ser   :   0 ses   :   0 set   :   1 sev   :   0 
sez   :   0 sleep :   0 spm   :   0 st    : 217 std   :  28 sts   : 129 
sub   :   7 subi  :  63 swap  :   4 tst   :   3 wdr   :   1 
Instructions used: 68 out of 119 (57.1%)

ATmega2560 memory use summary [bytes]:
Segment   Begin    End      Code   Data   Used    Size   Use%
---------------------------------------------------------------
[.cseg] 0x000000 0x004a2a   6818  12168  18986  262144   7.2%
[.dseg] 0x000200 0x000f8a      0   1418   1418    8192  17.3%
[.eseg] 0x000000 0x000000      0      0      0    4096   0.0%

Assembly complete, 0 errors, 17 warnings
